
app.elf:     file format elf32-littlearm


Disassembly of section .text:

50000000 <_start>:
50000000:	e59f0028 	ldr	r0, [pc, #40]	; 50000030 <_start+0x30>
50000004:	e1a0d000 	mov	sp, r0
50000008:	e3a00000 	mov	r0, #0
5000000c:	e59f1020 	ldr	r1, [pc, #32]	; 50000034 <_start+0x34>
50000010:	e59f2020 	ldr	r2, [pc, #32]	; 50000038 <_start+0x38>
50000014:	e1510002 	cmp	r1, r2
50000018:	34810004 	strcc	r0, [r1], #4
5000001c:	3afffffc 	bcc	50000014 <_start+0x14>
50000020:	f57ff04f 	dsb	sy
50000024:	e59fa010 	ldr	sl, [pc, #16]	; 5000003c <_start+0x3c>
50000028:	e1a0e00f 	mov	lr, pc
5000002c:	e12fff1a 	bx	sl
50000030:	5003f4e8 	.word	0x5003f4e8
50000034:	500177a8 	.word	0x500177a8
50000038:	5003d4e8 	.word	0x5003d4e8
5000003c:	50000048 	.word	0x50000048

50000040 <getCpsr>:
50000040:	e10f0000 	mrs	r0, CPSR
50000044:	e12fff1e 	bx	lr

50000048 <l_main>:
50000048:	e92d4800 	push	{fp, lr}
5000004c:	e28db004 	add	fp, sp, #4
50000050:	e3040dfc 	movw	r0, #19964	; 0x4dfc
50000054:	e3450001 	movt	r0, #20481	; 0x5001
50000058:	eb004f2a 	bl	50013d08 <lib_printf>
5000005c:	e30000e4 	movw	r0, #228	; 0xe4
50000060:	e3450000 	movt	r0, #20480	; 0x5000
50000064:	eb0050c3 	bl	50014378 <MXI_irqRegister>
50000068:	e3a0001b 	mov	r0, #27
5000006c:	eb0050dc 	bl	500143e4 <MXI_irqAttach>
50000070:	e3a00007 	mov	r0, #7
50000074:	e3001110 	movw	r1, #272	; 0x110
50000078:	e3451000 	movt	r1, #20480	; 0x5000
5000007c:	eb005129 	bl	50014528 <MXI_swiRegister>
50000080:	eb000249 	bl	500009ac <DfewOSMain>
50000084:	eafffffe 	b	50000084 <l_main+0x3c>

50000088 <delayMs>:
50000088:	e52db004 	push	{fp}		; (str fp, [sp, #-4]!)
5000008c:	e28db000 	add	fp, sp, #0
50000090:	e24dd014 	sub	sp, sp, #20
50000094:	e50b0010 	str	r0, [fp, #-16]
50000098:	ea00000b 	b	500000cc <delayMs+0x44>
5000009c:	e51b3010 	ldr	r3, [fp, #-16]
500000a0:	e2433001 	sub	r3, r3, #1
500000a4:	e50b3010 	str	r3, [fp, #-16]
500000a8:	e3a03000 	mov	r3, #0
500000ac:	e50b3008 	str	r3, [fp, #-8]
500000b0:	ea000002 	b	500000c0 <delayMs+0x38>
500000b4:	e51b3008 	ldr	r3, [fp, #-8]
500000b8:	e2833001 	add	r3, r3, #1
500000bc:	e50b3008 	str	r3, [fp, #-8]
500000c0:	e51b3008 	ldr	r3, [fp, #-8]
500000c4:	e3530d7e 	cmp	r3, #8064	; 0x1f80
500000c8:	9afffff9 	bls	500000b4 <delayMs+0x2c>
500000cc:	e51b3010 	ldr	r3, [fp, #-16]
500000d0:	e3530000 	cmp	r3, #0
500000d4:	1afffff0 	bne	5000009c <delayMs+0x14>
500000d8:	e24bd000 	sub	sp, fp, #0
500000dc:	e49db004 	pop	{fp}		; (ldr fp, [sp], #4)
500000e0:	e12fff1e 	bx	lr

500000e4 <_isr>:
500000e4:	e92d4800 	push	{fp, lr}
500000e8:	e28db004 	add	fp, sp, #4
500000ec:	e24dd008 	sub	sp, sp, #8
500000f0:	e50b0008 	str	r0, [fp, #-8]
500000f4:	e50b100c 	str	r1, [fp, #-12]
500000f8:	e51b3008 	ldr	r3, [fp, #-8]
500000fc:	e1a00003 	mov	r0, r3
50000100:	e51b100c 	ldr	r1, [fp, #-12]
50000104:	eb00224a 	bl	50008a34 <L4_OSIntEntry>
50000108:	e24bd004 	sub	sp, fp, #4
5000010c:	e8bd8800 	pop	{fp, pc}

50000110 <_swi>:
50000110:	e92d4800 	push	{fp, lr}
50000114:	e28db004 	add	fp, sp, #4
50000118:	e24dd008 	sub	sp, sp, #8
5000011c:	e50b0008 	str	r0, [fp, #-8]
50000120:	e50b100c 	str	r1, [fp, #-12]
50000124:	e51b000c 	ldr	r0, [fp, #-12]
50000128:	eb002202 	bl	50008938 <L4_OSTaskSwitch>
5000012c:	e24bd004 	sub	sp, fp, #4
50000130:	e8bd8800 	pop	{fp, pc}

50000134 <T_EntryTask1>:
50000134:	e92d4800 	push	{fp, lr}
50000138:	e28db004 	add	fp, sp, #4
5000013c:	e24dd030 	sub	sp, sp, #48	; 0x30
50000140:	e3a03000 	mov	r3, #0
50000144:	e50b3008 	str	r3, [fp, #-8]
50000148:	e3a00000 	mov	r0, #0
5000014c:	eb000bfc 	bl	50003144 <semB_init>
50000150:	e1a02000 	mov	r2, r0
50000154:	e30737a8 	movw	r3, #30632	; 0x77a8
50000158:	e3453001 	movt	r3, #20481	; 0x5001
5000015c:	e5832000 	str	r2, [r3]
50000160:	e30737a8 	movw	r3, #30632	; 0x77a8
50000164:	e3453001 	movt	r3, #20481	; 0x5001
50000168:	e5933000 	ldr	r3, [r3]
5000016c:	e1a00003 	mov	r0, r3
50000170:	e3a01000 	mov	r1, #0
50000174:	eb000c12 	bl	500031c4 <semB_take>
50000178:	e3040e20 	movw	r0, #20000	; 0x4e20
5000017c:	e3450001 	movt	r0, #20481	; 0x5001
50000180:	e51b1008 	ldr	r1, [fp, #-8]
50000184:	eb00114a 	bl	500046b4 <serial_printf>
50000188:	e30737ac 	movw	r3, #30636	; 0x77ac
5000018c:	e3453001 	movt	r3, #20481	; 0x5001
50000190:	e5932000 	ldr	r2, [r3]
50000194:	e24b3030 	sub	r3, fp, #48	; 0x30
50000198:	e1a00002 	mov	r0, r2
5000019c:	e1a01003 	mov	r1, r3
500001a0:	e3a02026 	mov	r2, #38	; 0x26
500001a4:	e3e03000 	mvn	r3, #0
500001a8:	eb0009ad 	bl	50002864 <msgQ_receive>
500001ac:	e1a03000 	mov	r3, r0
500001b0:	e3530000 	cmp	r3, #0
500001b4:	1a000005 	bne	500001d0 <T_EntryTask1+0x9c>
500001b8:	e24b3030 	sub	r3, fp, #48	; 0x30
500001bc:	e3040e30 	movw	r0, #20016	; 0x4e30
500001c0:	e3450001 	movt	r0, #20481	; 0x5001
500001c4:	e1a01003 	mov	r1, r3
500001c8:	eb001139 	bl	500046b4 <serial_printf>
500001cc:	ea000002 	b	500001dc <T_EntryTask1+0xa8>
500001d0:	e3040e4c 	movw	r0, #20044	; 0x4e4c
500001d4:	e3450001 	movt	r0, #20481	; 0x5001
500001d8:	eb001135 	bl	500046b4 <serial_printf>
500001dc:	e51b3008 	ldr	r3, [fp, #-8]
500001e0:	e2833001 	add	r3, r3, #1
500001e4:	e50b3008 	str	r3, [fp, #-8]
500001e8:	eaffffe2 	b	50000178 <T_EntryTask1+0x44>

500001ec <T_EntryTask2>:
500001ec:	e92d4800 	push	{fp, lr}
500001f0:	e28db004 	add	fp, sp, #4
500001f4:	e30737ac 	movw	r3, #30636	; 0x77ac
500001f8:	e3453001 	movt	r3, #20481	; 0x5001
500001fc:	e5933000 	ldr	r3, [r3]
50000200:	e1a00003 	mov	r0, r3
50000204:	e3041e70 	movw	r1, #20080	; 0x4e70
50000208:	e3451001 	movt	r1, #20481	; 0x5001
5000020c:	e3a02026 	mov	r2, #38	; 0x26
50000210:	e3a0300a 	mov	r3, #10
50000214:	eb00091d 	bl	50002690 <msgQ_send>
50000218:	eb00202e 	bl	500082d8 <task_show>
5000021c:	e3a00f4b 	mov	r0, #300	; 0x12c
50000220:	eb000402 	bl	50001230 <delayQ_delay>
50000224:	eafffff2 	b	500001f4 <T_EntryTask2+0x8>

50000228 <T_EntryTask3>:
50000228:	e92d4800 	push	{fp, lr}
5000022c:	e28db004 	add	fp, sp, #4
50000230:	e24dd010 	sub	sp, sp, #16
50000234:	e50b0010 	str	r0, [fp, #-16]
50000238:	e50b1014 	str	r1, [fp, #-20]
5000023c:	e3a03000 	mov	r3, #0
50000240:	e50b3008 	str	r3, [fp, #-8]
50000244:	e3a00000 	mov	r0, #0
50000248:	e3a01004 	mov	r1, #4
5000024c:	e3a02026 	mov	r2, #38	; 0x26
50000250:	eb0008d6 	bl	500025b0 <msgQ_init>
50000254:	e1a02000 	mov	r2, r0
50000258:	e30737ac 	movw	r3, #30636	; 0x77ac
5000025c:	e3453001 	movt	r3, #20481	; 0x5001
50000260:	e5832000 	str	r2, [r3]
50000264:	e3040e98 	movw	r0, #20120	; 0x4e98
50000268:	e3450001 	movt	r0, #20481	; 0x5001
5000026c:	eb0010a0 	bl	500044f4 <serial_puts>
50000270:	e3040ec0 	movw	r0, #20160	; 0x4ec0
50000274:	e3450001 	movt	r0, #20481	; 0x5001
50000278:	e51b1010 	ldr	r1, [fp, #-16]
5000027c:	e51b2014 	ldr	r2, [fp, #-20]
50000280:	eb00110b 	bl	500046b4 <serial_printf>
50000284:	e3040ee8 	movw	r0, #20200	; 0x4ee8
50000288:	e3450001 	movt	r0, #20481	; 0x5001
5000028c:	eb001098 	bl	500044f4 <serial_puts>
50000290:	ea000008 	b	500002b8 <T_EntryTask3+0x90>
50000294:	e3a00014 	mov	r0, #20
50000298:	eb0001e8 	bl	50000a40 <delay>
5000029c:	e3040f10 	movw	r0, #20240	; 0x4f10
500002a0:	e3450001 	movt	r0, #20481	; 0x5001
500002a4:	e51b1008 	ldr	r1, [fp, #-8]
500002a8:	eb001101 	bl	500046b4 <serial_printf>
500002ac:	e51b3008 	ldr	r3, [fp, #-8]
500002b0:	e2833001 	add	r3, r3, #1
500002b4:	e50b3008 	str	r3, [fp, #-8]
500002b8:	e51b3008 	ldr	r3, [fp, #-8]
500002bc:	e3530002 	cmp	r3, #2
500002c0:	dafffff3 	ble	50000294 <T_EntryTask3+0x6c>
500002c4:	e24bd004 	sub	sp, fp, #4
500002c8:	e8bd8800 	pop	{fp, pc}

500002cc <test_msgQ_example_1>:
500002cc:	e92d4800 	push	{fp, lr}
500002d0:	e28db004 	add	fp, sp, #4
500002d4:	e24dd008 	sub	sp, sp, #8
500002d8:	e3a03000 	mov	r3, #0
500002dc:	e58d3000 	str	r3, [sp]
500002e0:	e3a03000 	mov	r3, #0
500002e4:	e58d3004 	str	r3, [sp, #4]
500002e8:	e3040f24 	movw	r0, #20260	; 0x4f24
500002ec:	e3450001 	movt	r0, #20481	; 0x5001
500002f0:	e3a01b01 	mov	r1, #1024	; 0x400
500002f4:	e3a02002 	mov	r2, #2
500002f8:	e3003134 	movw	r3, #308	; 0x134
500002fc:	e3453000 	movt	r3, #20480	; 0x5000
50000300:	eb001edc 	bl	50007e78 <task_create>
50000304:	e3a03000 	mov	r3, #0
50000308:	e58d3000 	str	r3, [sp]
5000030c:	e3a03000 	mov	r3, #0
50000310:	e58d3004 	str	r3, [sp, #4]
50000314:	e3040f2c 	movw	r0, #20268	; 0x4f2c
50000318:	e3450001 	movt	r0, #20481	; 0x5001
5000031c:	e3a01b01 	mov	r1, #1024	; 0x400
50000320:	e3a02003 	mov	r2, #3
50000324:	e30031ec 	movw	r3, #492	; 0x1ec
50000328:	e3453000 	movt	r3, #20480	; 0x5000
5000032c:	eb001ed1 	bl	50007e78 <task_create>
50000330:	e3a03002 	mov	r3, #2
50000334:	e58d3000 	str	r3, [sp]
50000338:	e3a03003 	mov	r3, #3
5000033c:	e58d3004 	str	r3, [sp, #4]
50000340:	e3040f34 	movw	r0, #20276	; 0x4f34
50000344:	e3450001 	movt	r0, #20481	; 0x5001
50000348:	e3a01b01 	mov	r1, #1024	; 0x400
5000034c:	e3a02001 	mov	r2, #1
50000350:	e3003228 	movw	r3, #552	; 0x228
50000354:	e3453000 	movt	r3, #20480	; 0x5000
50000358:	eb001ec6 	bl	50007e78 <task_create>
5000035c:	e24bd004 	sub	sp, fp, #4
50000360:	e8bd8800 	pop	{fp, pc}

50000364 <T_Test1_semM>:
50000364:	e92d4800 	push	{fp, lr}
50000368:	e28db004 	add	fp, sp, #4
5000036c:	e24dd008 	sub	sp, sp, #8
50000370:	e3a03000 	mov	r3, #0
50000374:	e50b3008 	str	r3, [fp, #-8]
50000378:	e30737b0 	movw	r3, #30640	; 0x77b0
5000037c:	e3453001 	movt	r3, #20481	; 0x5001
50000380:	e5933000 	ldr	r3, [r3]
50000384:	e1a00003 	mov	r0, r3
50000388:	e3a01000 	mov	r1, #0
5000038c:	eb000e37 	bl	50003c70 <semM_take>
50000390:	e30737b4 	movw	r3, #30644	; 0x77b4
50000394:	e3453001 	movt	r3, #20481	; 0x5001
50000398:	e5933000 	ldr	r3, [r3]
5000039c:	e1a00003 	mov	r0, r3
500003a0:	e3a01000 	mov	r1, #0
500003a4:	eb000e31 	bl	50003c70 <semM_take>
500003a8:	e3040f3c 	movw	r0, #20284	; 0x4f3c
500003ac:	e3450001 	movt	r0, #20481	; 0x5001
500003b0:	eb00104f 	bl	500044f4 <serial_puts>
500003b4:	e3040f44 	movw	r0, #20292	; 0x4f44
500003b8:	e3450001 	movt	r0, #20481	; 0x5001
500003bc:	eb00104c 	bl	500044f4 <serial_puts>
500003c0:	e3040f84 	movw	r0, #20356	; 0x4f84
500003c4:	e3450001 	movt	r0, #20481	; 0x5001
500003c8:	eb001049 	bl	500044f4 <serial_puts>
500003cc:	e3040f8c 	movw	r0, #20364	; 0x4f8c
500003d0:	e3450001 	movt	r0, #20481	; 0x5001
500003d4:	e51b1008 	ldr	r1, [fp, #-8]
500003d8:	eb0010b5 	bl	500046b4 <serial_printf>
500003dc:	eb001fbd 	bl	500082d8 <task_show>
500003e0:	e3a0005a 	mov	r0, #90	; 0x5a
500003e4:	eb000391 	bl	50001230 <delayQ_delay>
500003e8:	e51b3008 	ldr	r3, [fp, #-8]
500003ec:	e3530003 	cmp	r3, #3
500003f0:	1a000004 	bne	50000408 <T_Test1_semM+0xa4>
500003f4:	e30737b4 	movw	r3, #30644	; 0x77b4
500003f8:	e3453001 	movt	r3, #20481	; 0x5001
500003fc:	e5933000 	ldr	r3, [r3]
50000400:	e1a00003 	mov	r0, r3
50000404:	eb000e77 	bl	50003de8 <semM_give>
50000408:	e51b3008 	ldr	r3, [fp, #-8]
5000040c:	e3530005 	cmp	r3, #5
50000410:	1a000005 	bne	5000042c <T_Test1_semM+0xc8>
50000414:	e30737b0 	movw	r3, #30640	; 0x77b0
50000418:	e3453001 	movt	r3, #20481	; 0x5001
5000041c:	e5933000 	ldr	r3, [r3]
50000420:	e1a00003 	mov	r0, r3
50000424:	eb000e6f 	bl	50003de8 <semM_give>
50000428:	ea000003 	b	5000043c <T_Test1_semM+0xd8>
5000042c:	e51b3008 	ldr	r3, [fp, #-8]
50000430:	e2833001 	add	r3, r3, #1
50000434:	e50b3008 	str	r3, [fp, #-8]
50000438:	eaffffe3 	b	500003cc <T_Test1_semM+0x68>
5000043c:	e24bd004 	sub	sp, fp, #4
50000440:	e8bd8800 	pop	{fp, pc}

50000444 <T_Test2_semM>:
50000444:	e92d4800 	push	{fp, lr}
50000448:	e28db004 	add	fp, sp, #4
5000044c:	e3a00064 	mov	r0, #100	; 0x64
50000450:	eb000376 	bl	50001230 <delayQ_delay>
50000454:	e30737b0 	movw	r3, #30640	; 0x77b0
50000458:	e3453001 	movt	r3, #20481	; 0x5001
5000045c:	e5933000 	ldr	r3, [r3]
50000460:	e1a00003 	mov	r0, r3
50000464:	e3e01000 	mvn	r1, #0
50000468:	eb000e00 	bl	50003c70 <semM_take>
5000046c:	e3040f3c 	movw	r0, #20284	; 0x4f3c
50000470:	e3450001 	movt	r0, #20481	; 0x5001
50000474:	eb00101e 	bl	500044f4 <serial_puts>
50000478:	e3040f9c 	movw	r0, #20380	; 0x4f9c
5000047c:	e3450001 	movt	r0, #20481	; 0x5001
50000480:	eb00101b 	bl	500044f4 <serial_puts>
50000484:	e3040f84 	movw	r0, #20356	; 0x4f84
50000488:	e3450001 	movt	r0, #20481	; 0x5001
5000048c:	eb001018 	bl	500044f4 <serial_puts>
50000490:	eb001f90 	bl	500082d8 <task_show>
50000494:	e8bd8800 	pop	{fp, pc}

50000498 <T_Test3_semM>:
50000498:	e92d4800 	push	{fp, lr}
5000049c:	e28db004 	add	fp, sp, #4
500004a0:	e3a000c8 	mov	r0, #200	; 0xc8
500004a4:	eb000361 	bl	50001230 <delayQ_delay>
500004a8:	e30737b4 	movw	r3, #30644	; 0x77b4
500004ac:	e3453001 	movt	r3, #20481	; 0x5001
500004b0:	e5933000 	ldr	r3, [r3]
500004b4:	e1a00003 	mov	r0, r3
500004b8:	e3e01000 	mvn	r1, #0
500004bc:	eb000deb 	bl	50003c70 <semM_take>
500004c0:	e3040f3c 	movw	r0, #20284	; 0x4f3c
500004c4:	e3450001 	movt	r0, #20481	; 0x5001
500004c8:	eb001009 	bl	500044f4 <serial_puts>
500004cc:	e3040fdc 	movw	r0, #20444	; 0x4fdc
500004d0:	e3450001 	movt	r0, #20481	; 0x5001
500004d4:	eb001006 	bl	500044f4 <serial_puts>
500004d8:	e3040f84 	movw	r0, #20356	; 0x4f84
500004dc:	e3450001 	movt	r0, #20481	; 0x5001
500004e0:	eb001003 	bl	500044f4 <serial_puts>
500004e4:	eb001f7b 	bl	500082d8 <task_show>
500004e8:	e8bd8800 	pop	{fp, pc}

500004ec <test_semM_example_1>:
500004ec:	e92d4800 	push	{fp, lr}
500004f0:	e28db004 	add	fp, sp, #4
500004f4:	e24dd008 	sub	sp, sp, #8
500004f8:	e3a00000 	mov	r0, #0
500004fc:	eb000db6 	bl	50003bdc <semM_init>
50000500:	e1a02000 	mov	r2, r0
50000504:	e30737b0 	movw	r3, #30640	; 0x77b0
50000508:	e3453001 	movt	r3, #20481	; 0x5001
5000050c:	e5832000 	str	r2, [r3]
50000510:	e3a00000 	mov	r0, #0
50000514:	eb000db0 	bl	50003bdc <semM_init>
50000518:	e1a02000 	mov	r2, r0
5000051c:	e30737b4 	movw	r3, #30644	; 0x77b4
50000520:	e3453001 	movt	r3, #20481	; 0x5001
50000524:	e5832000 	str	r2, [r3]
50000528:	e3a00000 	mov	r0, #0
5000052c:	eb000daa 	bl	50003bdc <semM_init>
50000530:	e1a02000 	mov	r2, r0
50000534:	e30737b8 	movw	r3, #30648	; 0x77b8
50000538:	e3453001 	movt	r3, #20481	; 0x5001
5000053c:	e5832000 	str	r2, [r3]
50000540:	e3a03000 	mov	r3, #0
50000544:	e58d3000 	str	r3, [sp]
50000548:	e3a03000 	mov	r3, #0
5000054c:	e58d3004 	str	r3, [sp, #4]
50000550:	e305001c 	movw	r0, #20508	; 0x501c
50000554:	e3450001 	movt	r0, #20481	; 0x5001
50000558:	e3a01b01 	mov	r1, #1024	; 0x400
5000055c:	e3a02003 	mov	r2, #3
50000560:	e3003364 	movw	r3, #868	; 0x364
50000564:	e3453000 	movt	r3, #20480	; 0x5000
50000568:	eb001e42 	bl	50007e78 <task_create>
5000056c:	e3a03000 	mov	r3, #0
50000570:	e58d3000 	str	r3, [sp]
50000574:	e3a03000 	mov	r3, #0
50000578:	e58d3004 	str	r3, [sp, #4]
5000057c:	e3050024 	movw	r0, #20516	; 0x5024
50000580:	e3450001 	movt	r0, #20481	; 0x5001
50000584:	e3a01b01 	mov	r1, #1024	; 0x400
50000588:	e3a02002 	mov	r2, #2
5000058c:	e3003444 	movw	r3, #1092	; 0x444
50000590:	e3453000 	movt	r3, #20480	; 0x5000
50000594:	eb001e37 	bl	50007e78 <task_create>
50000598:	e3a03000 	mov	r3, #0
5000059c:	e58d3000 	str	r3, [sp]
500005a0:	e3a03000 	mov	r3, #0
500005a4:	e58d3004 	str	r3, [sp, #4]
500005a8:	e305002c 	movw	r0, #20524	; 0x502c
500005ac:	e3450001 	movt	r0, #20481	; 0x5001
500005b0:	e3a01b01 	mov	r1, #1024	; 0x400
500005b4:	e3a02001 	mov	r2, #1
500005b8:	e3003498 	movw	r3, #1176	; 0x498
500005bc:	e3453000 	movt	r3, #20480	; 0x5000
500005c0:	eb001e2c 	bl	50007e78 <task_create>
500005c4:	e24bd004 	sub	sp, fp, #4
500005c8:	e8bd8800 	pop	{fp, pc}

500005cc <T_semM_Test1>:
500005cc:	e92d4800 	push	{fp, lr}
500005d0:	e28db004 	add	fp, sp, #4
500005d4:	e24dd008 	sub	sp, sp, #8
500005d8:	e3a03000 	mov	r3, #0
500005dc:	e50b3008 	str	r3, [fp, #-8]
500005e0:	e3a03000 	mov	r3, #0
500005e4:	e50b300c 	str	r3, [fp, #-12]
500005e8:	e30737b0 	movw	r3, #30640	; 0x77b0
500005ec:	e3453001 	movt	r3, #20481	; 0x5001
500005f0:	e5933000 	ldr	r3, [r3]
500005f4:	e1a00003 	mov	r0, r3
500005f8:	e3a01000 	mov	r1, #0
500005fc:	eb000d9b 	bl	50003c70 <semM_take>
50000600:	e3040f3c 	movw	r0, #20284	; 0x4f3c
50000604:	e3450001 	movt	r0, #20481	; 0x5001
50000608:	eb000fb9 	bl	500044f4 <serial_puts>
5000060c:	e3040f44 	movw	r0, #20292	; 0x4f44
50000610:	e3450001 	movt	r0, #20481	; 0x5001
50000614:	eb000fb6 	bl	500044f4 <serial_puts>
50000618:	e3040f84 	movw	r0, #20356	; 0x4f84
5000061c:	e3450001 	movt	r0, #20481	; 0x5001
50000620:	eb000fb3 	bl	500044f4 <serial_puts>
50000624:	e3050034 	movw	r0, #20532	; 0x5034
50000628:	e3450001 	movt	r0, #20481	; 0x5001
5000062c:	e51b1008 	ldr	r1, [fp, #-8]
50000630:	eb00101f 	bl	500046b4 <serial_printf>
50000634:	e3073878 	movw	r3, #30840	; 0x7878
50000638:	e3453001 	movt	r3, #20481	; 0x5001
5000063c:	e5933000 	ldr	r3, [r3]
50000640:	e5933030 	ldr	r3, [r3, #48]	; 0x30
50000644:	e3530002 	cmp	r3, #2
50000648:	1a000009 	bne	50000674 <T_semM_Test1+0xa8>
5000064c:	e3040f3c 	movw	r0, #20284	; 0x4f3c
50000650:	e3450001 	movt	r0, #20481	; 0x5001
50000654:	eb000fa6 	bl	500044f4 <serial_puts>
50000658:	e3050044 	movw	r0, #20548	; 0x5044
5000065c:	e3450001 	movt	r0, #20481	; 0x5001
50000660:	eb000fa3 	bl	500044f4 <serial_puts>
50000664:	e3040f84 	movw	r0, #20356	; 0x4f84
50000668:	e3450001 	movt	r0, #20481	; 0x5001
5000066c:	eb000fa0 	bl	500044f4 <serial_puts>
50000670:	eb001f18 	bl	500082d8 <task_show>
50000674:	e3073878 	movw	r3, #30840	; 0x7878
50000678:	e3453001 	movt	r3, #20481	; 0x5001
5000067c:	e5933000 	ldr	r3, [r3]
50000680:	e5933030 	ldr	r3, [r3, #48]	; 0x30
50000684:	e3530001 	cmp	r3, #1
50000688:	1a000010 	bne	500006d0 <T_semM_Test1+0x104>
5000068c:	e3040f3c 	movw	r0, #20284	; 0x4f3c
50000690:	e3450001 	movt	r0, #20481	; 0x5001
50000694:	eb000f96 	bl	500044f4 <serial_puts>
50000698:	e3050084 	movw	r0, #20612	; 0x5084
5000069c:	e3450001 	movt	r0, #20481	; 0x5001
500006a0:	eb000f93 	bl	500044f4 <serial_puts>
500006a4:	e3040f84 	movw	r0, #20356	; 0x4f84
500006a8:	e3450001 	movt	r0, #20481	; 0x5001
500006ac:	eb000f90 	bl	500044f4 <serial_puts>
500006b0:	eb001f08 	bl	500082d8 <task_show>
500006b4:	e30737b0 	movw	r3, #30640	; 0x77b0
500006b8:	e3453001 	movt	r3, #20481	; 0x5001
500006bc:	e5933000 	ldr	r3, [r3]
500006c0:	e1a00003 	mov	r0, r3
500006c4:	eb000dc7 	bl	50003de8 <semM_give>
500006c8:	e3a03001 	mov	r3, #1
500006cc:	e50b300c 	str	r3, [fp, #-12]
500006d0:	e3073878 	movw	r3, #30840	; 0x7878
500006d4:	e3453001 	movt	r3, #20481	; 0x5001
500006d8:	e5933000 	ldr	r3, [r3]
500006dc:	e5933030 	ldr	r3, [r3, #48]	; 0x30
500006e0:	e3530003 	cmp	r3, #3
500006e4:	1a00000d 	bne	50000720 <T_semM_Test1+0x154>
500006e8:	e51b300c 	ldr	r3, [fp, #-12]
500006ec:	e3530000 	cmp	r3, #0
500006f0:	0a00000a 	beq	50000720 <T_semM_Test1+0x154>
500006f4:	e3040f3c 	movw	r0, #20284	; 0x4f3c
500006f8:	e3450001 	movt	r0, #20481	; 0x5001
500006fc:	eb000f7c 	bl	500044f4 <serial_puts>
50000700:	e30500c4 	movw	r0, #20676	; 0x50c4
50000704:	e3450001 	movt	r0, #20481	; 0x5001
50000708:	eb000f79 	bl	500044f4 <serial_puts>
5000070c:	e3040f84 	movw	r0, #20356	; 0x4f84
50000710:	e3450001 	movt	r0, #20481	; 0x5001
50000714:	eb000f76 	bl	500044f4 <serial_puts>
50000718:	eb001eee 	bl	500082d8 <task_show>
5000071c:	ea000005 	b	50000738 <T_semM_Test1+0x16c>
50000720:	e3a00064 	mov	r0, #100	; 0x64
50000724:	eb0002c1 	bl	50001230 <delayQ_delay>
50000728:	e51b3008 	ldr	r3, [fp, #-8]
5000072c:	e2833001 	add	r3, r3, #1
50000730:	e50b3008 	str	r3, [fp, #-8]
50000734:	eaffffba 	b	50000624 <T_semM_Test1+0x58>
50000738:	e24bd004 	sub	sp, fp, #4
5000073c:	e8bd8800 	pop	{fp, pc}

50000740 <T_semM_Test2>:
50000740:	e92d4800 	push	{fp, lr}
50000744:	e28db004 	add	fp, sp, #4
50000748:	e3a00064 	mov	r0, #100	; 0x64
5000074c:	eb0002b7 	bl	50001230 <delayQ_delay>
50000750:	e30737b4 	movw	r3, #30644	; 0x77b4
50000754:	e3453001 	movt	r3, #20481	; 0x5001
50000758:	e5933000 	ldr	r3, [r3]
5000075c:	e1a00003 	mov	r0, r3
50000760:	e3a01000 	mov	r1, #0
50000764:	eb000d41 	bl	50003c70 <semM_take>
50000768:	e30737b0 	movw	r3, #30640	; 0x77b0
5000076c:	e3453001 	movt	r3, #20481	; 0x5001
50000770:	e5933000 	ldr	r3, [r3]
50000774:	e1a00003 	mov	r0, r3
50000778:	e3e01000 	mvn	r1, #0
5000077c:	eb000d3b 	bl	50003c70 <semM_take>
50000780:	e3073878 	movw	r3, #30840	; 0x7878
50000784:	e3453001 	movt	r3, #20481	; 0x5001
50000788:	e5933000 	ldr	r3, [r3]
5000078c:	e5933030 	ldr	r3, [r3, #48]	; 0x30
50000790:	e3530001 	cmp	r3, #1
50000794:	1a00000c 	bne	500007cc <T_semM_Test2+0x8c>
50000798:	e3040f3c 	movw	r0, #20284	; 0x4f3c
5000079c:	e3450001 	movt	r0, #20481	; 0x5001
500007a0:	eb000f53 	bl	500044f4 <serial_puts>
500007a4:	e3050104 	movw	r0, #20740	; 0x5104
500007a8:	e3450001 	movt	r0, #20481	; 0x5001
500007ac:	eb000f50 	bl	500044f4 <serial_puts>
500007b0:	e3050144 	movw	r0, #20804	; 0x5144
500007b4:	e3450001 	movt	r0, #20481	; 0x5001
500007b8:	eb000f4d 	bl	500044f4 <serial_puts>
500007bc:	e3040f84 	movw	r0, #20356	; 0x4f84
500007c0:	e3450001 	movt	r0, #20481	; 0x5001
500007c4:	eb000f4a 	bl	500044f4 <serial_puts>
500007c8:	eb001ec2 	bl	500082d8 <task_show>
500007cc:	e30737b4 	movw	r3, #30644	; 0x77b4
500007d0:	e3453001 	movt	r3, #20481	; 0x5001
500007d4:	e5933000 	ldr	r3, [r3]
500007d8:	e1a00003 	mov	r0, r3
500007dc:	eb000d81 	bl	50003de8 <semM_give>
500007e0:	e3073878 	movw	r3, #30840	; 0x7878
500007e4:	e3453001 	movt	r3, #20481	; 0x5001
500007e8:	e5933000 	ldr	r3, [r3]
500007ec:	e5933030 	ldr	r3, [r3, #48]	; 0x30
500007f0:	e3530002 	cmp	r3, #2
500007f4:	1a000009 	bne	50000820 <T_semM_Test2+0xe0>
500007f8:	e3040f3c 	movw	r0, #20284	; 0x4f3c
500007fc:	e3450001 	movt	r0, #20481	; 0x5001
50000800:	eb000f3b 	bl	500044f4 <serial_puts>
50000804:	e3050184 	movw	r0, #20868	; 0x5184
50000808:	e3450001 	movt	r0, #20481	; 0x5001
5000080c:	eb000f38 	bl	500044f4 <serial_puts>
50000810:	e3040f84 	movw	r0, #20356	; 0x4f84
50000814:	e3450001 	movt	r0, #20481	; 0x5001
50000818:	eb000f35 	bl	500044f4 <serial_puts>
5000081c:	eb001ead 	bl	500082d8 <task_show>
50000820:	e8bd8800 	pop	{fp, pc}

50000824 <T_semM_Test3>:
50000824:	e92d4800 	push	{fp, lr}
50000828:	e28db004 	add	fp, sp, #4
5000082c:	e3a000c8 	mov	r0, #200	; 0xc8
50000830:	eb00027e 	bl	50001230 <delayQ_delay>
50000834:	e30737b4 	movw	r3, #30644	; 0x77b4
50000838:	e3453001 	movt	r3, #20481	; 0x5001
5000083c:	e5933000 	ldr	r3, [r3]
50000840:	e1a00003 	mov	r0, r3
50000844:	e3e01000 	mvn	r1, #0
50000848:	eb000d08 	bl	50003c70 <semM_take>
5000084c:	e3040f3c 	movw	r0, #20284	; 0x4f3c
50000850:	e3450001 	movt	r0, #20481	; 0x5001
50000854:	eb000f26 	bl	500044f4 <serial_puts>
50000858:	e30501c4 	movw	r0, #20932	; 0x51c4
5000085c:	e3450001 	movt	r0, #20481	; 0x5001
50000860:	eb000f23 	bl	500044f4 <serial_puts>
50000864:	e3040f84 	movw	r0, #20356	; 0x4f84
50000868:	e3450001 	movt	r0, #20481	; 0x5001
5000086c:	eb000f20 	bl	500044f4 <serial_puts>
50000870:	eb001e98 	bl	500082d8 <task_show>
50000874:	e8bd8800 	pop	{fp, pc}

50000878 <test_semM_example_2>:
50000878:	e92d4800 	push	{fp, lr}
5000087c:	e28db004 	add	fp, sp, #4
50000880:	e24dd008 	sub	sp, sp, #8
50000884:	e3a00000 	mov	r0, #0
50000888:	eb000cd3 	bl	50003bdc <semM_init>
5000088c:	e1a02000 	mov	r2, r0
50000890:	e30737b0 	movw	r3, #30640	; 0x77b0
50000894:	e3453001 	movt	r3, #20481	; 0x5001
50000898:	e5832000 	str	r2, [r3]
5000089c:	e3a00000 	mov	r0, #0
500008a0:	eb000ccd 	bl	50003bdc <semM_init>
500008a4:	e1a02000 	mov	r2, r0
500008a8:	e30737b4 	movw	r3, #30644	; 0x77b4
500008ac:	e3453001 	movt	r3, #20481	; 0x5001
500008b0:	e5832000 	str	r2, [r3]
500008b4:	e3a00000 	mov	r0, #0
500008b8:	eb000cc7 	bl	50003bdc <semM_init>
500008bc:	e1a02000 	mov	r2, r0
500008c0:	e30737b8 	movw	r3, #30648	; 0x77b8
500008c4:	e3453001 	movt	r3, #20481	; 0x5001
500008c8:	e5832000 	str	r2, [r3]
500008cc:	e3a03000 	mov	r3, #0
500008d0:	e58d3000 	str	r3, [sp]
500008d4:	e3a03000 	mov	r3, #0
500008d8:	e58d3004 	str	r3, [sp, #4]
500008dc:	e305001c 	movw	r0, #20508	; 0x501c
500008e0:	e3450001 	movt	r0, #20481	; 0x5001
500008e4:	e3a01b01 	mov	r1, #1024	; 0x400
500008e8:	e3a02003 	mov	r2, #3
500008ec:	e30035cc 	movw	r3, #1484	; 0x5cc
500008f0:	e3453000 	movt	r3, #20480	; 0x5000
500008f4:	eb001d5f 	bl	50007e78 <task_create>
500008f8:	e3a03000 	mov	r3, #0
500008fc:	e58d3000 	str	r3, [sp]
50000900:	e3a03000 	mov	r3, #0
50000904:	e58d3004 	str	r3, [sp, #4]
50000908:	e3050024 	movw	r0, #20516	; 0x5024
5000090c:	e3450001 	movt	r0, #20481	; 0x5001
50000910:	e3a01b01 	mov	r1, #1024	; 0x400
50000914:	e3a02002 	mov	r2, #2
50000918:	e3003740 	movw	r3, #1856	; 0x740
5000091c:	e3453000 	movt	r3, #20480	; 0x5000
50000920:	eb001d54 	bl	50007e78 <task_create>
50000924:	e3a03000 	mov	r3, #0
50000928:	e58d3000 	str	r3, [sp]
5000092c:	e3a03000 	mov	r3, #0
50000930:	e58d3004 	str	r3, [sp, #4]
50000934:	e305002c 	movw	r0, #20524	; 0x502c
50000938:	e3450001 	movt	r0, #20481	; 0x5001
5000093c:	e3a01b01 	mov	r1, #1024	; 0x400
50000940:	e3a02001 	mov	r2, #1
50000944:	e3003824 	movw	r3, #2084	; 0x824
50000948:	e3453000 	movt	r3, #20480	; 0x5000
5000094c:	eb001d49 	bl	50007e78 <task_create>
50000950:	e24bd004 	sub	sp, fp, #4
50000954:	e8bd8800 	pop	{fp, pc}

50000958 <T_idle>:
50000958:	e52db004 	push	{fp}		; (str fp, [sp, #-4]!)
5000095c:	e28db000 	add	fp, sp, #0
50000960:	e24dd00c 	sub	sp, sp, #12
50000964:	e30c3bb1 	movw	r3, #52145	; 0xcbb1
50000968:	e3403074 	movt	r3, #116	; 0x74
5000096c:	e50b3008 	str	r3, [fp, #-8]
50000970:	ea000007 	b	50000994 <T_idle+0x3c>
50000974:	e3a03014 	mov	r3, #20
50000978:	e50b300c 	str	r3, [fp, #-12]
5000097c:	e1a00000 	nop			; (mov r0, r0)
50000980:	e51b300c 	ldr	r3, [fp, #-12]
50000984:	e2432001 	sub	r2, r3, #1
50000988:	e50b200c 	str	r2, [fp, #-12]
5000098c:	e3530000 	cmp	r3, #0
50000990:	1afffffa 	bne	50000980 <T_idle+0x28>
50000994:	e51b3008 	ldr	r3, [fp, #-8]
50000998:	e2432001 	sub	r2, r3, #1
5000099c:	e50b2008 	str	r2, [fp, #-8]
500009a0:	e3530000 	cmp	r3, #0
500009a4:	1afffff2 	bne	50000974 <T_idle+0x1c>
500009a8:	eaffffed 	b	50000964 <T_idle+0xc>

500009ac <DfewOSMain>:
500009ac:	e92d4800 	push	{fp, lr}
500009b0:	e28db004 	add	fp, sp, #4
500009b4:	e24dd008 	sub	sp, sp, #8
500009b8:	eb00043f 	bl	50001abc <heap_init>
500009bc:	eb001b94 	bl	50007814 <task_init>
500009c0:	eb0008fa 	bl	50002db0 <readyQ_init>
500009c4:	eb000ea1 	bl	50004450 <serial_init>
500009c8:	e3050204 	movw	r0, #20996	; 0x5204
500009cc:	e3450001 	movt	r0, #20481	; 0x5001
500009d0:	eb000f37 	bl	500046b4 <serial_printf>
500009d4:	e3a03000 	mov	r3, #0
500009d8:	e58d3000 	str	r3, [sp]
500009dc:	e3a03000 	mov	r3, #0
500009e0:	e58d3004 	str	r3, [sp, #4]
500009e4:	e3050214 	movw	r0, #21012	; 0x5214
500009e8:	e3450001 	movt	r0, #20481	; 0x5001
500009ec:	e3a01b01 	mov	r1, #1024	; 0x400
500009f0:	e3a020ff 	mov	r2, #255	; 0xff
500009f4:	e3003958 	movw	r3, #2392	; 0x958
500009f8:	e3453000 	movt	r3, #20480	; 0x5000
500009fc:	eb001d1d 	bl	50007e78 <task_create>
50000a00:	e3a03000 	mov	r3, #0
50000a04:	e58d3000 	str	r3, [sp]
50000a08:	e3a03000 	mov	r3, #0
50000a0c:	e58d3004 	str	r3, [sp, #4]
50000a10:	e305021c 	movw	r0, #21020	; 0x521c
50000a14:	e3450001 	movt	r0, #20481	; 0x5001
50000a18:	e3a01a19 	mov	r1, #102400	; 0x19000
50000a1c:	e3a02000 	mov	r2, #0
50000a20:	e3063bc8 	movw	r3, #27592	; 0x6bc8
50000a24:	e3453000 	movt	r3, #20480	; 0x5000
50000a28:	eb001d12 	bl	50007e78 <task_create>
50000a2c:	ef000007 	svc	0x00000007
50000a30:	e3a03000 	mov	r3, #0
50000a34:	e1a00003 	mov	r0, r3
50000a38:	e24bd004 	sub	sp, fp, #4
50000a3c:	e8bd8800 	pop	{fp, pc}

50000a40 <delay>:
50000a40:	e52db004 	push	{fp}		; (str fp, [sp, #-4]!)
50000a44:	e28db000 	add	fp, sp, #0
50000a48:	e24dd014 	sub	sp, sp, #20
50000a4c:	e50b0010 	str	r0, [fp, #-16]
50000a50:	e3043240 	movw	r3, #16960	; 0x4240
50000a54:	e340300f 	movt	r3, #15
50000a58:	e50b3008 	str	r3, [fp, #-8]
50000a5c:	ea000005 	b	50000a78 <delay+0x38>
50000a60:	e1a00000 	nop			; (mov r0, r0)
50000a64:	e51b3010 	ldr	r3, [fp, #-16]
50000a68:	e2432001 	sub	r2, r3, #1
50000a6c:	e50b2010 	str	r2, [fp, #-16]
50000a70:	e3530000 	cmp	r3, #0
50000a74:	cafffffa 	bgt	50000a64 <delay+0x24>
50000a78:	e51b3008 	ldr	r3, [fp, #-8]
50000a7c:	e2432001 	sub	r2, r3, #1
50000a80:	e50b2008 	str	r2, [fp, #-8]
50000a84:	e3530000 	cmp	r3, #0
50000a88:	cafffff4 	bgt	50000a60 <delay+0x20>
50000a8c:	e24bd000 	sub	sp, fp, #0
50000a90:	e49db004 	pop	{fp}		; (ldr fp, [sp], #4)
50000a94:	e12fff1e 	bx	lr

50000a98 <atomic_add>:
50000a98:	e92d4800 	push	{fp, lr}
50000a9c:	e28db004 	add	fp, sp, #4
50000aa0:	e24dd010 	sub	sp, sp, #16
50000aa4:	e50b0010 	str	r0, [fp, #-16]
50000aa8:	e50b1014 	str	r1, [fp, #-20]
50000aac:	eb001e6e 	bl	5000846c <CPU_LOCK>
50000ab0:	e50b0008 	str	r0, [fp, #-8]
50000ab4:	e51b3010 	ldr	r3, [fp, #-16]
50000ab8:	e5933000 	ldr	r3, [r3]
50000abc:	e50b300c 	str	r3, [fp, #-12]
50000ac0:	e51b200c 	ldr	r2, [fp, #-12]
50000ac4:	e51b3014 	ldr	r3, [fp, #-20]
50000ac8:	e0822003 	add	r2, r2, r3
50000acc:	e51b3010 	ldr	r3, [fp, #-16]
50000ad0:	e5832000 	str	r2, [r3]
50000ad4:	e51b0008 	ldr	r0, [fp, #-8]
50000ad8:	eb001e6c 	bl	50008490 <CPU_UNLOCK>
50000adc:	e51b300c 	ldr	r3, [fp, #-12]
50000ae0:	e1a00003 	mov	r0, r3
50000ae4:	e24bd004 	sub	sp, fp, #4
50000ae8:	e8bd8800 	pop	{fp, pc}

50000aec <atomic_sub>:
50000aec:	e92d4800 	push	{fp, lr}
50000af0:	e28db004 	add	fp, sp, #4
50000af4:	e24dd010 	sub	sp, sp, #16
50000af8:	e50b0010 	str	r0, [fp, #-16]
50000afc:	e50b1014 	str	r1, [fp, #-20]
50000b00:	eb001e59 	bl	5000846c <CPU_LOCK>
50000b04:	e50b0008 	str	r0, [fp, #-8]
50000b08:	e51b3010 	ldr	r3, [fp, #-16]
50000b0c:	e5933000 	ldr	r3, [r3]
50000b10:	e50b300c 	str	r3, [fp, #-12]
50000b14:	e51b200c 	ldr	r2, [fp, #-12]
50000b18:	e51b3014 	ldr	r3, [fp, #-20]
50000b1c:	e0632002 	rsb	r2, r3, r2
50000b20:	e51b3010 	ldr	r3, [fp, #-16]
50000b24:	e5832000 	str	r2, [r3]
50000b28:	e51b0008 	ldr	r0, [fp, #-8]
50000b2c:	eb001e57 	bl	50008490 <CPU_UNLOCK>
50000b30:	e51b300c 	ldr	r3, [fp, #-12]
50000b34:	e1a00003 	mov	r0, r3
50000b38:	e24bd004 	sub	sp, fp, #4
50000b3c:	e8bd8800 	pop	{fp, pc}

50000b40 <atomic_inc>:
50000b40:	e92d4800 	push	{fp, lr}
50000b44:	e28db004 	add	fp, sp, #4
50000b48:	e24dd008 	sub	sp, sp, #8
50000b4c:	e50b0008 	str	r0, [fp, #-8]
50000b50:	e51b0008 	ldr	r0, [fp, #-8]
50000b54:	e3a01001 	mov	r1, #1
50000b58:	ebffffce 	bl	50000a98 <atomic_add>
50000b5c:	e1a03000 	mov	r3, r0
50000b60:	e1a00003 	mov	r0, r3
50000b64:	e24bd004 	sub	sp, fp, #4
50000b68:	e8bd8800 	pop	{fp, pc}

50000b6c <atomic_dec>:
50000b6c:	e92d4800 	push	{fp, lr}
50000b70:	e28db004 	add	fp, sp, #4
50000b74:	e24dd008 	sub	sp, sp, #8
50000b78:	e50b0008 	str	r0, [fp, #-8]
50000b7c:	e51b0008 	ldr	r0, [fp, #-8]
50000b80:	e3a01001 	mov	r1, #1
50000b84:	ebffffd8 	bl	50000aec <atomic_sub>
50000b88:	e1a03000 	mov	r3, r0
50000b8c:	e1a00003 	mov	r0, r3
50000b90:	e24bd004 	sub	sp, fp, #4
50000b94:	e8bd8800 	pop	{fp, pc}

50000b98 <atomic_set>:
50000b98:	e92d4800 	push	{fp, lr}
50000b9c:	e28db004 	add	fp, sp, #4
50000ba0:	e24dd010 	sub	sp, sp, #16
50000ba4:	e50b0010 	str	r0, [fp, #-16]
50000ba8:	e50b1014 	str	r1, [fp, #-20]
50000bac:	eb001e2e 	bl	5000846c <CPU_LOCK>
50000bb0:	e50b0008 	str	r0, [fp, #-8]
50000bb4:	e51b3010 	ldr	r3, [fp, #-16]
50000bb8:	e5933000 	ldr	r3, [r3]
50000bbc:	e50b300c 	str	r3, [fp, #-12]
50000bc0:	e51b3010 	ldr	r3, [fp, #-16]
50000bc4:	e51b2014 	ldr	r2, [fp, #-20]
50000bc8:	e5832000 	str	r2, [r3]
50000bcc:	e51b0008 	ldr	r0, [fp, #-8]
50000bd0:	eb001e2e 	bl	50008490 <CPU_UNLOCK>
50000bd4:	e51b300c 	ldr	r3, [fp, #-12]
50000bd8:	e1a00003 	mov	r0, r3
50000bdc:	e24bd004 	sub	sp, fp, #4
50000be0:	e8bd8800 	pop	{fp, pc}

50000be4 <atomic_get>:
50000be4:	e52db004 	push	{fp}		; (str fp, [sp, #-4]!)
50000be8:	e28db000 	add	fp, sp, #0
50000bec:	e24dd00c 	sub	sp, sp, #12
50000bf0:	e50b0008 	str	r0, [fp, #-8]
50000bf4:	e51b3008 	ldr	r3, [fp, #-8]
50000bf8:	e5933000 	ldr	r3, [r3]
50000bfc:	e1a00003 	mov	r0, r3
50000c00:	e24bd000 	sub	sp, fp, #0
50000c04:	e49db004 	pop	{fp}		; (ldr fp, [sp], #4)
50000c08:	e12fff1e 	bx	lr

50000c0c <atomic_clear>:
50000c0c:	e92d4800 	push	{fp, lr}
50000c10:	e28db004 	add	fp, sp, #4
50000c14:	e24dd008 	sub	sp, sp, #8
50000c18:	e50b0008 	str	r0, [fp, #-8]
50000c1c:	e51b0008 	ldr	r0, [fp, #-8]
50000c20:	e3a01000 	mov	r1, #0
50000c24:	ebffffdb 	bl	50000b98 <atomic_set>
50000c28:	e1a03000 	mov	r3, r0
50000c2c:	e1a00003 	mov	r0, r3
50000c30:	e24bd004 	sub	sp, fp, #4
50000c34:	e8bd8800 	pop	{fp, pc}

50000c38 <atomic_cas>:
50000c38:	e92d4800 	push	{fp, lr}
50000c3c:	e28db004 	add	fp, sp, #4
50000c40:	e24dd018 	sub	sp, sp, #24
50000c44:	e50b0010 	str	r0, [fp, #-16]
50000c48:	e50b1014 	str	r1, [fp, #-20]
50000c4c:	e50b2018 	str	r2, [fp, #-24]
50000c50:	e3a03000 	mov	r3, #0
50000c54:	e50b3008 	str	r3, [fp, #-8]
50000c58:	eb001e03 	bl	5000846c <CPU_LOCK>
50000c5c:	e50b000c 	str	r0, [fp, #-12]
50000c60:	e51b3010 	ldr	r3, [fp, #-16]
50000c64:	e5932000 	ldr	r2, [r3]
50000c68:	e51b3014 	ldr	r3, [fp, #-20]
50000c6c:	e1520003 	cmp	r2, r3
50000c70:	1a000004 	bne	50000c88 <atomic_cas+0x50>
50000c74:	e51b3010 	ldr	r3, [fp, #-16]
50000c78:	e51b2018 	ldr	r2, [fp, #-24]
50000c7c:	e5832000 	str	r2, [r3]
50000c80:	e3a03001 	mov	r3, #1
50000c84:	e50b3008 	str	r3, [fp, #-8]
50000c88:	e51b000c 	ldr	r0, [fp, #-12]
50000c8c:	eb001dff 	bl	50008490 <CPU_UNLOCK>
50000c90:	e51b3008 	ldr	r3, [fp, #-8]
50000c94:	e1a00003 	mov	r0, r3
50000c98:	e24bd004 	sub	sp, fp, #4
50000c9c:	e8bd8800 	pop	{fp, pc}

50000ca0 <cmd_add>:
50000ca0:	e92d4800 	push	{fp, lr}
50000ca4:	e28db004 	add	fp, sp, #4
50000ca8:	e24dd010 	sub	sp, sp, #16
50000cac:	e50b0010 	str	r0, [fp, #-16]
50000cb0:	e3a03000 	mov	r3, #0
50000cb4:	e50b3008 	str	r3, [fp, #-8]
50000cb8:	eb001deb 	bl	5000846c <CPU_LOCK>
50000cbc:	e1a02000 	mov	r2, r0
50000cc0:	e30737f4 	movw	r3, #30708	; 0x77f4
50000cc4:	e3453001 	movt	r3, #20481	; 0x5001
50000cc8:	e5832000 	str	r2, [r3]
50000ccc:	e3a0000c 	mov	r0, #12
50000cd0:	eb0003b8 	bl	50001bb8 <memH_malloc>
50000cd4:	e50b0008 	str	r0, [fp, #-8]
50000cd8:	e51b3010 	ldr	r3, [fp, #-16]
50000cdc:	e3530000 	cmp	r3, #0
50000ce0:	0a000006 	beq	50000d00 <cmd_add+0x60>
50000ce4:	e51b3008 	ldr	r3, [fp, #-8]
50000ce8:	e51b2010 	ldr	r2, [fp, #-16]
50000cec:	e5832008 	str	r2, [r3, #8]
50000cf0:	e30707ec 	movw	r0, #30700	; 0x77ec
50000cf4:	e3450001 	movt	r0, #20481	; 0x5001
50000cf8:	e51b1008 	ldr	r1, [fp, #-8]
50000cfc:	eb0001ea 	bl	500014ac <dlist_add>
50000d00:	e30737f4 	movw	r3, #30708	; 0x77f4
50000d04:	e3453001 	movt	r3, #20481	; 0x5001
50000d08:	e5933000 	ldr	r3, [r3]
50000d0c:	e1a00003 	mov	r0, r3
50000d10:	eb001dde 	bl	50008490 <CPU_UNLOCK>
50000d14:	e24bd004 	sub	sp, fp, #4
50000d18:	e8bd8800 	pop	{fp, pc}

50000d1c <cmd_do>:
50000d1c:	e92d4800 	push	{fp, lr}
50000d20:	e28db004 	add	fp, sp, #4
50000d24:	e24dd010 	sub	sp, sp, #16
50000d28:	e50b0010 	str	r0, [fp, #-16]
50000d2c:	e3a03000 	mov	r3, #0
50000d30:	e50b3008 	str	r3, [fp, #-8]
50000d34:	e51b0010 	ldr	r0, [fp, #-16]
50000d38:	eb0000b9 	bl	50001024 <_cmd_dispatch_arg>
50000d3c:	e30737bc 	movw	r3, #30652	; 0x77bc
50000d40:	e3453001 	movt	r3, #20481	; 0x5001
50000d44:	e5933000 	ldr	r3, [r3]
50000d48:	e30707ec 	movw	r0, #30700	; 0x77ec
50000d4c:	e3450001 	movt	r0, #20481	; 0x5001
50000d50:	e301116c 	movw	r1, #4460	; 0x116c
50000d54:	e3451000 	movt	r1, #20480	; 0x5000
50000d58:	e1a02003 	mov	r2, r3
50000d5c:	eb000256 	bl	500016bc <dlist_each>
50000d60:	e50b0008 	str	r0, [fp, #-8]
50000d64:	e51b3008 	ldr	r3, [fp, #-8]
50000d68:	e3530000 	cmp	r3, #0
50000d6c:	0a00000b 	beq	50000da0 <cmd_do+0x84>
50000d70:	e51b3008 	ldr	r3, [fp, #-8]
50000d74:	e5933008 	ldr	r3, [r3, #8]
50000d78:	e5932008 	ldr	r2, [r3, #8]
50000d7c:	e30737c0 	movw	r3, #30656	; 0x77c0
50000d80:	e3453001 	movt	r3, #20481	; 0x5001
50000d84:	e5933000 	ldr	r3, [r3]
50000d88:	e1a00003 	mov	r0, r3
50000d8c:	e30717c4 	movw	r1, #30660	; 0x77c4
50000d90:	e3451001 	movt	r1, #20481	; 0x5001
50000d94:	e12fff32 	blx	r2
50000d98:	e1a03000 	mov	r3, r0
50000d9c:	ea000005 	b	50000db8 <cmd_do+0x9c>
50000da0:	e30737bc 	movw	r3, #30652	; 0x77bc
50000da4:	e3453001 	movt	r3, #20481	; 0x5001
50000da8:	e5933000 	ldr	r3, [r3]
50000dac:	e1a00003 	mov	r0, r3
50000db0:	eb0000dc 	bl	50001128 <_cmd_unknown_warning>
50000db4:	e3e03001 	mvn	r3, #1
50000db8:	e1a00003 	mov	r0, r3
50000dbc:	e24bd004 	sub	sp, fp, #4
50000dc0:	e8bd8800 	pop	{fp, pc}

50000dc4 <cmd_show>:
50000dc4:	e92d4800 	push	{fp, lr}
50000dc8:	e28db004 	add	fp, sp, #4
50000dcc:	e24dd010 	sub	sp, sp, #16
50000dd0:	e50b0010 	str	r0, [fp, #-16]
50000dd4:	e50b1014 	str	r1, [fp, #-20]
50000dd8:	e51b3010 	ldr	r3, [fp, #-16]
50000ddc:	e3530001 	cmp	r3, #1
50000de0:	1a000006 	bne	50000e00 <cmd_show+0x3c>
50000de4:	e30707ec 	movw	r0, #30700	; 0x77ec
50000de8:	e3450001 	movt	r0, #20481	; 0x5001
50000dec:	e30111bc 	movw	r1, #4540	; 0x11bc
50000df0:	e3451000 	movt	r1, #20480	; 0x5000
50000df4:	e3a02000 	mov	r2, #0
50000df8:	eb00022f 	bl	500016bc <dlist_each>
50000dfc:	ea000027 	b	50000ea0 <cmd_show+0xdc>
50000e00:	e3a03000 	mov	r3, #0
50000e04:	e50b300c 	str	r3, [fp, #-12]
50000e08:	e3a03001 	mov	r3, #1
50000e0c:	e50b3008 	str	r3, [fp, #-8]
50000e10:	ea00001e 	b	50000e90 <cmd_show+0xcc>
50000e14:	e51b3008 	ldr	r3, [fp, #-8]
50000e18:	e1a03103 	lsl	r3, r3, #2
50000e1c:	e51b2014 	ldr	r2, [fp, #-20]
50000e20:	e0823003 	add	r3, r2, r3
50000e24:	e5933000 	ldr	r3, [r3]
50000e28:	e30707ec 	movw	r0, #30700	; 0x77ec
50000e2c:	e3450001 	movt	r0, #20481	; 0x5001
50000e30:	e301116c 	movw	r1, #4460	; 0x116c
50000e34:	e3451000 	movt	r1, #20480	; 0x5000
50000e38:	e1a02003 	mov	r2, r3
50000e3c:	eb00021e 	bl	500016bc <dlist_each>
50000e40:	e50b000c 	str	r0, [fp, #-12]
50000e44:	e51b300c 	ldr	r3, [fp, #-12]
50000e48:	e3530000 	cmp	r3, #0
50000e4c:	0a000003 	beq	50000e60 <cmd_show+0x9c>
50000e50:	e51b000c 	ldr	r0, [fp, #-12]
50000e54:	e3a01000 	mov	r1, #0
50000e58:	eb0000d7 	bl	500011bc <_cmd_show_one>
50000e5c:	ea000008 	b	50000e84 <cmd_show+0xc0>
50000e60:	e51b3008 	ldr	r3, [fp, #-8]
50000e64:	e1a03103 	lsl	r3, r3, #2
50000e68:	e51b2014 	ldr	r2, [fp, #-20]
50000e6c:	e0823003 	add	r3, r2, r3
50000e70:	e5933000 	ldr	r3, [r3]
50000e74:	e1a00003 	mov	r0, r3
50000e78:	eb0000aa 	bl	50001128 <_cmd_unknown_warning>
50000e7c:	e3a0000a 	mov	r0, #10
50000e80:	eb000d89 	bl	500044ac <serial_putc>
50000e84:	e51b3008 	ldr	r3, [fp, #-8]
50000e88:	e2833001 	add	r3, r3, #1
50000e8c:	e50b3008 	str	r3, [fp, #-8]
50000e90:	e51b2008 	ldr	r2, [fp, #-8]
50000e94:	e51b3010 	ldr	r3, [fp, #-16]
50000e98:	e1520003 	cmp	r2, r3
50000e9c:	baffffdc 	blt	50000e14 <cmd_show+0x50>
50000ea0:	e3a03000 	mov	r3, #0
50000ea4:	e1a00003 	mov	r0, r3
50000ea8:	e24bd004 	sub	sp, fp, #4
50000eac:	e8bd8800 	pop	{fp, pc}

50000eb0 <cmd_tab>:
50000eb0:	e92d4810 	push	{r4, fp, lr}
50000eb4:	e28db008 	add	fp, sp, #8
50000eb8:	e24dd00c 	sub	sp, sp, #12
50000ebc:	e50b0010 	str	r0, [fp, #-16]
50000ec0:	e50b1014 	str	r1, [fp, #-20]
50000ec4:	e30707f8 	movw	r0, #30712	; 0x77f8
50000ec8:	e3450001 	movt	r0, #20481	; 0x5001
50000ecc:	e51b1010 	ldr	r1, [fp, #-16]
50000ed0:	eb000faa 	bl	50004d80 <strcmp>
50000ed4:	e1a03000 	mov	r3, r0
50000ed8:	e3530000 	cmp	r3, #0
50000edc:	0a00000a 	beq	50000f0c <cmd_tab+0x5c>
50000ee0:	e30707f8 	movw	r0, #30712	; 0x77f8
50000ee4:	e3450001 	movt	r0, #20481	; 0x5001
50000ee8:	e51b1010 	ldr	r1, [fp, #-16]
50000eec:	eb000f36 	bl	50004bcc <strcpy>
50000ef0:	e30737ec 	movw	r3, #30700	; 0x77ec
50000ef4:	e3453001 	movt	r3, #20481	; 0x5001
50000ef8:	e5932000 	ldr	r2, [r3]
50000efc:	e307380c 	movw	r3, #30732	; 0x780c
50000f00:	e3453001 	movt	r3, #20481	; 0x5001
50000f04:	e5832000 	str	r2, [r3]
50000f08:	ea000012 	b	50000f58 <cmd_tab+0xa8>
50000f0c:	e307380c 	movw	r3, #30732	; 0x780c
50000f10:	e3453001 	movt	r3, #20481	; 0x5001
50000f14:	e5933000 	ldr	r3, [r3]
50000f18:	e3530000 	cmp	r3, #0
50000f1c:	1a000006 	bne	50000f3c <cmd_tab+0x8c>
50000f20:	e30737ec 	movw	r3, #30700	; 0x77ec
50000f24:	e3453001 	movt	r3, #20481	; 0x5001
50000f28:	e5932000 	ldr	r2, [r3]
50000f2c:	e307380c 	movw	r3, #30732	; 0x780c
50000f30:	e3453001 	movt	r3, #20481	; 0x5001
50000f34:	e5832000 	str	r2, [r3]
50000f38:	ea000006 	b	50000f58 <cmd_tab+0xa8>
50000f3c:	e307380c 	movw	r3, #30732	; 0x780c
50000f40:	e3453001 	movt	r3, #20481	; 0x5001
50000f44:	e5933000 	ldr	r3, [r3]
50000f48:	e5932000 	ldr	r2, [r3]
50000f4c:	e307380c 	movw	r3, #30732	; 0x780c
50000f50:	e3453001 	movt	r3, #20481	; 0x5001
50000f54:	e5832000 	str	r2, [r3]
50000f58:	ea00001e 	b	50000fd8 <cmd_tab+0x128>
50000f5c:	e307380c 	movw	r3, #30732	; 0x780c
50000f60:	e3453001 	movt	r3, #20481	; 0x5001
50000f64:	e5933000 	ldr	r3, [r3]
50000f68:	e5933008 	ldr	r3, [r3, #8]
50000f6c:	e5934000 	ldr	r4, [r3]
50000f70:	e51b0010 	ldr	r0, [fp, #-16]
50000f74:	eb00100a 	bl	50004fa4 <strlen>
50000f78:	e1a03000 	mov	r3, r0
50000f7c:	e51b0010 	ldr	r0, [fp, #-16]
50000f80:	e1a01004 	mov	r1, r4
50000f84:	e1a02003 	mov	r2, r3
50000f88:	eb000fa4 	bl	50004e20 <strncmp>
50000f8c:	e1a03000 	mov	r3, r0
50000f90:	e3530000 	cmp	r3, #0
50000f94:	1a000008 	bne	50000fbc <cmd_tab+0x10c>
50000f98:	e307380c 	movw	r3, #30732	; 0x780c
50000f9c:	e3453001 	movt	r3, #20481	; 0x5001
50000fa0:	e5933000 	ldr	r3, [r3]
50000fa4:	e5933008 	ldr	r3, [r3, #8]
50000fa8:	e5933000 	ldr	r3, [r3]
50000fac:	e51b0014 	ldr	r0, [fp, #-20]
50000fb0:	e1a01003 	mov	r1, r3
50000fb4:	eb000f04 	bl	50004bcc <strcpy>
50000fb8:	ea00000b 	b	50000fec <cmd_tab+0x13c>
50000fbc:	e307380c 	movw	r3, #30732	; 0x780c
50000fc0:	e3453001 	movt	r3, #20481	; 0x5001
50000fc4:	e5933000 	ldr	r3, [r3]
50000fc8:	e5932000 	ldr	r2, [r3]
50000fcc:	e307380c 	movw	r3, #30732	; 0x780c
50000fd0:	e3453001 	movt	r3, #20481	; 0x5001
50000fd4:	e5832000 	str	r2, [r3]
50000fd8:	e307380c 	movw	r3, #30732	; 0x780c
50000fdc:	e3453001 	movt	r3, #20481	; 0x5001
50000fe0:	e5933000 	ldr	r3, [r3]
50000fe4:	e3530000 	cmp	r3, #0
50000fe8:	1affffdb 	bne	50000f5c <cmd_tab+0xac>
50000fec:	e307380c 	movw	r3, #30732	; 0x780c
50000ff0:	e3453001 	movt	r3, #20481	; 0x5001
50000ff4:	e5933000 	ldr	r3, [r3]
50000ff8:	e3530000 	cmp	r3, #0
50000ffc:	1a000002 	bne	5000100c <cmd_tab+0x15c>
50001000:	e51b0014 	ldr	r0, [fp, #-20]
50001004:	e51b1010 	ldr	r1, [fp, #-16]
50001008:	eb000eef 	bl	50004bcc <strcpy>
5000100c:	e51b0014 	ldr	r0, [fp, #-20]
50001010:	eb000fe3 	bl	50004fa4 <strlen>
50001014:	e1a03000 	mov	r3, r0
50001018:	e1a00003 	mov	r0, r3
5000101c:	e24bd008 	sub	sp, fp, #8
50001020:	e8bd8810 	pop	{r4, fp, pc}

50001024 <_cmd_dispatch_arg>:
50001024:	e92d4800 	push	{fp, lr}
50001028:	e28db004 	add	fp, sp, #4
5000102c:	e24dd010 	sub	sp, sp, #16
50001030:	e50b0010 	str	r0, [fp, #-16]
50001034:	e3a03001 	mov	r3, #1
50001038:	e50b3008 	str	r3, [fp, #-8]
5000103c:	e30737bc 	movw	r3, #30652	; 0x77bc
50001040:	e3453001 	movt	r3, #20481	; 0x5001
50001044:	e51b2010 	ldr	r2, [fp, #-16]
50001048:	e5832000 	str	r2, [r3]
5000104c:	e30737c0 	movw	r3, #30656	; 0x77c0
50001050:	e3453001 	movt	r3, #20481	; 0x5001
50001054:	e3a02000 	mov	r2, #0
50001058:	e5832000 	str	r2, [r3]
5000105c:	ea000029 	b	50001108 <_cmd_dispatch_arg+0xe4>
50001060:	e51b3010 	ldr	r3, [fp, #-16]
50001064:	e5d33000 	ldrb	r3, [r3]
50001068:	e6af3073 	sxtb	r3, r3
5000106c:	e1a00003 	mov	r0, r3
50001070:	eb001449 	bl	5000619c <isspace>
50001074:	e1a03000 	mov	r3, r0
50001078:	e3530000 	cmp	r3, #0
5000107c:	0a000005 	beq	50001098 <_cmd_dispatch_arg+0x74>
50001080:	e51b3010 	ldr	r3, [fp, #-16]
50001084:	e3a02000 	mov	r2, #0
50001088:	e5c32000 	strb	r2, [r3]
5000108c:	e3a03001 	mov	r3, #1
50001090:	e50b3008 	str	r3, [fp, #-8]
50001094:	ea000018 	b	500010fc <_cmd_dispatch_arg+0xd8>
50001098:	e51b3008 	ldr	r3, [fp, #-8]
5000109c:	e3530000 	cmp	r3, #0
500010a0:	0a000013 	beq	500010f4 <_cmd_dispatch_arg+0xd0>
500010a4:	e30737c0 	movw	r3, #30656	; 0x77c0
500010a8:	e3453001 	movt	r3, #20481	; 0x5001
500010ac:	e5932000 	ldr	r2, [r3]
500010b0:	e30737c4 	movw	r3, #30660	; 0x77c4
500010b4:	e3453001 	movt	r3, #20481	; 0x5001
500010b8:	e51b1010 	ldr	r1, [fp, #-16]
500010bc:	e7831102 	str	r1, [r3, r2, lsl #2]
500010c0:	e30737c0 	movw	r3, #30656	; 0x77c0
500010c4:	e3453001 	movt	r3, #20481	; 0x5001
500010c8:	e5933000 	ldr	r3, [r3]
500010cc:	e2832001 	add	r2, r3, #1
500010d0:	e30737c0 	movw	r3, #30656	; 0x77c0
500010d4:	e3453001 	movt	r3, #20481	; 0x5001
500010d8:	e5832000 	str	r2, [r3]
500010dc:	e30737c0 	movw	r3, #30656	; 0x77c0
500010e0:	e3453001 	movt	r3, #20481	; 0x5001
500010e4:	e5933000 	ldr	r3, [r3]
500010e8:	e353000a 	cmp	r3, #10
500010ec:	1a000000 	bne	500010f4 <_cmd_dispatch_arg+0xd0>
500010f0:	ea000008 	b	50001118 <_cmd_dispatch_arg+0xf4>
500010f4:	e3a03000 	mov	r3, #0
500010f8:	e50b3008 	str	r3, [fp, #-8]
500010fc:	e51b3010 	ldr	r3, [fp, #-16]
50001100:	e2833001 	add	r3, r3, #1
50001104:	e50b3010 	str	r3, [fp, #-16]
50001108:	e51b3010 	ldr	r3, [fp, #-16]
5000110c:	e5d33000 	ldrb	r3, [r3]
50001110:	e3530000 	cmp	r3, #0
50001114:	1affffd1 	bne	50001060 <_cmd_dispatch_arg+0x3c>
50001118:	e3a03000 	mov	r3, #0
5000111c:	e1a00003 	mov	r0, r3
50001120:	e24bd004 	sub	sp, fp, #4
50001124:	e8bd8800 	pop	{fp, pc}

50001128 <_cmd_unknown_warning>:
50001128:	e92d4800 	push	{fp, lr}
5000112c:	e28db004 	add	fp, sp, #4
50001130:	e24dd008 	sub	sp, sp, #8
50001134:	e50b0008 	str	r0, [fp, #-8]
50001138:	e3050224 	movw	r0, #21028	; 0x5224
5000113c:	e3450001 	movt	r0, #20481	; 0x5001
50001140:	eb000ceb 	bl	500044f4 <serial_puts>
50001144:	e305023c 	movw	r0, #21052	; 0x523c
50001148:	e3450001 	movt	r0, #20481	; 0x5001
5000114c:	eb000ce8 	bl	500044f4 <serial_puts>
50001150:	e51b0008 	ldr	r0, [fp, #-8]
50001154:	eb000ce6 	bl	500044f4 <serial_puts>
50001158:	e3050244 	movw	r0, #21060	; 0x5244
5000115c:	e3450001 	movt	r0, #20481	; 0x5001
50001160:	eb000ce3 	bl	500044f4 <serial_puts>
50001164:	e24bd004 	sub	sp, fp, #4
50001168:	e8bd8800 	pop	{fp, pc}

5000116c <_cmd_find_one>:
5000116c:	e92d4800 	push	{fp, lr}
50001170:	e28db004 	add	fp, sp, #4
50001174:	e24dd008 	sub	sp, sp, #8
50001178:	e50b0008 	str	r0, [fp, #-8]
5000117c:	e50b100c 	str	r1, [fp, #-12]
50001180:	e51b3008 	ldr	r3, [fp, #-8]
50001184:	e5933008 	ldr	r3, [r3, #8]
50001188:	e5933000 	ldr	r3, [r3]
5000118c:	e51b000c 	ldr	r0, [fp, #-12]
50001190:	e1a01003 	mov	r1, r3
50001194:	eb000ef9 	bl	50004d80 <strcmp>
50001198:	e1a03000 	mov	r3, r0
5000119c:	e3530000 	cmp	r3, #0
500011a0:	1a000001 	bne	500011ac <_cmd_find_one+0x40>
500011a4:	e3e03000 	mvn	r3, #0
500011a8:	ea000000 	b	500011b0 <_cmd_find_one+0x44>
500011ac:	e3a03000 	mov	r3, #0
500011b0:	e1a00003 	mov	r0, r3
500011b4:	e24bd004 	sub	sp, fp, #4
500011b8:	e8bd8800 	pop	{fp, pc}

500011bc <_cmd_show_one>:
500011bc:	e92d4800 	push	{fp, lr}
500011c0:	e28db004 	add	fp, sp, #4
500011c4:	e24dd008 	sub	sp, sp, #8
500011c8:	e50b0008 	str	r0, [fp, #-8]
500011cc:	e50b100c 	str	r1, [fp, #-12]
500011d0:	e51b3008 	ldr	r3, [fp, #-8]
500011d4:	e5933008 	ldr	r3, [r3, #8]
500011d8:	e5932000 	ldr	r2, [r3]
500011dc:	e51b3008 	ldr	r3, [fp, #-8]
500011e0:	e5933008 	ldr	r3, [r3, #8]
500011e4:	e5933004 	ldr	r3, [r3, #4]
500011e8:	e305024c 	movw	r0, #21068	; 0x524c
500011ec:	e3450001 	movt	r0, #20481	; 0x5001
500011f0:	e1a01002 	mov	r1, r2
500011f4:	e1a02003 	mov	r2, r3
500011f8:	eb000d2d 	bl	500046b4 <serial_printf>
500011fc:	e3a03000 	mov	r3, #0
50001200:	e1a00003 	mov	r0, r3
50001204:	e24bd004 	sub	sp, fp, #4
50001208:	e8bd8800 	pop	{fp, pc}

5000120c <delayQ_decrease>:
5000120c:	e92d4800 	push	{fp, lr}
50001210:	e28db004 	add	fp, sp, #4
50001214:	e3070810 	movw	r0, #30736	; 0x7810
50001218:	e3450001 	movt	r0, #20481	; 0x5001
5000121c:	e3011340 	movw	r1, #4928	; 0x1340
50001220:	e3451000 	movt	r1, #20480	; 0x5000
50001224:	e3a02001 	mov	r2, #1
50001228:	eb000123 	bl	500016bc <dlist_each>
5000122c:	e8bd8800 	pop	{fp, pc}

50001230 <delayQ_delay>:
50001230:	e92d4800 	push	{fp, lr}
50001234:	e28db004 	add	fp, sp, #4
50001238:	e24dd010 	sub	sp, sp, #16
5000123c:	e50b0010 	str	r0, [fp, #-16]
50001240:	eb001c89 	bl	5000846c <CPU_LOCK>
50001244:	e50b0008 	str	r0, [fp, #-8]
50001248:	e51b3010 	ldr	r3, [fp, #-16]
5000124c:	e3530000 	cmp	r3, #0
50001250:	1a00000a 	bne	50001280 <delayQ_delay+0x50>
50001254:	e3073878 	movw	r3, #30840	; 0x7878
50001258:	e3453001 	movt	r3, #20481	; 0x5001
5000125c:	e5933000 	ldr	r3, [r3]
50001260:	e1a00003 	mov	r0, r3
50001264:	eb00072b 	bl	50002f18 <readyQ_remove>
50001268:	e3073878 	movw	r3, #30840	; 0x7878
5000126c:	e3453001 	movt	r3, #20481	; 0x5001
50001270:	e5933000 	ldr	r3, [r3]
50001274:	e1a00003 	mov	r0, r3
50001278:	eb0006e2 	bl	50002e08 <readyQ_put>
5000127c:	ea00001a 	b	500012ec <delayQ_delay+0xbc>
50001280:	e3073878 	movw	r3, #30840	; 0x7878
50001284:	e3453001 	movt	r3, #20481	; 0x5001
50001288:	e5933000 	ldr	r3, [r3]
5000128c:	e1a00003 	mov	r0, r3
50001290:	eb000720 	bl	50002f18 <readyQ_remove>
50001294:	e3073878 	movw	r3, #30840	; 0x7878
50001298:	e3453001 	movt	r3, #20481	; 0x5001
5000129c:	e5933000 	ldr	r3, [r3]
500012a0:	e51b2010 	ldr	r2, [fp, #-16]
500012a4:	e5832044 	str	r2, [r3, #68]	; 0x44
500012a8:	e3073878 	movw	r3, #30840	; 0x7878
500012ac:	e3453001 	movt	r3, #20481	; 0x5001
500012b0:	e5933000 	ldr	r3, [r3]
500012b4:	e3a02001 	mov	r2, #1
500012b8:	e583204c 	str	r2, [r3, #76]	; 0x4c
500012bc:	e3073878 	movw	r3, #30840	; 0x7878
500012c0:	e3453001 	movt	r3, #20481	; 0x5001
500012c4:	e5933000 	ldr	r3, [r3]
500012c8:	e3a02000 	mov	r2, #0
500012cc:	e5832050 	str	r2, [r3, #80]	; 0x50
500012d0:	e3073878 	movw	r3, #30840	; 0x7878
500012d4:	e3453001 	movt	r3, #20481	; 0x5001
500012d8:	e5933000 	ldr	r3, [r3]
500012dc:	e3070810 	movw	r0, #30736	; 0x7810
500012e0:	e3450001 	movt	r0, #20481	; 0x5001
500012e4:	e1a01003 	mov	r1, r3
500012e8:	eb00006f 	bl	500014ac <dlist_add>
500012ec:	ef000007 	svc	0x00000007
500012f0:	e51b0008 	ldr	r0, [fp, #-8]
500012f4:	eb001c65 	bl	50008490 <CPU_UNLOCK>
500012f8:	e24bd004 	sub	sp, fp, #4
500012fc:	e8bd8800 	pop	{fp, pc}

50001300 <delayQ_remove>:
50001300:	e92d4800 	push	{fp, lr}
50001304:	e28db004 	add	fp, sp, #4
50001308:	e24dd010 	sub	sp, sp, #16
5000130c:	e50b0010 	str	r0, [fp, #-16]
50001310:	eb001c55 	bl	5000846c <CPU_LOCK>
50001314:	e50b0008 	str	r0, [fp, #-8]
50001318:	e3070810 	movw	r0, #30736	; 0x7810
5000131c:	e3450001 	movt	r0, #20481	; 0x5001
50001320:	e51b1010 	ldr	r1, [fp, #-16]
50001324:	eb00006d 	bl	500014e0 <dlist_remove>
50001328:	e51b0008 	ldr	r0, [fp, #-8]
5000132c:	eb001c57 	bl	50008490 <CPU_UNLOCK>
50001330:	e3a03000 	mov	r3, #0
50001334:	e1a00003 	mov	r0, r3
50001338:	e24bd004 	sub	sp, fp, #4
5000133c:	e8bd8800 	pop	{fp, pc}

50001340 <_delay_to_ready>:
50001340:	e92d4800 	push	{fp, lr}
50001344:	e28db004 	add	fp, sp, #4
50001348:	e24dd008 	sub	sp, sp, #8
5000134c:	e50b0008 	str	r0, [fp, #-8]
50001350:	e50b100c 	str	r1, [fp, #-12]
50001354:	e51b3008 	ldr	r3, [fp, #-8]
50001358:	e5933044 	ldr	r3, [r3, #68]	; 0x44
5000135c:	e2432001 	sub	r2, r3, #1
50001360:	e51b3008 	ldr	r3, [fp, #-8]
50001364:	e5832044 	str	r2, [r3, #68]	; 0x44
50001368:	e51b3008 	ldr	r3, [fp, #-8]
5000136c:	e5933044 	ldr	r3, [r3, #68]	; 0x44
50001370:	e3530000 	cmp	r3, #0
50001374:	1a000005 	bne	50001390 <_delay_to_ready+0x50>
50001378:	e3070810 	movw	r0, #30736	; 0x7810
5000137c:	e3450001 	movt	r0, #20481	; 0x5001
50001380:	e51b1008 	ldr	r1, [fp, #-8]
50001384:	eb000055 	bl	500014e0 <dlist_remove>
50001388:	e51b0008 	ldr	r0, [fp, #-8]
5000138c:	eb00069d 	bl	50002e08 <readyQ_put>
50001390:	e3a03000 	mov	r3, #0
50001394:	e1a00003 	mov	r0, r3
50001398:	e24bd004 	sub	sp, fp, #4
5000139c:	e8bd8800 	pop	{fp, pc}

500013a0 <delayQ_show>:
500013a0:	e92d4800 	push	{fp, lr}
500013a4:	e28db004 	add	fp, sp, #4
500013a8:	e24dd008 	sub	sp, sp, #8
500013ac:	e50b0008 	str	r0, [fp, #-8]
500013b0:	e3070810 	movw	r0, #30736	; 0x7810
500013b4:	e3450001 	movt	r0, #20481	; 0x5001
500013b8:	e51b1008 	ldr	r1, [fp, #-8]
500013bc:	e3a02000 	mov	r2, #0
500013c0:	eb0000bd 	bl	500016bc <dlist_each>
500013c4:	e24bd004 	sub	sp, fp, #4
500013c8:	e8bd8800 	pop	{fp, pc}

500013cc <dlist_init>:
500013cc:	e52db004 	push	{fp}		; (str fp, [sp, #-4]!)
500013d0:	e28db000 	add	fp, sp, #0
500013d4:	e24dd00c 	sub	sp, sp, #12
500013d8:	e50b0008 	str	r0, [fp, #-8]
500013dc:	e51b3008 	ldr	r3, [fp, #-8]
500013e0:	e3a02000 	mov	r2, #0
500013e4:	e5832000 	str	r2, [r3]
500013e8:	e51b3008 	ldr	r3, [fp, #-8]
500013ec:	e3a02000 	mov	r2, #0
500013f0:	e5832004 	str	r2, [r3, #4]
500013f4:	e3a03000 	mov	r3, #0
500013f8:	e1a00003 	mov	r0, r3
500013fc:	e24bd000 	sub	sp, fp, #0
50001400:	e49db004 	pop	{fp}		; (ldr fp, [sp], #4)
50001404:	e12fff1e 	bx	lr

50001408 <dlist_insert>:
50001408:	e52db004 	push	{fp}		; (str fp, [sp, #-4]!)
5000140c:	e28db000 	add	fp, sp, #0
50001410:	e24dd01c 	sub	sp, sp, #28
50001414:	e50b0010 	str	r0, [fp, #-16]
50001418:	e50b1014 	str	r1, [fp, #-20]
5000141c:	e50b2018 	str	r2, [fp, #-24]
50001420:	e51b3014 	ldr	r3, [fp, #-20]
50001424:	e3530000 	cmp	r3, #0
50001428:	1a000006 	bne	50001448 <dlist_insert+0x40>
5000142c:	e51b3010 	ldr	r3, [fp, #-16]
50001430:	e5933000 	ldr	r3, [r3]
50001434:	e50b3008 	str	r3, [fp, #-8]
50001438:	e51b3010 	ldr	r3, [fp, #-16]
5000143c:	e51b2018 	ldr	r2, [fp, #-24]
50001440:	e5832000 	str	r2, [r3]
50001444:	ea000005 	b	50001460 <dlist_insert+0x58>
50001448:	e51b3014 	ldr	r3, [fp, #-20]
5000144c:	e5933000 	ldr	r3, [r3]
50001450:	e50b3008 	str	r3, [fp, #-8]
50001454:	e51b3014 	ldr	r3, [fp, #-20]
50001458:	e51b2018 	ldr	r2, [fp, #-24]
5000145c:	e5832000 	str	r2, [r3]
50001460:	e51b3008 	ldr	r3, [fp, #-8]
50001464:	e3530000 	cmp	r3, #0
50001468:	1a000003 	bne	5000147c <dlist_insert+0x74>
5000146c:	e51b3010 	ldr	r3, [fp, #-16]
50001470:	e51b2018 	ldr	r2, [fp, #-24]
50001474:	e5832004 	str	r2, [r3, #4]
50001478:	ea000002 	b	50001488 <dlist_insert+0x80>
5000147c:	e51b3008 	ldr	r3, [fp, #-8]
50001480:	e51b2018 	ldr	r2, [fp, #-24]
50001484:	e5832004 	str	r2, [r3, #4]
50001488:	e51b3018 	ldr	r3, [fp, #-24]
5000148c:	e51b2008 	ldr	r2, [fp, #-8]
50001490:	e5832000 	str	r2, [r3]
50001494:	e51b3018 	ldr	r3, [fp, #-24]
50001498:	e51b2014 	ldr	r2, [fp, #-20]
5000149c:	e5832004 	str	r2, [r3, #4]
500014a0:	e24bd000 	sub	sp, fp, #0
500014a4:	e49db004 	pop	{fp}		; (ldr fp, [sp], #4)
500014a8:	e12fff1e 	bx	lr

500014ac <dlist_add>:
500014ac:	e92d4800 	push	{fp, lr}
500014b0:	e28db004 	add	fp, sp, #4
500014b4:	e24dd008 	sub	sp, sp, #8
500014b8:	e50b0008 	str	r0, [fp, #-8]
500014bc:	e50b100c 	str	r1, [fp, #-12]
500014c0:	e51b3008 	ldr	r3, [fp, #-8]
500014c4:	e5933004 	ldr	r3, [r3, #4]
500014c8:	e51b0008 	ldr	r0, [fp, #-8]
500014cc:	e1a01003 	mov	r1, r3
500014d0:	e51b200c 	ldr	r2, [fp, #-12]
500014d4:	ebffffcb 	bl	50001408 <dlist_insert>
500014d8:	e24bd004 	sub	sp, fp, #4
500014dc:	e8bd8800 	pop	{fp, pc}

500014e0 <dlist_remove>:
500014e0:	e52db004 	push	{fp}		; (str fp, [sp, #-4]!)
500014e4:	e28db000 	add	fp, sp, #0
500014e8:	e24dd00c 	sub	sp, sp, #12
500014ec:	e50b0008 	str	r0, [fp, #-8]
500014f0:	e50b100c 	str	r1, [fp, #-12]
500014f4:	e51b300c 	ldr	r3, [fp, #-12]
500014f8:	e5933004 	ldr	r3, [r3, #4]
500014fc:	e3530000 	cmp	r3, #0
50001500:	1a000004 	bne	50001518 <dlist_remove+0x38>
50001504:	e51b300c 	ldr	r3, [fp, #-12]
50001508:	e5932000 	ldr	r2, [r3]
5000150c:	e51b3008 	ldr	r3, [fp, #-8]
50001510:	e5832000 	str	r2, [r3]
50001514:	ea000004 	b	5000152c <dlist_remove+0x4c>
50001518:	e51b300c 	ldr	r3, [fp, #-12]
5000151c:	e5933004 	ldr	r3, [r3, #4]
50001520:	e51b200c 	ldr	r2, [fp, #-12]
50001524:	e5922000 	ldr	r2, [r2]
50001528:	e5832000 	str	r2, [r3]
5000152c:	e51b300c 	ldr	r3, [fp, #-12]
50001530:	e5933000 	ldr	r3, [r3]
50001534:	e3530000 	cmp	r3, #0
50001538:	1a000004 	bne	50001550 <dlist_remove+0x70>
5000153c:	e51b300c 	ldr	r3, [fp, #-12]
50001540:	e5932004 	ldr	r2, [r3, #4]
50001544:	e51b3008 	ldr	r3, [fp, #-8]
50001548:	e5832004 	str	r2, [r3, #4]
5000154c:	ea000004 	b	50001564 <dlist_remove+0x84>
50001550:	e51b300c 	ldr	r3, [fp, #-12]
50001554:	e5933000 	ldr	r3, [r3]
50001558:	e51b200c 	ldr	r2, [fp, #-12]
5000155c:	e5922004 	ldr	r2, [r2, #4]
50001560:	e5832004 	str	r2, [r3, #4]
50001564:	e24bd000 	sub	sp, fp, #0
50001568:	e49db004 	pop	{fp}		; (ldr fp, [sp], #4)
5000156c:	e12fff1e 	bx	lr

50001570 <dlist_get>:
50001570:	e52db004 	push	{fp}		; (str fp, [sp, #-4]!)
50001574:	e28db000 	add	fp, sp, #0
50001578:	e24dd014 	sub	sp, sp, #20
5000157c:	e50b0010 	str	r0, [fp, #-16]
50001580:	e51b3010 	ldr	r3, [fp, #-16]
50001584:	e5933000 	ldr	r3, [r3]
50001588:	e50b3008 	str	r3, [fp, #-8]
5000158c:	e51b3008 	ldr	r3, [fp, #-8]
50001590:	e3530000 	cmp	r3, #0
50001594:	0a00000f 	beq	500015d8 <dlist_get+0x68>
50001598:	e51b3008 	ldr	r3, [fp, #-8]
5000159c:	e5932000 	ldr	r2, [r3]
500015a0:	e51b3010 	ldr	r3, [fp, #-16]
500015a4:	e5832000 	str	r2, [r3]
500015a8:	e51b3008 	ldr	r3, [fp, #-8]
500015ac:	e5933000 	ldr	r3, [r3]
500015b0:	e3530000 	cmp	r3, #0
500015b4:	1a000003 	bne	500015c8 <dlist_get+0x58>
500015b8:	e51b3010 	ldr	r3, [fp, #-16]
500015bc:	e3a02000 	mov	r2, #0
500015c0:	e5832004 	str	r2, [r3, #4]
500015c4:	ea000003 	b	500015d8 <dlist_get+0x68>
500015c8:	e51b3008 	ldr	r3, [fp, #-8]
500015cc:	e5933000 	ldr	r3, [r3]
500015d0:	e3a02000 	mov	r2, #0
500015d4:	e5832004 	str	r2, [r3, #4]
500015d8:	e51b3008 	ldr	r3, [fp, #-8]
500015dc:	e1a00003 	mov	r0, r3
500015e0:	e24bd000 	sub	sp, fp, #0
500015e4:	e49db004 	pop	{fp}		; (ldr fp, [sp], #4)
500015e8:	e12fff1e 	bx	lr

500015ec <dlist_count>:
500015ec:	e52db004 	push	{fp}		; (str fp, [sp, #-4]!)
500015f0:	e28db000 	add	fp, sp, #0
500015f4:	e24dd014 	sub	sp, sp, #20
500015f8:	e50b0010 	str	r0, [fp, #-16]
500015fc:	e51b3010 	ldr	r3, [fp, #-16]
50001600:	e5933000 	ldr	r3, [r3]
50001604:	e50b3008 	str	r3, [fp, #-8]
50001608:	e3a03000 	mov	r3, #0
5000160c:	e50b300c 	str	r3, [fp, #-12]
50001610:	ea000005 	b	5000162c <dlist_count+0x40>
50001614:	e51b300c 	ldr	r3, [fp, #-12]
50001618:	e2833001 	add	r3, r3, #1
5000161c:	e50b300c 	str	r3, [fp, #-12]
50001620:	e51b3008 	ldr	r3, [fp, #-8]
50001624:	e5933000 	ldr	r3, [r3]
50001628:	e50b3008 	str	r3, [fp, #-8]
5000162c:	e51b3008 	ldr	r3, [fp, #-8]
50001630:	e3530000 	cmp	r3, #0
50001634:	1afffff6 	bne	50001614 <dlist_count+0x28>
50001638:	e51b300c 	ldr	r3, [fp, #-12]
5000163c:	e1a00003 	mov	r0, r3
50001640:	e24bd000 	sub	sp, fp, #0
50001644:	e49db004 	pop	{fp}		; (ldr fp, [sp], #4)
50001648:	e12fff1e 	bx	lr

5000164c <dlist_check>:
5000164c:	e52db004 	push	{fp}		; (str fp, [sp, #-4]!)
50001650:	e28db000 	add	fp, sp, #0
50001654:	e24dd014 	sub	sp, sp, #20
50001658:	e50b0010 	str	r0, [fp, #-16]
5000165c:	e50b1014 	str	r1, [fp, #-20]
50001660:	e51b3010 	ldr	r3, [fp, #-16]
50001664:	e5933000 	ldr	r3, [r3]
50001668:	e50b3008 	str	r3, [fp, #-8]
5000166c:	ea000002 	b	5000167c <dlist_check+0x30>
50001670:	e51b3008 	ldr	r3, [fp, #-8]
50001674:	e5933000 	ldr	r3, [r3]
50001678:	e50b3008 	str	r3, [fp, #-8]
5000167c:	e51b3008 	ldr	r3, [fp, #-8]
50001680:	e3530000 	cmp	r3, #0
50001684:	0a000003 	beq	50001698 <dlist_check+0x4c>
50001688:	e51b2008 	ldr	r2, [fp, #-8]
5000168c:	e51b3014 	ldr	r3, [fp, #-20]
50001690:	e1520003 	cmp	r2, r3
50001694:	1afffff5 	bne	50001670 <dlist_check+0x24>
50001698:	e51b3008 	ldr	r3, [fp, #-8]
5000169c:	e3530000 	cmp	r3, #0
500016a0:	13a03001 	movne	r3, #1
500016a4:	03a03000 	moveq	r3, #0
500016a8:	e6ef3073 	uxtb	r3, r3
500016ac:	e1a00003 	mov	r0, r3
500016b0:	e24bd000 	sub	sp, fp, #0
500016b4:	e49db004 	pop	{fp}		; (ldr fp, [sp], #4)
500016b8:	e12fff1e 	bx	lr

500016bc <dlist_each>:
500016bc:	e92d4800 	push	{fp, lr}
500016c0:	e28db004 	add	fp, sp, #4
500016c4:	e24dd018 	sub	sp, sp, #24
500016c8:	e50b0010 	str	r0, [fp, #-16]
500016cc:	e50b1014 	str	r1, [fp, #-20]
500016d0:	e50b2018 	str	r2, [fp, #-24]
500016d4:	e51b3010 	ldr	r3, [fp, #-16]
500016d8:	e5933000 	ldr	r3, [r3]
500016dc:	e50b3008 	str	r3, [fp, #-8]
500016e0:	ea000002 	b	500016f0 <dlist_each+0x34>
500016e4:	e51b3008 	ldr	r3, [fp, #-8]
500016e8:	e5933000 	ldr	r3, [r3]
500016ec:	e50b3008 	str	r3, [fp, #-8]
500016f0:	e51b3008 	ldr	r3, [fp, #-8]
500016f4:	e3530000 	cmp	r3, #0
500016f8:	0a000006 	beq	50001718 <dlist_each+0x5c>
500016fc:	e51b3014 	ldr	r3, [fp, #-20]
50001700:	e51b0008 	ldr	r0, [fp, #-8]
50001704:	e51b1018 	ldr	r1, [fp, #-24]
50001708:	e12fff33 	blx	r3
5000170c:	e1a03000 	mov	r3, r0
50001710:	e3530000 	cmp	r3, #0
50001714:	0afffff2 	beq	500016e4 <dlist_each+0x28>
50001718:	e51b3008 	ldr	r3, [fp, #-8]
5000171c:	e1a00003 	mov	r0, r3
50001720:	e24bd004 	sub	sp, fp, #4
50001724:	e8bd8800 	pop	{fp, pc}

50001728 <fifo_create>:
50001728:	e92d4800 	push	{fp, lr}
5000172c:	e28db004 	add	fp, sp, #4
50001730:	e24dd010 	sub	sp, sp, #16
50001734:	e50b0010 	str	r0, [fp, #-16]
50001738:	e50b1014 	str	r1, [fp, #-20]
5000173c:	e3a03000 	mov	r3, #0
50001740:	e50b3008 	str	r3, [fp, #-8]
50001744:	e51b3010 	ldr	r3, [fp, #-16]
50001748:	e3530000 	cmp	r3, #0
5000174c:	0a000002 	beq	5000175c <fifo_create+0x34>
50001750:	e51b3014 	ldr	r3, [fp, #-20]
50001754:	e3530000 	cmp	r3, #0
50001758:	1a000001 	bne	50001764 <fifo_create+0x3c>
5000175c:	e3a03000 	mov	r3, #0
50001760:	ea00001b 	b	500017d4 <fifo_create+0xac>
50001764:	e51b3010 	ldr	r3, [fp, #-16]
50001768:	e2833001 	add	r3, r3, #1
5000176c:	e51b2014 	ldr	r2, [fp, #-20]
50001770:	e0030392 	mul	r3, r2, r3
50001774:	e2833014 	add	r3, r3, #20
50001778:	e1a00003 	mov	r0, r3
5000177c:	eb00010d 	bl	50001bb8 <memH_malloc>
50001780:	e50b0008 	str	r0, [fp, #-8]
50001784:	e51b3008 	ldr	r3, [fp, #-8]
50001788:	e3530000 	cmp	r3, #0
5000178c:	0a00000f 	beq	500017d0 <fifo_create+0xa8>
50001790:	e51b3008 	ldr	r3, [fp, #-8]
50001794:	e51b2010 	ldr	r2, [fp, #-16]
50001798:	e5832008 	str	r2, [r3, #8]
5000179c:	e51b3008 	ldr	r3, [fp, #-8]
500017a0:	e51b2014 	ldr	r2, [fp, #-20]
500017a4:	e583200c 	str	r2, [r3, #12]
500017a8:	e51b3008 	ldr	r3, [fp, #-8]
500017ac:	e3a02000 	mov	r2, #0
500017b0:	e5832000 	str	r2, [r3]
500017b4:	e51b3008 	ldr	r3, [fp, #-8]
500017b8:	e3a02000 	mov	r2, #0
500017bc:	e5832004 	str	r2, [r3, #4]
500017c0:	e51b3008 	ldr	r3, [fp, #-8]
500017c4:	e2832014 	add	r2, r3, #20
500017c8:	e51b3008 	ldr	r3, [fp, #-8]
500017cc:	e5832010 	str	r2, [r3, #16]
500017d0:	e51b3008 	ldr	r3, [fp, #-8]
500017d4:	e1a00003 	mov	r0, r3
500017d8:	e24bd004 	sub	sp, fp, #4
500017dc:	e8bd8800 	pop	{fp, pc}

500017e0 <fifo_is_empty>:
500017e0:	e52db004 	push	{fp}		; (str fp, [sp, #-4]!)
500017e4:	e28db000 	add	fp, sp, #0
500017e8:	e24dd00c 	sub	sp, sp, #12
500017ec:	e50b0008 	str	r0, [fp, #-8]
500017f0:	e51b3008 	ldr	r3, [fp, #-8]
500017f4:	e5932004 	ldr	r2, [r3, #4]
500017f8:	e51b3008 	ldr	r3, [fp, #-8]
500017fc:	e5933000 	ldr	r3, [r3]
50001800:	e1520003 	cmp	r2, r3
50001804:	03a03001 	moveq	r3, #1
50001808:	13a03000 	movne	r3, #0
5000180c:	e6ef3073 	uxtb	r3, r3
50001810:	e1a00003 	mov	r0, r3
50001814:	e24bd000 	sub	sp, fp, #0
50001818:	e49db004 	pop	{fp}		; (ldr fp, [sp], #4)
5000181c:	e12fff1e 	bx	lr

50001820 <fifo_is_full>:
50001820:	e92d4800 	push	{fp, lr}
50001824:	e28db004 	add	fp, sp, #4
50001828:	e24dd008 	sub	sp, sp, #8
5000182c:	e50b0008 	str	r0, [fp, #-8]
50001830:	e51b3008 	ldr	r3, [fp, #-8]
50001834:	e5933004 	ldr	r3, [r3, #4]
50001838:	e2832001 	add	r2, r3, #1
5000183c:	e51b3008 	ldr	r3, [fp, #-8]
50001840:	e593300c 	ldr	r3, [r3, #12]
50001844:	e1a00002 	mov	r0, r2
50001848:	e1a01003 	mov	r1, r3
5000184c:	eb004cd1 	bl	50014b98 <__aeabi_uidivmod>
50001850:	e1a03001 	mov	r3, r1
50001854:	e1a02003 	mov	r2, r3
50001858:	e51b3008 	ldr	r3, [fp, #-8]
5000185c:	e5933000 	ldr	r3, [r3]
50001860:	e1520003 	cmp	r2, r3
50001864:	03a03001 	moveq	r3, #1
50001868:	13a03000 	movne	r3, #0
5000186c:	e6ef3073 	uxtb	r3, r3
50001870:	e1a00003 	mov	r0, r3
50001874:	e24bd004 	sub	sp, fp, #4
50001878:	e8bd8800 	pop	{fp, pc}

5000187c <fifo_put>:
5000187c:	e92d4800 	push	{fp, lr}
50001880:	e28db004 	add	fp, sp, #4
50001884:	e24dd010 	sub	sp, sp, #16
50001888:	e50b0010 	str	r0, [fp, #-16]
5000188c:	e50b1014 	str	r1, [fp, #-20]
50001890:	e3e03000 	mvn	r3, #0
50001894:	e50b3008 	str	r3, [fp, #-8]
50001898:	eb001af3 	bl	5000846c <CPU_LOCK>
5000189c:	e50b000c 	str	r0, [fp, #-12]
500018a0:	e51b0010 	ldr	r0, [fp, #-16]
500018a4:	ebffffdd 	bl	50001820 <fifo_is_full>
500018a8:	e1a03000 	mov	r3, r0
500018ac:	e3530000 	cmp	r3, #0
500018b0:	1a00001b 	bne	50001924 <fifo_put+0xa8>
500018b4:	e51b3010 	ldr	r3, [fp, #-16]
500018b8:	e5932010 	ldr	r2, [r3, #16]
500018bc:	e51b3010 	ldr	r3, [fp, #-16]
500018c0:	e5933004 	ldr	r3, [r3, #4]
500018c4:	e51b1010 	ldr	r1, [fp, #-16]
500018c8:	e591100c 	ldr	r1, [r1, #12]
500018cc:	e0030391 	mul	r3, r1, r3
500018d0:	e0822003 	add	r2, r2, r3
500018d4:	e51b3010 	ldr	r3, [fp, #-16]
500018d8:	e593300c 	ldr	r3, [r3, #12]
500018dc:	e1a00002 	mov	r0, r2
500018e0:	e51b1014 	ldr	r1, [fp, #-20]
500018e4:	e1a02003 	mov	r2, r3
500018e8:	eb000efc 	bl	500054e0 <memcpy>
500018ec:	e51b3010 	ldr	r3, [fp, #-16]
500018f0:	e5933004 	ldr	r3, [r3, #4]
500018f4:	e2832001 	add	r2, r3, #1
500018f8:	e51b3010 	ldr	r3, [fp, #-16]
500018fc:	e593300c 	ldr	r3, [r3, #12]
50001900:	e1a00002 	mov	r0, r2
50001904:	e1a01003 	mov	r1, r3
50001908:	eb004ca2 	bl	50014b98 <__aeabi_uidivmod>
5000190c:	e1a03001 	mov	r3, r1
50001910:	e1a02003 	mov	r2, r3
50001914:	e51b3010 	ldr	r3, [fp, #-16]
50001918:	e5832004 	str	r2, [r3, #4]
5000191c:	e3a03000 	mov	r3, #0
50001920:	e50b3008 	str	r3, [fp, #-8]
50001924:	e51b000c 	ldr	r0, [fp, #-12]
50001928:	eb001ad8 	bl	50008490 <CPU_UNLOCK>
5000192c:	e51b3008 	ldr	r3, [fp, #-8]
50001930:	e1a00003 	mov	r0, r3
50001934:	e24bd004 	sub	sp, fp, #4
50001938:	e8bd8800 	pop	{fp, pc}

5000193c <fifo_get>:
5000193c:	e92d4800 	push	{fp, lr}
50001940:	e28db004 	add	fp, sp, #4
50001944:	e24dd010 	sub	sp, sp, #16
50001948:	e50b0010 	str	r0, [fp, #-16]
5000194c:	e50b1014 	str	r1, [fp, #-20]
50001950:	e3e03000 	mvn	r3, #0
50001954:	e50b3008 	str	r3, [fp, #-8]
50001958:	eb001ac3 	bl	5000846c <CPU_LOCK>
5000195c:	e50b000c 	str	r0, [fp, #-12]
50001960:	e51b0010 	ldr	r0, [fp, #-16]
50001964:	ebffff9d 	bl	500017e0 <fifo_is_empty>
50001968:	e1a03000 	mov	r3, r0
5000196c:	e3530000 	cmp	r3, #0
50001970:	1a00001b 	bne	500019e4 <fifo_get+0xa8>
50001974:	e51b3010 	ldr	r3, [fp, #-16]
50001978:	e5932010 	ldr	r2, [r3, #16]
5000197c:	e51b3010 	ldr	r3, [fp, #-16]
50001980:	e5933000 	ldr	r3, [r3]
50001984:	e51b1010 	ldr	r1, [fp, #-16]
50001988:	e591100c 	ldr	r1, [r1, #12]
5000198c:	e0030391 	mul	r3, r1, r3
50001990:	e0822003 	add	r2, r2, r3
50001994:	e51b3010 	ldr	r3, [fp, #-16]
50001998:	e593300c 	ldr	r3, [r3, #12]
5000199c:	e51b0014 	ldr	r0, [fp, #-20]
500019a0:	e1a01002 	mov	r1, r2
500019a4:	e1a02003 	mov	r2, r3
500019a8:	eb000ecc 	bl	500054e0 <memcpy>
500019ac:	e51b3010 	ldr	r3, [fp, #-16]
500019b0:	e5933000 	ldr	r3, [r3]
500019b4:	e2832001 	add	r2, r3, #1
500019b8:	e51b3010 	ldr	r3, [fp, #-16]
500019bc:	e593300c 	ldr	r3, [r3, #12]
500019c0:	e1a00002 	mov	r0, r2
500019c4:	e1a01003 	mov	r1, r3
500019c8:	eb004c72 	bl	50014b98 <__aeabi_uidivmod>
500019cc:	e1a03001 	mov	r3, r1
500019d0:	e1a02003 	mov	r2, r3
500019d4:	e51b3010 	ldr	r3, [fp, #-16]
500019d8:	e5832000 	str	r2, [r3]
500019dc:	e3a03000 	mov	r3, #0
500019e0:	e50b3008 	str	r3, [fp, #-8]
500019e4:	e51b000c 	ldr	r0, [fp, #-12]
500019e8:	eb001aa8 	bl	50008490 <CPU_UNLOCK>
500019ec:	e51b3008 	ldr	r3, [fp, #-8]
500019f0:	e1a00003 	mov	r0, r3
500019f4:	e24bd004 	sub	sp, fp, #4
500019f8:	e8bd8800 	pop	{fp, pc}

500019fc <fifo_head>:
500019fc:	e92d4800 	push	{fp, lr}
50001a00:	e28db004 	add	fp, sp, #4
50001a04:	e24dd010 	sub	sp, sp, #16
50001a08:	e50b0010 	str	r0, [fp, #-16]
50001a0c:	e50b1014 	str	r1, [fp, #-20]
50001a10:	e3e03000 	mvn	r3, #0
50001a14:	e50b3008 	str	r3, [fp, #-8]
50001a18:	eb001a93 	bl	5000846c <CPU_LOCK>
50001a1c:	e50b000c 	str	r0, [fp, #-12]
50001a20:	e51b0010 	ldr	r0, [fp, #-16]
50001a24:	ebffff6d 	bl	500017e0 <fifo_is_empty>
50001a28:	e1a03000 	mov	r3, r0
50001a2c:	e3530000 	cmp	r3, #0
50001a30:	1a00000f 	bne	50001a74 <fifo_head+0x78>
50001a34:	e51b3010 	ldr	r3, [fp, #-16]
50001a38:	e5932010 	ldr	r2, [r3, #16]
50001a3c:	e51b3010 	ldr	r3, [fp, #-16]
50001a40:	e5933000 	ldr	r3, [r3]
50001a44:	e51b1010 	ldr	r1, [fp, #-16]
50001a48:	e591100c 	ldr	r1, [r1, #12]
50001a4c:	e0030391 	mul	r3, r1, r3
50001a50:	e0822003 	add	r2, r2, r3
50001a54:	e51b3010 	ldr	r3, [fp, #-16]
50001a58:	e593300c 	ldr	r3, [r3, #12]
50001a5c:	e51b0014 	ldr	r0, [fp, #-20]
50001a60:	e1a01002 	mov	r1, r2
50001a64:	e1a02003 	mov	r2, r3
50001a68:	eb000e9c 	bl	500054e0 <memcpy>
50001a6c:	e3a03000 	mov	r3, #0
50001a70:	e50b3008 	str	r3, [fp, #-8]
50001a74:	e51b000c 	ldr	r0, [fp, #-12]
50001a78:	eb001a84 	bl	50008490 <CPU_UNLOCK>
50001a7c:	e51b3008 	ldr	r3, [fp, #-8]
50001a80:	e1a00003 	mov	r0, r3
50001a84:	e24bd004 	sub	sp, fp, #4
50001a88:	e8bd8800 	pop	{fp, pc}

50001a8c <fifo_delete>:
50001a8c:	e92d4800 	push	{fp, lr}
50001a90:	e28db004 	add	fp, sp, #4
50001a94:	e24dd010 	sub	sp, sp, #16
50001a98:	e50b0010 	str	r0, [fp, #-16]
50001a9c:	eb001a72 	bl	5000846c <CPU_LOCK>
50001aa0:	e50b0008 	str	r0, [fp, #-8]
50001aa4:	e51b0010 	ldr	r0, [fp, #-16]
50001aa8:	eb0000f2 	bl	50001e78 <memH_free>
50001aac:	e51b0008 	ldr	r0, [fp, #-8]
50001ab0:	eb001a76 	bl	50008490 <CPU_UNLOCK>
50001ab4:	e24bd004 	sub	sp, fp, #4
50001ab8:	e8bd8800 	pop	{fp, pc}

50001abc <heap_init>:
50001abc:	e52db004 	push	{fp}		; (str fp, [sp, #-4]!)
50001ac0:	e28db000 	add	fp, sp, #0
50001ac4:	e24dd00c 	sub	sp, sp, #12
50001ac8:	e3a03000 	mov	r3, #0
50001acc:	e50b3008 	str	r3, [fp, #-8]
50001ad0:	e30f2500 	movw	r2, #62720	; 0xf500
50001ad4:	e3452003 	movt	r2, #20483	; 0x5003
50001ad8:	e3073818 	movw	r3, #30744	; 0x7818
50001adc:	e3453001 	movt	r3, #20481	; 0x5001
50001ae0:	e5832000 	str	r2, [r3]
50001ae4:	e3073818 	movw	r3, #30744	; 0x7818
50001ae8:	e3453001 	movt	r3, #20481	; 0x5001
50001aec:	e3a02501 	mov	r2, #4194304	; 0x400000
50001af0:	e5832004 	str	r2, [r3, #4]
50001af4:	e3073818 	movw	r3, #30744	; 0x7818
50001af8:	e3453001 	movt	r3, #20481	; 0x5001
50001afc:	e3a02001 	mov	r2, #1
50001b00:	e5832008 	str	r2, [r3, #8]
50001b04:	e3073818 	movw	r3, #30744	; 0x7818
50001b08:	e3453001 	movt	r3, #20481	; 0x5001
50001b0c:	e3a02000 	mov	r2, #0
50001b10:	e583200c 	str	r2, [r3, #12]
50001b14:	e3073818 	movw	r3, #30744	; 0x7818
50001b18:	e3453001 	movt	r3, #20481	; 0x5001
50001b1c:	e3a02000 	mov	r2, #0
50001b20:	e5832010 	str	r2, [r3, #16]
50001b24:	e3073818 	movw	r3, #30744	; 0x7818
50001b28:	e3453001 	movt	r3, #20481	; 0x5001
50001b2c:	e3a02001 	mov	r2, #1
50001b30:	e5832014 	str	r2, [r3, #20]
50001b34:	e3072818 	movw	r2, #30744	; 0x7818
50001b38:	e3452001 	movt	r2, #20481	; 0x5001
50001b3c:	e30f3fec 	movw	r3, #65516	; 0xffec
50001b40:	e340303f 	movt	r3, #63	; 0x3f
50001b44:	e5823018 	str	r3, [r2, #24]
50001b48:	e3072818 	movw	r2, #30744	; 0x7818
50001b4c:	e3452001 	movt	r2, #20481	; 0x5001
50001b50:	e30f3fec 	movw	r3, #65516	; 0xffec
50001b54:	e340303f 	movt	r3, #63	; 0x3f
50001b58:	e582301c 	str	r3, [r2, #28]
50001b5c:	e3073818 	movw	r3, #30744	; 0x7818
50001b60:	e3453001 	movt	r3, #20481	; 0x5001
50001b64:	e5933000 	ldr	r3, [r3]
50001b68:	e50b3008 	str	r3, [fp, #-8]
50001b6c:	e51b3008 	ldr	r3, [fp, #-8]
50001b70:	e3a02000 	mov	r2, #0
50001b74:	e5832000 	str	r2, [r3]
50001b78:	e51b3008 	ldr	r3, [fp, #-8]
50001b7c:	e3a02000 	mov	r2, #0
50001b80:	e5832004 	str	r2, [r3, #4]
50001b84:	e51b3008 	ldr	r3, [fp, #-8]
50001b88:	e3a02000 	mov	r2, #0
50001b8c:	e583200c 	str	r2, [r3, #12]
50001b90:	e51b3008 	ldr	r3, [fp, #-8]
50001b94:	e3a02000 	mov	r2, #0
50001b98:	e5832010 	str	r2, [r3, #16]
50001b9c:	e51b2008 	ldr	r2, [fp, #-8]
50001ba0:	e30f3fec 	movw	r3, #65516	; 0xffec
50001ba4:	e340303f 	movt	r3, #63	; 0x3f
50001ba8:	e5823008 	str	r3, [r2, #8]
50001bac:	e24bd000 	sub	sp, fp, #0
50001bb0:	e49db004 	pop	{fp}		; (ldr fp, [sp], #4)
50001bb4:	e12fff1e 	bx	lr

50001bb8 <memH_malloc>:
50001bb8:	e92d4800 	push	{fp, lr}
50001bbc:	e28db004 	add	fp, sp, #4
50001bc0:	e24dd018 	sub	sp, sp, #24
50001bc4:	e50b0018 	str	r0, [fp, #-24]
50001bc8:	e3073818 	movw	r3, #30744	; 0x7818
50001bcc:	e3453001 	movt	r3, #20481	; 0x5001
50001bd0:	e5933000 	ldr	r3, [r3]
50001bd4:	e50b3008 	str	r3, [fp, #-8]
50001bd8:	e3a03000 	mov	r3, #0
50001bdc:	e50b300c 	str	r3, [fp, #-12]
50001be0:	e51b3018 	ldr	r3, [fp, #-24]
50001be4:	e2833003 	add	r3, r3, #3
50001be8:	e3c33003 	bic	r3, r3, #3
50001bec:	e50b3018 	str	r3, [fp, #-24]
50001bf0:	eb001a1d 	bl	5000846c <CPU_LOCK>
50001bf4:	e1a02000 	mov	r2, r0
50001bf8:	e3073838 	movw	r3, #30776	; 0x7838
50001bfc:	e3453001 	movt	r3, #20481	; 0x5001
50001c00:	e5832000 	str	r2, [r3]
50001c04:	ea00000b 	b	50001c38 <memH_malloc+0x80>
50001c08:	e51b3008 	ldr	r3, [fp, #-8]
50001c0c:	e5933004 	ldr	r3, [r3, #4]
50001c10:	e50b3008 	str	r3, [fp, #-8]
50001c14:	e51b3008 	ldr	r3, [fp, #-8]
50001c18:	e3530000 	cmp	r3, #0
50001c1c:	1a000005 	bne	50001c38 <memH_malloc+0x80>
50001c20:	e3073838 	movw	r3, #30776	; 0x7838
50001c24:	e3453001 	movt	r3, #20481	; 0x5001
50001c28:	e5933000 	ldr	r3, [r3]
50001c2c:	e1a00003 	mov	r0, r3
50001c30:	eb001a16 	bl	50008490 <CPU_UNLOCK>
50001c34:	eafffffe 	b	50001c34 <memH_malloc+0x7c>
50001c38:	e51b3008 	ldr	r3, [fp, #-8]
50001c3c:	e593300c 	ldr	r3, [r3, #12]
50001c40:	e3530000 	cmp	r3, #0
50001c44:	1affffef 	bne	50001c08 <memH_malloc+0x50>
50001c48:	e51b3008 	ldr	r3, [fp, #-8]
50001c4c:	e5932008 	ldr	r2, [r3, #8]
50001c50:	e51b3018 	ldr	r3, [fp, #-24]
50001c54:	e1520003 	cmp	r2, r3
50001c58:	3affffea 	bcc	50001c08 <memH_malloc+0x50>
50001c5c:	e51b3018 	ldr	r3, [fp, #-24]
50001c60:	e2833014 	add	r3, r3, #20
50001c64:	e50b3010 	str	r3, [fp, #-16]
50001c68:	e51b3008 	ldr	r3, [fp, #-8]
50001c6c:	e5932008 	ldr	r2, [r3, #8]
50001c70:	e51b3010 	ldr	r3, [fp, #-16]
50001c74:	e0633002 	rsb	r3, r3, r2
50001c78:	e3530003 	cmp	r3, #3
50001c7c:	da000034 	ble	50001d54 <memH_malloc+0x19c>
50001c80:	e51b2008 	ldr	r2, [fp, #-8]
50001c84:	e51b3010 	ldr	r3, [fp, #-16]
50001c88:	e0823003 	add	r3, r2, r3
50001c8c:	e50b300c 	str	r3, [fp, #-12]
50001c90:	e51b300c 	ldr	r3, [fp, #-12]
50001c94:	e51b2008 	ldr	r2, [fp, #-8]
50001c98:	e5832000 	str	r2, [r3]
50001c9c:	e51b3008 	ldr	r3, [fp, #-8]
50001ca0:	e5932004 	ldr	r2, [r3, #4]
50001ca4:	e51b300c 	ldr	r3, [fp, #-12]
50001ca8:	e5832004 	str	r2, [r3, #4]
50001cac:	e51b3008 	ldr	r3, [fp, #-8]
50001cb0:	e5932008 	ldr	r2, [r3, #8]
50001cb4:	e51b3010 	ldr	r3, [fp, #-16]
50001cb8:	e0632002 	rsb	r2, r3, r2
50001cbc:	e51b300c 	ldr	r3, [fp, #-12]
50001cc0:	e5832008 	str	r2, [r3, #8]
50001cc4:	e51b300c 	ldr	r3, [fp, #-12]
50001cc8:	e3a02000 	mov	r2, #0
50001ccc:	e583200c 	str	r2, [r3, #12]
50001cd0:	e51b300c 	ldr	r3, [fp, #-12]
50001cd4:	e3a02000 	mov	r2, #0
50001cd8:	e5832010 	str	r2, [r3, #16]
50001cdc:	e51b300c 	ldr	r3, [fp, #-12]
50001ce0:	e5933004 	ldr	r3, [r3, #4]
50001ce4:	e3530000 	cmp	r3, #0
50001ce8:	0a000003 	beq	50001cfc <memH_malloc+0x144>
50001cec:	e51b300c 	ldr	r3, [fp, #-12]
50001cf0:	e5933004 	ldr	r3, [r3, #4]
50001cf4:	e51b200c 	ldr	r2, [fp, #-12]
50001cf8:	e5832000 	str	r2, [r3]
50001cfc:	e51b3008 	ldr	r3, [fp, #-8]
50001d00:	e51b200c 	ldr	r2, [fp, #-12]
50001d04:	e5832004 	str	r2, [r3, #4]
50001d08:	e51b3008 	ldr	r3, [fp, #-8]
50001d0c:	e51b2018 	ldr	r2, [fp, #-24]
50001d10:	e5832008 	str	r2, [r3, #8]
50001d14:	e3073818 	movw	r3, #30744	; 0x7818
50001d18:	e3453001 	movt	r3, #20481	; 0x5001
50001d1c:	e5933008 	ldr	r3, [r3, #8]
50001d20:	e2832001 	add	r2, r3, #1
50001d24:	e3073818 	movw	r3, #30744	; 0x7818
50001d28:	e3453001 	movt	r3, #20481	; 0x5001
50001d2c:	e5832008 	str	r2, [r3, #8]
50001d30:	e3073818 	movw	r3, #30744	; 0x7818
50001d34:	e3453001 	movt	r3, #20481	; 0x5001
50001d38:	e5932018 	ldr	r2, [r3, #24]
50001d3c:	e51b3010 	ldr	r3, [fp, #-16]
50001d40:	e0632002 	rsb	r2, r3, r2
50001d44:	e3073818 	movw	r3, #30744	; 0x7818
50001d48:	e3453001 	movt	r3, #20481	; 0x5001
50001d4c:	e5832018 	str	r2, [r3, #24]
50001d50:	ea00000f 	b	50001d94 <memH_malloc+0x1dc>
50001d54:	e3073818 	movw	r3, #30744	; 0x7818
50001d58:	e3453001 	movt	r3, #20481	; 0x5001
50001d5c:	e5933014 	ldr	r3, [r3, #20]
50001d60:	e2432001 	sub	r2, r3, #1
50001d64:	e3073818 	movw	r3, #30744	; 0x7818
50001d68:	e3453001 	movt	r3, #20481	; 0x5001
50001d6c:	e5832014 	str	r2, [r3, #20]
50001d70:	e3073818 	movw	r3, #30744	; 0x7818
50001d74:	e3453001 	movt	r3, #20481	; 0x5001
50001d78:	e5932018 	ldr	r2, [r3, #24]
50001d7c:	e51b3008 	ldr	r3, [fp, #-8]
50001d80:	e5933008 	ldr	r3, [r3, #8]
50001d84:	e0632002 	rsb	r2, r3, r2
50001d88:	e3073818 	movw	r3, #30744	; 0x7818
50001d8c:	e3453001 	movt	r3, #20481	; 0x5001
50001d90:	e5832018 	str	r2, [r3, #24]
50001d94:	e51b3008 	ldr	r3, [fp, #-8]
50001d98:	e3a02001 	mov	r2, #1
50001d9c:	e583200c 	str	r2, [r3, #12]
50001da0:	e3073878 	movw	r3, #30840	; 0x7878
50001da4:	e3453001 	movt	r3, #20481	; 0x5001
50001da8:	e5932000 	ldr	r2, [r3]
50001dac:	e51b3008 	ldr	r3, [fp, #-8]
50001db0:	e5832010 	str	r2, [r3, #16]
50001db4:	e3073818 	movw	r3, #30744	; 0x7818
50001db8:	e3453001 	movt	r3, #20481	; 0x5001
50001dbc:	e593300c 	ldr	r3, [r3, #12]
50001dc0:	e2832001 	add	r2, r3, #1
50001dc4:	e3073818 	movw	r3, #30744	; 0x7818
50001dc8:	e3453001 	movt	r3, #20481	; 0x5001
50001dcc:	e583200c 	str	r2, [r3, #12]
50001dd0:	e3073818 	movw	r3, #30744	; 0x7818
50001dd4:	e3453001 	movt	r3, #20481	; 0x5001
50001dd8:	e5932010 	ldr	r2, [r3, #16]
50001ddc:	e51b3008 	ldr	r3, [fp, #-8]
50001de0:	e5933008 	ldr	r3, [r3, #8]
50001de4:	e0822003 	add	r2, r2, r3
50001de8:	e3073818 	movw	r3, #30744	; 0x7818
50001dec:	e3453001 	movt	r3, #20481	; 0x5001
50001df0:	e5832010 	str	r2, [r3, #16]
50001df4:	e3073838 	movw	r3, #30776	; 0x7838
50001df8:	e3453001 	movt	r3, #20481	; 0x5001
50001dfc:	e5933000 	ldr	r3, [r3]
50001e00:	e1a00003 	mov	r0, r3
50001e04:	eb0019a1 	bl	50008490 <CPU_UNLOCK>
50001e08:	e51b3008 	ldr	r3, [fp, #-8]
50001e0c:	e2833014 	add	r3, r3, #20
50001e10:	e1a00003 	mov	r0, r3
50001e14:	e24bd004 	sub	sp, fp, #4
50001e18:	e8bd8800 	pop	{fp, pc}

50001e1c <memH_calloc>:
50001e1c:	e92d4800 	push	{fp, lr}
50001e20:	e28db004 	add	fp, sp, #4
50001e24:	e24dd010 	sub	sp, sp, #16
50001e28:	e50b0010 	str	r0, [fp, #-16]
50001e2c:	e50b1014 	str	r1, [fp, #-20]
50001e30:	e51b3010 	ldr	r3, [fp, #-16]
50001e34:	e51b2014 	ldr	r2, [fp, #-20]
50001e38:	e0030392 	mul	r3, r2, r3
50001e3c:	e50b3008 	str	r3, [fp, #-8]
50001e40:	e51b0008 	ldr	r0, [fp, #-8]
50001e44:	ebffff5b 	bl	50001bb8 <memH_malloc>
50001e48:	e50b000c 	str	r0, [fp, #-12]
50001e4c:	e51b300c 	ldr	r3, [fp, #-12]
50001e50:	e3530000 	cmp	r3, #0
50001e54:	0a000003 	beq	50001e68 <memH_calloc+0x4c>
50001e58:	e51b000c 	ldr	r0, [fp, #-12]
50001e5c:	e3a01000 	mov	r1, #0
50001e60:	e51b2008 	ldr	r2, [fp, #-8]
50001e64:	eb000dea 	bl	50005614 <memset>
50001e68:	e51b300c 	ldr	r3, [fp, #-12]
50001e6c:	e1a00003 	mov	r0, r3
50001e70:	e24bd004 	sub	sp, fp, #4
50001e74:	e8bd8800 	pop	{fp, pc}

50001e78 <memH_free>:
50001e78:	e92d4800 	push	{fp, lr}
50001e7c:	e28db004 	add	fp, sp, #4
50001e80:	e24dd010 	sub	sp, sp, #16
50001e84:	e50b0010 	str	r0, [fp, #-16]
50001e88:	e3073818 	movw	r3, #30744	; 0x7818
50001e8c:	e3453001 	movt	r3, #20481	; 0x5001
50001e90:	e5933000 	ldr	r3, [r3]
50001e94:	e50b3008 	str	r3, [fp, #-8]
50001e98:	e3073818 	movw	r3, #30744	; 0x7818
50001e9c:	e3453001 	movt	r3, #20481	; 0x5001
50001ea0:	e5933000 	ldr	r3, [r3]
50001ea4:	e1a02003 	mov	r2, r3
50001ea8:	e51b3010 	ldr	r3, [fp, #-16]
50001eac:	e1520003 	cmp	r2, r3
50001eb0:	8a00000a 	bhi	50001ee0 <memH_free+0x68>
50001eb4:	e3073818 	movw	r3, #30744	; 0x7818
50001eb8:	e3453001 	movt	r3, #20481	; 0x5001
50001ebc:	e5932000 	ldr	r2, [r3]
50001ec0:	e3073818 	movw	r3, #30744	; 0x7818
50001ec4:	e3453001 	movt	r3, #20481	; 0x5001
50001ec8:	e5933004 	ldr	r3, [r3, #4]
50001ecc:	e0823003 	add	r3, r2, r3
50001ed0:	e1a02003 	mov	r2, r3
50001ed4:	e51b3010 	ldr	r3, [fp, #-16]
50001ed8:	e1520003 	cmp	r2, r3
50001edc:	8a000000 	bhi	50001ee4 <memH_free+0x6c>
50001ee0:	ea0000ff 	b	500022e4 <memH_free+0x46c>
50001ee4:	eb001960 	bl	5000846c <CPU_LOCK>
50001ee8:	e1a02000 	mov	r2, r0
50001eec:	e3073838 	movw	r3, #30776	; 0x7838
50001ef0:	e3453001 	movt	r3, #20481	; 0x5001
50001ef4:	e5832000 	str	r2, [r3]
50001ef8:	ea00000b 	b	50001f2c <memH_free+0xb4>
50001efc:	e51b3008 	ldr	r3, [fp, #-8]
50001f00:	e5933004 	ldr	r3, [r3, #4]
50001f04:	e50b3008 	str	r3, [fp, #-8]
50001f08:	e51b3008 	ldr	r3, [fp, #-8]
50001f0c:	e3530000 	cmp	r3, #0
50001f10:	1a000005 	bne	50001f2c <memH_free+0xb4>
50001f14:	e3073838 	movw	r3, #30776	; 0x7838
50001f18:	e3453001 	movt	r3, #20481	; 0x5001
50001f1c:	e5933000 	ldr	r3, [r3]
50001f20:	e1a00003 	mov	r0, r3
50001f24:	eb001959 	bl	50008490 <CPU_UNLOCK>
50001f28:	ea0000ed 	b	500022e4 <memH_free+0x46c>
50001f2c:	e51b3010 	ldr	r3, [fp, #-16]
50001f30:	e2432014 	sub	r2, r3, #20
50001f34:	e51b3008 	ldr	r3, [fp, #-8]
50001f38:	e1520003 	cmp	r2, r3
50001f3c:	1affffee 	bne	50001efc <memH_free+0x84>
50001f40:	e3073818 	movw	r3, #30744	; 0x7818
50001f44:	e3453001 	movt	r3, #20481	; 0x5001
50001f48:	e5932010 	ldr	r2, [r3, #16]
50001f4c:	e51b3008 	ldr	r3, [fp, #-8]
50001f50:	e5933008 	ldr	r3, [r3, #8]
50001f54:	e0632002 	rsb	r2, r3, r2
50001f58:	e3073818 	movw	r3, #30744	; 0x7818
50001f5c:	e3453001 	movt	r3, #20481	; 0x5001
50001f60:	e5832010 	str	r2, [r3, #16]
50001f64:	e3073818 	movw	r3, #30744	; 0x7818
50001f68:	e3453001 	movt	r3, #20481	; 0x5001
50001f6c:	e593300c 	ldr	r3, [r3, #12]
50001f70:	e2432001 	sub	r2, r3, #1
50001f74:	e3073818 	movw	r3, #30744	; 0x7818
50001f78:	e3453001 	movt	r3, #20481	; 0x5001
50001f7c:	e583200c 	str	r2, [r3, #12]
50001f80:	e3073818 	movw	r3, #30744	; 0x7818
50001f84:	e3453001 	movt	r3, #20481	; 0x5001
50001f88:	e5932018 	ldr	r2, [r3, #24]
50001f8c:	e51b3008 	ldr	r3, [fp, #-8]
50001f90:	e5933008 	ldr	r3, [r3, #8]
50001f94:	e0822003 	add	r2, r2, r3
50001f98:	e3073818 	movw	r3, #30744	; 0x7818
50001f9c:	e3453001 	movt	r3, #20481	; 0x5001
50001fa0:	e5832018 	str	r2, [r3, #24]
50001fa4:	e51b3008 	ldr	r3, [fp, #-8]
50001fa8:	e5933000 	ldr	r3, [r3]
50001fac:	e3530000 	cmp	r3, #0
50001fb0:	0a000004 	beq	50001fc8 <memH_free+0x150>
50001fb4:	e51b3008 	ldr	r3, [fp, #-8]
50001fb8:	e5933000 	ldr	r3, [r3]
50001fbc:	e593300c 	ldr	r3, [r3, #12]
50001fc0:	e3530000 	cmp	r3, #0
50001fc4:	0a000016 	beq	50002024 <memH_free+0x1ac>
50001fc8:	e51b3008 	ldr	r3, [fp, #-8]
50001fcc:	e5933004 	ldr	r3, [r3, #4]
50001fd0:	e3530000 	cmp	r3, #0
50001fd4:	0a000004 	beq	50001fec <memH_free+0x174>
50001fd8:	e51b3008 	ldr	r3, [fp, #-8]
50001fdc:	e5933004 	ldr	r3, [r3, #4]
50001fe0:	e593300c 	ldr	r3, [r3, #12]
50001fe4:	e3530000 	cmp	r3, #0
50001fe8:	0a00000d 	beq	50002024 <memH_free+0x1ac>
50001fec:	e51b3008 	ldr	r3, [fp, #-8]
50001ff0:	e3a02000 	mov	r2, #0
50001ff4:	e583200c 	str	r2, [r3, #12]
50001ff8:	e51b3008 	ldr	r3, [fp, #-8]
50001ffc:	e3a02000 	mov	r2, #0
50002000:	e5832010 	str	r2, [r3, #16]
50002004:	e3073818 	movw	r3, #30744	; 0x7818
50002008:	e3453001 	movt	r3, #20481	; 0x5001
5000200c:	e5933014 	ldr	r3, [r3, #20]
50002010:	e2832001 	add	r2, r3, #1
50002014:	e3073818 	movw	r3, #30744	; 0x7818
50002018:	e3453001 	movt	r3, #20481	; 0x5001
5000201c:	e5832014 	str	r2, [r3, #20]
50002020:	ea0000a9 	b	500022cc <memH_free+0x454>
50002024:	e51b3008 	ldr	r3, [fp, #-8]
50002028:	e5933000 	ldr	r3, [r3]
5000202c:	e3530000 	cmp	r3, #0
50002030:	0a000034 	beq	50002108 <memH_free+0x290>
50002034:	e51b3008 	ldr	r3, [fp, #-8]
50002038:	e5933000 	ldr	r3, [r3]
5000203c:	e593300c 	ldr	r3, [r3, #12]
50002040:	e3530000 	cmp	r3, #0
50002044:	1a00002f 	bne	50002108 <memH_free+0x290>
50002048:	e51b3008 	ldr	r3, [fp, #-8]
5000204c:	e5933004 	ldr	r3, [r3, #4]
50002050:	e3530000 	cmp	r3, #0
50002054:	0a000004 	beq	5000206c <memH_free+0x1f4>
50002058:	e51b3008 	ldr	r3, [fp, #-8]
5000205c:	e5933004 	ldr	r3, [r3, #4]
50002060:	e593300c 	ldr	r3, [r3, #12]
50002064:	e3530000 	cmp	r3, #0
50002068:	0a000026 	beq	50002108 <memH_free+0x290>
5000206c:	e51b3008 	ldr	r3, [fp, #-8]
50002070:	e5933000 	ldr	r3, [r3]
50002074:	e51b2008 	ldr	r2, [fp, #-8]
50002078:	e5922004 	ldr	r2, [r2, #4]
5000207c:	e5832004 	str	r2, [r3, #4]
50002080:	e51b3008 	ldr	r3, [fp, #-8]
50002084:	e5933000 	ldr	r3, [r3]
50002088:	e51b2008 	ldr	r2, [fp, #-8]
5000208c:	e5922000 	ldr	r2, [r2]
50002090:	e5921008 	ldr	r1, [r2, #8]
50002094:	e51b2008 	ldr	r2, [fp, #-8]
50002098:	e5922008 	ldr	r2, [r2, #8]
5000209c:	e0812002 	add	r2, r1, r2
500020a0:	e2822014 	add	r2, r2, #20
500020a4:	e5832008 	str	r2, [r3, #8]
500020a8:	e51b3008 	ldr	r3, [fp, #-8]
500020ac:	e5933004 	ldr	r3, [r3, #4]
500020b0:	e3530000 	cmp	r3, #0
500020b4:	0a000004 	beq	500020cc <memH_free+0x254>
500020b8:	e51b3008 	ldr	r3, [fp, #-8]
500020bc:	e5933004 	ldr	r3, [r3, #4]
500020c0:	e51b2008 	ldr	r2, [fp, #-8]
500020c4:	e5922000 	ldr	r2, [r2]
500020c8:	e5832000 	str	r2, [r3]
500020cc:	e3073818 	movw	r3, #30744	; 0x7818
500020d0:	e3453001 	movt	r3, #20481	; 0x5001
500020d4:	e5933008 	ldr	r3, [r3, #8]
500020d8:	e2432001 	sub	r2, r3, #1
500020dc:	e3073818 	movw	r3, #30744	; 0x7818
500020e0:	e3453001 	movt	r3, #20481	; 0x5001
500020e4:	e5832008 	str	r2, [r3, #8]
500020e8:	e3073818 	movw	r3, #30744	; 0x7818
500020ec:	e3453001 	movt	r3, #20481	; 0x5001
500020f0:	e5933018 	ldr	r3, [r3, #24]
500020f4:	e2832014 	add	r2, r3, #20
500020f8:	e3073818 	movw	r3, #30744	; 0x7818
500020fc:	e3453001 	movt	r3, #20481	; 0x5001
50002100:	e5832018 	str	r2, [r3, #24]
50002104:	ea000070 	b	500022cc <memH_free+0x454>
50002108:	e51b3008 	ldr	r3, [fp, #-8]
5000210c:	e5933000 	ldr	r3, [r3]
50002110:	e3530000 	cmp	r3, #0
50002114:	0a000004 	beq	5000212c <memH_free+0x2b4>
50002118:	e51b3008 	ldr	r3, [fp, #-8]
5000211c:	e5933000 	ldr	r3, [r3]
50002120:	e593300c 	ldr	r3, [r3, #12]
50002124:	e3530000 	cmp	r3, #0
50002128:	0a000033 	beq	500021fc <memH_free+0x384>
5000212c:	e51b3008 	ldr	r3, [fp, #-8]
50002130:	e5933004 	ldr	r3, [r3, #4]
50002134:	e3530000 	cmp	r3, #0
50002138:	0a00002f 	beq	500021fc <memH_free+0x384>
5000213c:	e51b3008 	ldr	r3, [fp, #-8]
50002140:	e5933004 	ldr	r3, [r3, #4]
50002144:	e593300c 	ldr	r3, [r3, #12]
50002148:	e3530000 	cmp	r3, #0
5000214c:	1a00002a 	bne	500021fc <memH_free+0x384>
50002150:	e51b3008 	ldr	r3, [fp, #-8]
50002154:	e5932008 	ldr	r2, [r3, #8]
50002158:	e51b3008 	ldr	r3, [fp, #-8]
5000215c:	e5933004 	ldr	r3, [r3, #4]
50002160:	e5933008 	ldr	r3, [r3, #8]
50002164:	e0823003 	add	r3, r2, r3
50002168:	e2832014 	add	r2, r3, #20
5000216c:	e51b3008 	ldr	r3, [fp, #-8]
50002170:	e5832008 	str	r2, [r3, #8]
50002174:	e51b3008 	ldr	r3, [fp, #-8]
50002178:	e5933004 	ldr	r3, [r3, #4]
5000217c:	e5932004 	ldr	r2, [r3, #4]
50002180:	e51b3008 	ldr	r3, [fp, #-8]
50002184:	e5832004 	str	r2, [r3, #4]
50002188:	e51b3008 	ldr	r3, [fp, #-8]
5000218c:	e3a02000 	mov	r2, #0
50002190:	e583200c 	str	r2, [r3, #12]
50002194:	e51b3008 	ldr	r3, [fp, #-8]
50002198:	e3a02000 	mov	r2, #0
5000219c:	e5832010 	str	r2, [r3, #16]
500021a0:	e51b3008 	ldr	r3, [fp, #-8]
500021a4:	e5933004 	ldr	r3, [r3, #4]
500021a8:	e3530000 	cmp	r3, #0
500021ac:	0a000003 	beq	500021c0 <memH_free+0x348>
500021b0:	e51b3008 	ldr	r3, [fp, #-8]
500021b4:	e5933004 	ldr	r3, [r3, #4]
500021b8:	e51b2008 	ldr	r2, [fp, #-8]
500021bc:	e5832000 	str	r2, [r3]
500021c0:	e3073818 	movw	r3, #30744	; 0x7818
500021c4:	e3453001 	movt	r3, #20481	; 0x5001
500021c8:	e5933008 	ldr	r3, [r3, #8]
500021cc:	e2432001 	sub	r2, r3, #1
500021d0:	e3073818 	movw	r3, #30744	; 0x7818
500021d4:	e3453001 	movt	r3, #20481	; 0x5001
500021d8:	e5832008 	str	r2, [r3, #8]
500021dc:	e3073818 	movw	r3, #30744	; 0x7818
500021e0:	e3453001 	movt	r3, #20481	; 0x5001
500021e4:	e5933018 	ldr	r3, [r3, #24]
500021e8:	e2832014 	add	r2, r3, #20
500021ec:	e3073818 	movw	r3, #30744	; 0x7818
500021f0:	e3453001 	movt	r3, #20481	; 0x5001
500021f4:	e5832018 	str	r2, [r3, #24]
500021f8:	ea000033 	b	500022cc <memH_free+0x454>
500021fc:	e51b3008 	ldr	r3, [fp, #-8]
50002200:	e5933000 	ldr	r3, [r3]
50002204:	e51b2008 	ldr	r2, [fp, #-8]
50002208:	e5922004 	ldr	r2, [r2, #4]
5000220c:	e5922004 	ldr	r2, [r2, #4]
50002210:	e5832004 	str	r2, [r3, #4]
50002214:	e51b3008 	ldr	r3, [fp, #-8]
50002218:	e5933000 	ldr	r3, [r3]
5000221c:	e51b2008 	ldr	r2, [fp, #-8]
50002220:	e5922000 	ldr	r2, [r2]
50002224:	e5921008 	ldr	r1, [r2, #8]
50002228:	e51b2008 	ldr	r2, [fp, #-8]
5000222c:	e5920008 	ldr	r0, [r2, #8]
50002230:	e51b2008 	ldr	r2, [fp, #-8]
50002234:	e5922004 	ldr	r2, [r2, #4]
50002238:	e5922008 	ldr	r2, [r2, #8]
5000223c:	e0802002 	add	r2, r0, r2
50002240:	e0812002 	add	r2, r1, r2
50002244:	e2822028 	add	r2, r2, #40	; 0x28
50002248:	e5832008 	str	r2, [r3, #8]
5000224c:	e51b3008 	ldr	r3, [fp, #-8]
50002250:	e5933004 	ldr	r3, [r3, #4]
50002254:	e5933004 	ldr	r3, [r3, #4]
50002258:	e3530000 	cmp	r3, #0
5000225c:	0a000005 	beq	50002278 <memH_free+0x400>
50002260:	e51b3008 	ldr	r3, [fp, #-8]
50002264:	e5933004 	ldr	r3, [r3, #4]
50002268:	e5933004 	ldr	r3, [r3, #4]
5000226c:	e51b2008 	ldr	r2, [fp, #-8]
50002270:	e5922000 	ldr	r2, [r2]
50002274:	e5832000 	str	r2, [r3]
50002278:	e3073818 	movw	r3, #30744	; 0x7818
5000227c:	e3453001 	movt	r3, #20481	; 0x5001
50002280:	e5933014 	ldr	r3, [r3, #20]
50002284:	e2432001 	sub	r2, r3, #1
50002288:	e3073818 	movw	r3, #30744	; 0x7818
5000228c:	e3453001 	movt	r3, #20481	; 0x5001
50002290:	e5832014 	str	r2, [r3, #20]
50002294:	e3073818 	movw	r3, #30744	; 0x7818
50002298:	e3453001 	movt	r3, #20481	; 0x5001
5000229c:	e5933008 	ldr	r3, [r3, #8]
500022a0:	e2432002 	sub	r2, r3, #2
500022a4:	e3073818 	movw	r3, #30744	; 0x7818
500022a8:	e3453001 	movt	r3, #20481	; 0x5001
500022ac:	e5832008 	str	r2, [r3, #8]
500022b0:	e3073818 	movw	r3, #30744	; 0x7818
500022b4:	e3453001 	movt	r3, #20481	; 0x5001
500022b8:	e5933018 	ldr	r3, [r3, #24]
500022bc:	e2832028 	add	r2, r3, #40	; 0x28
500022c0:	e3073818 	movw	r3, #30744	; 0x7818
500022c4:	e3453001 	movt	r3, #20481	; 0x5001
500022c8:	e5832018 	str	r2, [r3, #24]
500022cc:	e3073838 	movw	r3, #30776	; 0x7838
500022d0:	e3453001 	movt	r3, #20481	; 0x5001
500022d4:	e5933000 	ldr	r3, [r3]
500022d8:	e1a00003 	mov	r0, r3
500022dc:	eb00186b 	bl	50008490 <CPU_UNLOCK>
500022e0:	e1a00000 	nop			; (mov r0, r0)
500022e4:	e24bd004 	sub	sp, fp, #4
500022e8:	e8bd8800 	pop	{fp, pc}

500022ec <memH_realloc>:
500022ec:	e92d4800 	push	{fp, lr}
500022f0:	e28db004 	add	fp, sp, #4
500022f4:	e24dd010 	sub	sp, sp, #16
500022f8:	e50b0010 	str	r0, [fp, #-16]
500022fc:	e50b1014 	str	r1, [fp, #-20]
50002300:	e51b3014 	ldr	r3, [fp, #-20]
50002304:	e3530000 	cmp	r3, #0
50002308:	1a000003 	bne	5000231c <memH_realloc+0x30>
5000230c:	e51b0010 	ldr	r0, [fp, #-16]
50002310:	ebfffed8 	bl	50001e78 <memH_free>
50002314:	e3a03000 	mov	r3, #0
50002318:	ea000010 	b	50002360 <memH_realloc+0x74>
5000231c:	e51b0014 	ldr	r0, [fp, #-20]
50002320:	ebfffe24 	bl	50001bb8 <memH_malloc>
50002324:	e50b0008 	str	r0, [fp, #-8]
50002328:	e51b3010 	ldr	r3, [fp, #-16]
5000232c:	e3530000 	cmp	r3, #0
50002330:	0a000009 	beq	5000235c <memH_realloc+0x70>
50002334:	e51b3008 	ldr	r3, [fp, #-8]
50002338:	e3530000 	cmp	r3, #0
5000233c:	0a000006 	beq	5000235c <memH_realloc+0x70>
50002340:	e51b3014 	ldr	r3, [fp, #-20]
50002344:	e51b0010 	ldr	r0, [fp, #-16]
50002348:	e51b1008 	ldr	r1, [fp, #-8]
5000234c:	e1a02003 	mov	r2, r3
50002350:	eb000be1 	bl	500052dc <bcopy>
50002354:	e51b0010 	ldr	r0, [fp, #-16]
50002358:	ebfffec6 	bl	50001e78 <memH_free>
5000235c:	e51b3008 	ldr	r3, [fp, #-8]
50002360:	e1a00003 	mov	r0, r3
50002364:	e24bd004 	sub	sp, fp, #4
50002368:	e8bd8800 	pop	{fp, pc}

5000236c <memH_task_free>:
5000236c:	e92d4800 	push	{fp, lr}
50002370:	e28db004 	add	fp, sp, #4
50002374:	e24dd010 	sub	sp, sp, #16
50002378:	e50b0010 	str	r0, [fp, #-16]
5000237c:	e3073818 	movw	r3, #30744	; 0x7818
50002380:	e3453001 	movt	r3, #20481	; 0x5001
50002384:	e5933000 	ldr	r3, [r3]
50002388:	e50b3008 	str	r3, [fp, #-8]
5000238c:	e3a03001 	mov	r3, #1
50002390:	e50b300c 	str	r3, [fp, #-12]
50002394:	ea000022 	b	50002424 <memH_task_free+0xb8>
50002398:	e3a03000 	mov	r3, #0
5000239c:	e50b300c 	str	r3, [fp, #-12]
500023a0:	eb001831 	bl	5000846c <CPU_LOCK>
500023a4:	e1a02000 	mov	r2, r0
500023a8:	e3073838 	movw	r3, #30776	; 0x7838
500023ac:	e3453001 	movt	r3, #20481	; 0x5001
500023b0:	e5832000 	str	r2, [r3]
500023b4:	e3073818 	movw	r3, #30744	; 0x7818
500023b8:	e3453001 	movt	r3, #20481	; 0x5001
500023bc:	e5933000 	ldr	r3, [r3]
500023c0:	e50b3008 	str	r3, [fp, #-8]
500023c4:	ea00000e 	b	50002404 <memH_task_free+0x98>
500023c8:	e51b3008 	ldr	r3, [fp, #-8]
500023cc:	e5932010 	ldr	r2, [r3, #16]
500023d0:	e51b3010 	ldr	r3, [fp, #-16]
500023d4:	e1520003 	cmp	r2, r3
500023d8:	1a000006 	bne	500023f8 <memH_task_free+0x8c>
500023dc:	e3a03001 	mov	r3, #1
500023e0:	e50b300c 	str	r3, [fp, #-12]
500023e4:	e51b3008 	ldr	r3, [fp, #-8]
500023e8:	e2833014 	add	r3, r3, #20
500023ec:	e1a00003 	mov	r0, r3
500023f0:	ebfffea0 	bl	50001e78 <memH_free>
500023f4:	ea000005 	b	50002410 <memH_task_free+0xa4>
500023f8:	e51b3008 	ldr	r3, [fp, #-8]
500023fc:	e5933004 	ldr	r3, [r3, #4]
50002400:	e50b3008 	str	r3, [fp, #-8]
50002404:	e51b3008 	ldr	r3, [fp, #-8]
50002408:	e3530000 	cmp	r3, #0
5000240c:	1affffed 	bne	500023c8 <memH_task_free+0x5c>
50002410:	e3073838 	movw	r3, #30776	; 0x7838
50002414:	e3453001 	movt	r3, #20481	; 0x5001
50002418:	e5933000 	ldr	r3, [r3]
5000241c:	e1a00003 	mov	r0, r3
50002420:	eb00181a 	bl	50008490 <CPU_UNLOCK>
50002424:	e51b300c 	ldr	r3, [fp, #-12]
50002428:	e3530000 	cmp	r3, #0
5000242c:	1affffd9 	bne	50002398 <memH_task_free+0x2c>
50002430:	e3a03000 	mov	r3, #0
50002434:	e1a00003 	mov	r0, r3
50002438:	e24bd004 	sub	sp, fp, #4
5000243c:	e8bd8800 	pop	{fp, pc}

50002440 <h>:
50002440:	e92d4800 	push	{fp, lr}
50002444:	e28db004 	add	fp, sp, #4
50002448:	e24dd018 	sub	sp, sp, #24
5000244c:	e50b0010 	str	r0, [fp, #-16]
50002450:	e50b1014 	str	r1, [fp, #-20]
50002454:	e3073818 	movw	r3, #30744	; 0x7818
50002458:	e3453001 	movt	r3, #20481	; 0x5001
5000245c:	e5933000 	ldr	r3, [r3]
50002460:	e50b3008 	str	r3, [fp, #-8]
50002464:	e3a03000 	mov	r3, #0
50002468:	e50b300c 	str	r3, [fp, #-12]
5000246c:	e3073818 	movw	r3, #30744	; 0x7818
50002470:	e3453001 	movt	r3, #20481	; 0x5001
50002474:	e5931008 	ldr	r1, [r3, #8]
50002478:	e3073818 	movw	r3, #30744	; 0x7818
5000247c:	e3453001 	movt	r3, #20481	; 0x5001
50002480:	e593e00c 	ldr	lr, [r3, #12]
50002484:	e3073818 	movw	r3, #30744	; 0x7818
50002488:	e3453001 	movt	r3, #20481	; 0x5001
5000248c:	e593c010 	ldr	ip, [r3, #16]
50002490:	e3073818 	movw	r3, #30744	; 0x7818
50002494:	e3453001 	movt	r3, #20481	; 0x5001
50002498:	e5932014 	ldr	r2, [r3, #20]
5000249c:	e3073818 	movw	r3, #30744	; 0x7818
500024a0:	e3453001 	movt	r3, #20481	; 0x5001
500024a4:	e5933018 	ldr	r3, [r3, #24]
500024a8:	e58d2000 	str	r2, [sp]
500024ac:	e58d3004 	str	r3, [sp, #4]
500024b0:	e3050258 	movw	r0, #21080	; 0x5258
500024b4:	e3450001 	movt	r0, #20481	; 0x5001
500024b8:	e1a0200e 	mov	r2, lr
500024bc:	e1a0300c 	mov	r3, ip
500024c0:	eb00087b 	bl	500046b4 <serial_printf>
500024c4:	e51b3010 	ldr	r3, [fp, #-16]
500024c8:	e3530001 	cmp	r3, #1
500024cc:	da000033 	ble	500025a0 <h+0x160>
500024d0:	e51b3014 	ldr	r3, [fp, #-20]
500024d4:	e2833004 	add	r3, r3, #4
500024d8:	e5933000 	ldr	r3, [r3]
500024dc:	e1a00003 	mov	r0, r3
500024e0:	e30512b4 	movw	r1, #21172	; 0x52b4
500024e4:	e3451001 	movt	r1, #20481	; 0x5001
500024e8:	eb000a24 	bl	50004d80 <strcmp>
500024ec:	e1a03000 	mov	r3, r0
500024f0:	e3530000 	cmp	r3, #0
500024f4:	1a000029 	bne	500025a0 <h+0x160>
500024f8:	e30502b8 	movw	r0, #21176	; 0x52b8
500024fc:	e3450001 	movt	r0, #20481	; 0x5001
50002500:	eb00086b 	bl	500046b4 <serial_printf>
50002504:	e51b3010 	ldr	r3, [fp, #-16]
50002508:	e3530002 	cmp	r3, #2
5000250c:	da000008 	ble	50002534 <h+0xf4>
50002510:	e51b3014 	ldr	r3, [fp, #-20]
50002514:	e2833008 	add	r3, r3, #8
50002518:	e5932000 	ldr	r2, [r3]
5000251c:	e24b300c 	sub	r3, fp, #12
50002520:	e1a00002 	mov	r0, r2
50002524:	e305133c 	movw	r1, #21308	; 0x533c
50002528:	e3451001 	movt	r1, #20481	; 0x5001
5000252c:	e1a02003 	mov	r2, r3
50002530:	eb000f93 	bl	50006384 <sscanf>
50002534:	ea000016 	b	50002594 <h+0x154>
50002538:	e51b300c 	ldr	r3, [fp, #-12]
5000253c:	e3530000 	cmp	r3, #0
50002540:	0a000004 	beq	50002558 <h+0x118>
50002544:	e51b3008 	ldr	r3, [fp, #-8]
50002548:	e5932010 	ldr	r2, [r3, #16]
5000254c:	e51b300c 	ldr	r3, [fp, #-12]
50002550:	e1520003 	cmp	r2, r3
50002554:	1a00000b 	bne	50002588 <h+0x148>
50002558:	e51b3008 	ldr	r3, [fp, #-8]
5000255c:	e593200c 	ldr	r2, [r3, #12]
50002560:	e51b3008 	ldr	r3, [fp, #-8]
50002564:	e593c010 	ldr	ip, [r3, #16]
50002568:	e51b3008 	ldr	r3, [fp, #-8]
5000256c:	e5933008 	ldr	r3, [r3, #8]
50002570:	e58d3000 	str	r3, [sp]
50002574:	e3050344 	movw	r0, #21316	; 0x5344
50002578:	e3450001 	movt	r0, #20481	; 0x5001
5000257c:	e51b1008 	ldr	r1, [fp, #-8]
50002580:	e1a0300c 	mov	r3, ip
50002584:	eb00084a 	bl	500046b4 <serial_printf>
50002588:	e51b3008 	ldr	r3, [fp, #-8]
5000258c:	e5933004 	ldr	r3, [r3, #4]
50002590:	e50b3008 	str	r3, [fp, #-8]
50002594:	e51b3008 	ldr	r3, [fp, #-8]
50002598:	e3530000 	cmp	r3, #0
5000259c:	1affffe5 	bne	50002538 <h+0xf8>
500025a0:	e3a03000 	mov	r3, #0
500025a4:	e1a00003 	mov	r0, r3
500025a8:	e24bd004 	sub	sp, fp, #4
500025ac:	e8bd8800 	pop	{fp, pc}

500025b0 <msgQ_init>:
500025b0:	e92d4800 	push	{fp, lr}
500025b4:	e28db004 	add	fp, sp, #4
500025b8:	e24dd018 	sub	sp, sp, #24
500025bc:	e50b0010 	str	r0, [fp, #-16]
500025c0:	e50b1014 	str	r1, [fp, #-20]
500025c4:	e50b2018 	str	r2, [fp, #-24]
500025c8:	e51b3014 	ldr	r3, [fp, #-20]
500025cc:	e3530000 	cmp	r3, #0
500025d0:	0a000002 	beq	500025e0 <msgQ_init+0x30>
500025d4:	e51b3018 	ldr	r3, [fp, #-24]
500025d8:	e3530000 	cmp	r3, #0
500025dc:	1a000001 	bne	500025e8 <msgQ_init+0x38>
500025e0:	e3a03000 	mov	r3, #0
500025e4:	ea000026 	b	50002684 <msgQ_init+0xd4>
500025e8:	e51b3010 	ldr	r3, [fp, #-16]
500025ec:	e3530000 	cmp	r3, #0
500025f0:	1a000002 	bne	50002600 <msgQ_init+0x50>
500025f4:	e3a0002c 	mov	r0, #44	; 0x2c
500025f8:	ebfffd6e 	bl	50001bb8 <memH_malloc>
500025fc:	e50b0010 	str	r0, [fp, #-16]
50002600:	e51b3010 	ldr	r3, [fp, #-16]
50002604:	e3530000 	cmp	r3, #0
50002608:	0a00001c 	beq	50002680 <msgQ_init+0xd0>
5000260c:	e51b3010 	ldr	r3, [fp, #-16]
50002610:	e51b2014 	ldr	r2, [fp, #-20]
50002614:	e5832008 	str	r2, [r3, #8]
50002618:	e51b3010 	ldr	r3, [fp, #-16]
5000261c:	e51b2018 	ldr	r2, [fp, #-24]
50002620:	e583200c 	str	r2, [r3, #12]
50002624:	e51b3010 	ldr	r3, [fp, #-16]
50002628:	e3a02000 	mov	r2, #0
5000262c:	e5832010 	str	r2, [r3, #16]
50002630:	e51b3010 	ldr	r3, [fp, #-16]
50002634:	e2833014 	add	r3, r3, #20
50002638:	e1a00003 	mov	r0, r3
5000263c:	ebfffb62 	bl	500013cc <dlist_init>
50002640:	e51b3010 	ldr	r3, [fp, #-16]
50002644:	e283301c 	add	r3, r3, #28
50002648:	e1a00003 	mov	r0, r3
5000264c:	ebfffb5e 	bl	500013cc <dlist_init>
50002650:	e51b3010 	ldr	r3, [fp, #-16]
50002654:	e2833024 	add	r3, r3, #36	; 0x24
50002658:	e1a00003 	mov	r0, r3
5000265c:	ebfffb5a 	bl	500013cc <dlist_init>
50002660:	eb001781 	bl	5000846c <CPU_LOCK>
50002664:	e50b0008 	str	r0, [fp, #-8]
50002668:	e307083c 	movw	r0, #30780	; 0x783c
5000266c:	e3450001 	movt	r0, #20481	; 0x5001
50002670:	e51b1010 	ldr	r1, [fp, #-16]
50002674:	ebfffb8c 	bl	500014ac <dlist_add>
50002678:	e51b0008 	ldr	r0, [fp, #-8]
5000267c:	eb001783 	bl	50008490 <CPU_UNLOCK>
50002680:	e51b3010 	ldr	r3, [fp, #-16]
50002684:	e1a00003 	mov	r0, r3
50002688:	e24bd004 	sub	sp, fp, #4
5000268c:	e8bd8800 	pop	{fp, pc}

50002690 <msgQ_send>:
50002690:	e92d4800 	push	{fp, lr}
50002694:	e28db004 	add	fp, sp, #4
50002698:	e24dd020 	sub	sp, sp, #32
5000269c:	e50b0018 	str	r0, [fp, #-24]
500026a0:	e50b101c 	str	r1, [fp, #-28]
500026a4:	e50b2020 	str	r2, [fp, #-32]
500026a8:	e50b3024 	str	r3, [fp, #-36]	; 0x24
500026ac:	e3e03000 	mvn	r3, #0
500026b0:	e50b3008 	str	r3, [fp, #-8]
500026b4:	e3a03000 	mov	r3, #0
500026b8:	e50b300c 	str	r3, [fp, #-12]
500026bc:	e3a03000 	mov	r3, #0
500026c0:	e50b3010 	str	r3, [fp, #-16]
500026c4:	eb001768 	bl	5000846c <CPU_LOCK>
500026c8:	e50b0014 	str	r0, [fp, #-20]
500026cc:	e51b3018 	ldr	r3, [fp, #-24]
500026d0:	e5932010 	ldr	r2, [r3, #16]
500026d4:	e51b3018 	ldr	r3, [fp, #-24]
500026d8:	e5933008 	ldr	r3, [r3, #8]
500026dc:	e1520003 	cmp	r2, r3
500026e0:	2a00002d 	bcs	5000279c <msgQ_send+0x10c>
500026e4:	e51b3018 	ldr	r3, [fp, #-24]
500026e8:	e5933010 	ldr	r3, [r3, #16]
500026ec:	e2832001 	add	r2, r3, #1
500026f0:	e51b3018 	ldr	r3, [fp, #-24]
500026f4:	e5832010 	str	r2, [r3, #16]
500026f8:	e3073878 	movw	r3, #30840	; 0x7878
500026fc:	e3453001 	movt	r3, #20481	; 0x5001
50002700:	e5933000 	ldr	r3, [r3]
50002704:	e3a02000 	mov	r2, #0
50002708:	e5832044 	str	r2, [r3, #68]	; 0x44
5000270c:	e51b3018 	ldr	r3, [fp, #-24]
50002710:	e593300c 	ldr	r3, [r3, #12]
50002714:	e2833008 	add	r3, r3, #8
50002718:	e1a00003 	mov	r0, r3
5000271c:	ebfffd25 	bl	50001bb8 <memH_malloc>
50002720:	e50b000c 	str	r0, [fp, #-12]
50002724:	e51b300c 	ldr	r3, [fp, #-12]
50002728:	e2831008 	add	r1, r3, #8
5000272c:	e51b3018 	ldr	r3, [fp, #-24]
50002730:	e593200c 	ldr	r2, [r3, #12]
50002734:	e51b3020 	ldr	r3, [fp, #-32]
50002738:	e1520003 	cmp	r2, r3
5000273c:	31a03002 	movcc	r3, r2
50002740:	21a03003 	movcs	r3, r3
50002744:	e1a00001 	mov	r0, r1
50002748:	e51b101c 	ldr	r1, [fp, #-28]
5000274c:	e1a02003 	mov	r2, r3
50002750:	eb000b62 	bl	500054e0 <memcpy>
50002754:	e51b3018 	ldr	r3, [fp, #-24]
50002758:	e2833014 	add	r3, r3, #20
5000275c:	e1a00003 	mov	r0, r3
50002760:	e51b100c 	ldr	r1, [fp, #-12]
50002764:	ebfffb50 	bl	500014ac <dlist_add>
50002768:	e51b3018 	ldr	r3, [fp, #-24]
5000276c:	e2833024 	add	r3, r3, #36	; 0x24
50002770:	e1a00003 	mov	r0, r3
50002774:	ebfffb7d 	bl	50001570 <dlist_get>
50002778:	e50b0010 	str	r0, [fp, #-16]
5000277c:	e51b3010 	ldr	r3, [fp, #-16]
50002780:	e3530000 	cmp	r3, #0
50002784:	0a000001 	beq	50002790 <msgQ_send+0x100>
50002788:	e51b0010 	ldr	r0, [fp, #-16]
5000278c:	eb00019d 	bl	50002e08 <readyQ_put>
50002790:	e3a03000 	mov	r3, #0
50002794:	e50b3008 	str	r3, [fp, #-8]
50002798:	ea00002b 	b	5000284c <msgQ_send+0x1bc>
5000279c:	e51b3024 	ldr	r3, [fp, #-36]	; 0x24
500027a0:	e3530000 	cmp	r3, #0
500027a4:	0a000028 	beq	5000284c <msgQ_send+0x1bc>
500027a8:	e3073878 	movw	r3, #30840	; 0x7878
500027ac:	e3453001 	movt	r3, #20481	; 0x5001
500027b0:	e5933000 	ldr	r3, [r3]
500027b4:	e1a00003 	mov	r0, r3
500027b8:	eb0001d6 	bl	50002f18 <readyQ_remove>
500027bc:	e3073878 	movw	r3, #30840	; 0x7878
500027c0:	e3453001 	movt	r3, #20481	; 0x5001
500027c4:	e5933000 	ldr	r3, [r3]
500027c8:	e51b2024 	ldr	r2, [fp, #-36]	; 0x24
500027cc:	e5832044 	str	r2, [r3, #68]	; 0x44
500027d0:	e3073878 	movw	r3, #30840	; 0x7878
500027d4:	e3453001 	movt	r3, #20481	; 0x5001
500027d8:	e5933000 	ldr	r3, [r3]
500027dc:	e3a02005 	mov	r2, #5
500027e0:	e583204c 	str	r2, [r3, #76]	; 0x4c
500027e4:	e3073878 	movw	r3, #30840	; 0x7878
500027e8:	e3453001 	movt	r3, #20481	; 0x5001
500027ec:	e5933000 	ldr	r3, [r3]
500027f0:	e51b2018 	ldr	r2, [fp, #-24]
500027f4:	e5832050 	str	r2, [r3, #80]	; 0x50
500027f8:	e51b3018 	ldr	r3, [fp, #-24]
500027fc:	e283201c 	add	r2, r3, #28
50002800:	e3073878 	movw	r3, #30840	; 0x7878
50002804:	e3453001 	movt	r3, #20481	; 0x5001
50002808:	e5933000 	ldr	r3, [r3]
5000280c:	e1a00002 	mov	r0, r2
50002810:	e1a01003 	mov	r1, r3
50002814:	ebfffb24 	bl	500014ac <dlist_add>
50002818:	ef000007 	svc	0x00000007
5000281c:	e3073878 	movw	r3, #30840	; 0x7878
50002820:	e3453001 	movt	r3, #20481	; 0x5001
50002824:	e5933000 	ldr	r3, [r3]
50002828:	e5933044 	ldr	r3, [r3, #68]	; 0x44
5000282c:	e3530000 	cmp	r3, #0
50002830:	0a000005 	beq	5000284c <msgQ_send+0x1bc>
50002834:	e3073878 	movw	r3, #30840	; 0x7878
50002838:	e3453001 	movt	r3, #20481	; 0x5001
5000283c:	e5933000 	ldr	r3, [r3]
50002840:	e5933044 	ldr	r3, [r3, #68]	; 0x44
50002844:	e50b3024 	str	r3, [fp, #-36]	; 0x24
50002848:	eaffff9f 	b	500026cc <msgQ_send+0x3c>
5000284c:	e51b0014 	ldr	r0, [fp, #-20]
50002850:	eb00170e 	bl	50008490 <CPU_UNLOCK>
50002854:	e51b3008 	ldr	r3, [fp, #-8]
50002858:	e1a00003 	mov	r0, r3
5000285c:	e24bd004 	sub	sp, fp, #4
50002860:	e8bd8800 	pop	{fp, pc}

50002864 <msgQ_receive>:
50002864:	e92d4800 	push	{fp, lr}
50002868:	e28db004 	add	fp, sp, #4
5000286c:	e24dd020 	sub	sp, sp, #32
50002870:	e50b0018 	str	r0, [fp, #-24]
50002874:	e50b101c 	str	r1, [fp, #-28]
50002878:	e50b2020 	str	r2, [fp, #-32]
5000287c:	e50b3024 	str	r3, [fp, #-36]	; 0x24
50002880:	e3e03000 	mvn	r3, #0
50002884:	e50b3008 	str	r3, [fp, #-8]
50002888:	e3a03000 	mov	r3, #0
5000288c:	e50b300c 	str	r3, [fp, #-12]
50002890:	e3a03000 	mov	r3, #0
50002894:	e50b3010 	str	r3, [fp, #-16]
50002898:	eb0016f3 	bl	5000846c <CPU_LOCK>
5000289c:	e50b0014 	str	r0, [fp, #-20]
500028a0:	e51b3018 	ldr	r3, [fp, #-24]
500028a4:	e5933010 	ldr	r3, [r3, #16]
500028a8:	e3530000 	cmp	r3, #0
500028ac:	0a000028 	beq	50002954 <msgQ_receive+0xf0>
500028b0:	e51b3018 	ldr	r3, [fp, #-24]
500028b4:	e5933010 	ldr	r3, [r3, #16]
500028b8:	e2432001 	sub	r2, r3, #1
500028bc:	e51b3018 	ldr	r3, [fp, #-24]
500028c0:	e5832010 	str	r2, [r3, #16]
500028c4:	e3073878 	movw	r3, #30840	; 0x7878
500028c8:	e3453001 	movt	r3, #20481	; 0x5001
500028cc:	e5933000 	ldr	r3, [r3]
500028d0:	e3a02000 	mov	r2, #0
500028d4:	e5832044 	str	r2, [r3, #68]	; 0x44
500028d8:	e51b3018 	ldr	r3, [fp, #-24]
500028dc:	e2833014 	add	r3, r3, #20
500028e0:	e1a00003 	mov	r0, r3
500028e4:	ebfffb21 	bl	50001570 <dlist_get>
500028e8:	e50b000c 	str	r0, [fp, #-12]
500028ec:	e51b300c 	ldr	r3, [fp, #-12]
500028f0:	e2831008 	add	r1, r3, #8
500028f4:	e51b3018 	ldr	r3, [fp, #-24]
500028f8:	e593200c 	ldr	r2, [r3, #12]
500028fc:	e51b3020 	ldr	r3, [fp, #-32]
50002900:	e1520003 	cmp	r2, r3
50002904:	31a03002 	movcc	r3, r2
50002908:	21a03003 	movcs	r3, r3
5000290c:	e51b001c 	ldr	r0, [fp, #-28]
50002910:	e1a02003 	mov	r2, r3
50002914:	eb000af1 	bl	500054e0 <memcpy>
50002918:	e51b000c 	ldr	r0, [fp, #-12]
5000291c:	ebfffd55 	bl	50001e78 <memH_free>
50002920:	e51b3018 	ldr	r3, [fp, #-24]
50002924:	e283301c 	add	r3, r3, #28
50002928:	e1a00003 	mov	r0, r3
5000292c:	ebfffb0f 	bl	50001570 <dlist_get>
50002930:	e50b0010 	str	r0, [fp, #-16]
50002934:	e51b3010 	ldr	r3, [fp, #-16]
50002938:	e3530000 	cmp	r3, #0
5000293c:	0a000001 	beq	50002948 <msgQ_receive+0xe4>
50002940:	e51b0010 	ldr	r0, [fp, #-16]
50002944:	eb00012f 	bl	50002e08 <readyQ_put>
50002948:	e3a03000 	mov	r3, #0
5000294c:	e50b3008 	str	r3, [fp, #-8]
50002950:	ea00002b 	b	50002a04 <msgQ_receive+0x1a0>
50002954:	e51b3024 	ldr	r3, [fp, #-36]	; 0x24
50002958:	e3530000 	cmp	r3, #0
5000295c:	0a000028 	beq	50002a04 <msgQ_receive+0x1a0>
50002960:	e3073878 	movw	r3, #30840	; 0x7878
50002964:	e3453001 	movt	r3, #20481	; 0x5001
50002968:	e5933000 	ldr	r3, [r3]
5000296c:	e1a00003 	mov	r0, r3
50002970:	eb000168 	bl	50002f18 <readyQ_remove>
50002974:	e3073878 	movw	r3, #30840	; 0x7878
50002978:	e3453001 	movt	r3, #20481	; 0x5001
5000297c:	e5933000 	ldr	r3, [r3]
50002980:	e51b2024 	ldr	r2, [fp, #-36]	; 0x24
50002984:	e5832044 	str	r2, [r3, #68]	; 0x44
50002988:	e3073878 	movw	r3, #30840	; 0x7878
5000298c:	e3453001 	movt	r3, #20481	; 0x5001
50002990:	e5933000 	ldr	r3, [r3]
50002994:	e3a02006 	mov	r2, #6
50002998:	e583204c 	str	r2, [r3, #76]	; 0x4c
5000299c:	e3073878 	movw	r3, #30840	; 0x7878
500029a0:	e3453001 	movt	r3, #20481	; 0x5001
500029a4:	e5933000 	ldr	r3, [r3]
500029a8:	e51b2018 	ldr	r2, [fp, #-24]
500029ac:	e5832050 	str	r2, [r3, #80]	; 0x50
500029b0:	e51b3018 	ldr	r3, [fp, #-24]
500029b4:	e2832024 	add	r2, r3, #36	; 0x24
500029b8:	e3073878 	movw	r3, #30840	; 0x7878
500029bc:	e3453001 	movt	r3, #20481	; 0x5001
500029c0:	e5933000 	ldr	r3, [r3]
500029c4:	e1a00002 	mov	r0, r2
500029c8:	e1a01003 	mov	r1, r3
500029cc:	ebfffab6 	bl	500014ac <dlist_add>
500029d0:	ef000007 	svc	0x00000007
500029d4:	e3073878 	movw	r3, #30840	; 0x7878
500029d8:	e3453001 	movt	r3, #20481	; 0x5001
500029dc:	e5933000 	ldr	r3, [r3]
500029e0:	e5933044 	ldr	r3, [r3, #68]	; 0x44
500029e4:	e3530000 	cmp	r3, #0
500029e8:	0a000005 	beq	50002a04 <msgQ_receive+0x1a0>
500029ec:	e3073878 	movw	r3, #30840	; 0x7878
500029f0:	e3453001 	movt	r3, #20481	; 0x5001
500029f4:	e5933000 	ldr	r3, [r3]
500029f8:	e5933044 	ldr	r3, [r3, #68]	; 0x44
500029fc:	e50b3024 	str	r3, [fp, #-36]	; 0x24
50002a00:	eaffffa6 	b	500028a0 <msgQ_receive+0x3c>
50002a04:	e51b0014 	ldr	r0, [fp, #-20]
50002a08:	eb0016a0 	bl	50008490 <CPU_UNLOCK>
50002a0c:	e51b3008 	ldr	r3, [fp, #-8]
50002a10:	e1a00003 	mov	r0, r3
50002a14:	e24bd004 	sub	sp, fp, #4
50002a18:	e8bd8800 	pop	{fp, pc}

50002a1c <msgQ_delete>:
50002a1c:	e92d4800 	push	{fp, lr}
50002a20:	e28db004 	add	fp, sp, #4
50002a24:	e24dd018 	sub	sp, sp, #24
50002a28:	e50b0018 	str	r0, [fp, #-24]
50002a2c:	e3a03000 	mov	r3, #0
50002a30:	e50b3008 	str	r3, [fp, #-8]
50002a34:	e3a03000 	mov	r3, #0
50002a38:	e50b300c 	str	r3, [fp, #-12]
50002a3c:	eb00168a 	bl	5000846c <CPU_LOCK>
50002a40:	e50b0010 	str	r0, [fp, #-16]
50002a44:	e51b3018 	ldr	r3, [fp, #-24]
50002a48:	e2833014 	add	r3, r3, #20
50002a4c:	e1a00003 	mov	r0, r3
50002a50:	ebfffac6 	bl	50001570 <dlist_get>
50002a54:	e50b0008 	str	r0, [fp, #-8]
50002a58:	ea000006 	b	50002a78 <msgQ_delete+0x5c>
50002a5c:	e51b0008 	ldr	r0, [fp, #-8]
50002a60:	ebfffd04 	bl	50001e78 <memH_free>
50002a64:	e51b3018 	ldr	r3, [fp, #-24]
50002a68:	e2833014 	add	r3, r3, #20
50002a6c:	e1a00003 	mov	r0, r3
50002a70:	ebfffabe 	bl	50001570 <dlist_get>
50002a74:	e50b0008 	str	r0, [fp, #-8]
50002a78:	e51b3008 	ldr	r3, [fp, #-8]
50002a7c:	e3530000 	cmp	r3, #0
50002a80:	1afffff5 	bne	50002a5c <msgQ_delete+0x40>
50002a84:	e51b3018 	ldr	r3, [fp, #-24]
50002a88:	e283301c 	add	r3, r3, #28
50002a8c:	e1a00003 	mov	r0, r3
50002a90:	ebfffab6 	bl	50001570 <dlist_get>
50002a94:	e50b000c 	str	r0, [fp, #-12]
50002a98:	e51b300c 	ldr	r3, [fp, #-12]
50002a9c:	e3530000 	cmp	r3, #0
50002aa0:	0a000009 	beq	50002acc <msgQ_delete+0xb0>
50002aa4:	e51b300c 	ldr	r3, [fp, #-12]
50002aa8:	e3a02000 	mov	r2, #0
50002aac:	e5832044 	str	r2, [r3, #68]	; 0x44
50002ab0:	e51b000c 	ldr	r0, [fp, #-12]
50002ab4:	eb0000d3 	bl	50002e08 <readyQ_put>
50002ab8:	e51b3018 	ldr	r3, [fp, #-24]
50002abc:	e283301c 	add	r3, r3, #28
50002ac0:	e1a00003 	mov	r0, r3
50002ac4:	ebfffaa9 	bl	50001570 <dlist_get>
50002ac8:	e50b000c 	str	r0, [fp, #-12]
50002acc:	e51b3018 	ldr	r3, [fp, #-24]
50002ad0:	e2833024 	add	r3, r3, #36	; 0x24
50002ad4:	e1a00003 	mov	r0, r3
50002ad8:	ebfffaa4 	bl	50001570 <dlist_get>
50002adc:	e50b000c 	str	r0, [fp, #-12]
50002ae0:	e51b300c 	ldr	r3, [fp, #-12]
50002ae4:	e3530000 	cmp	r3, #0
50002ae8:	0a000009 	beq	50002b14 <msgQ_delete+0xf8>
50002aec:	e51b300c 	ldr	r3, [fp, #-12]
50002af0:	e3a02000 	mov	r2, #0
50002af4:	e5832044 	str	r2, [r3, #68]	; 0x44
50002af8:	e51b000c 	ldr	r0, [fp, #-12]
50002afc:	eb0000c1 	bl	50002e08 <readyQ_put>
50002b00:	e51b3018 	ldr	r3, [fp, #-24]
50002b04:	e2833024 	add	r3, r3, #36	; 0x24
50002b08:	e1a00003 	mov	r0, r3
50002b0c:	ebfffa97 	bl	50001570 <dlist_get>
50002b10:	e50b000c 	str	r0, [fp, #-12]
50002b14:	e307083c 	movw	r0, #30780	; 0x783c
50002b18:	e3450001 	movt	r0, #20481	; 0x5001
50002b1c:	e51b1018 	ldr	r1, [fp, #-24]
50002b20:	ebfffa6e 	bl	500014e0 <dlist_remove>
50002b24:	e51b0010 	ldr	r0, [fp, #-16]
50002b28:	eb001658 	bl	50008490 <CPU_UNLOCK>
50002b2c:	e51b2018 	ldr	r2, [fp, #-24]
50002b30:	e30f3500 	movw	r3, #62720	; 0xf500
50002b34:	e3453003 	movt	r3, #20483	; 0x5003
50002b38:	e1520003 	cmp	r2, r3
50002b3c:	3a000007 	bcc	50002b60 <msgQ_delete+0x144>
50002b40:	e51b2018 	ldr	r2, [fp, #-24]
50002b44:	e30f3500 	movw	r3, #62720	; 0xf500
50002b48:	e3453003 	movt	r3, #20483	; 0x5003
50002b4c:	e2833501 	add	r3, r3, #4194304	; 0x400000
50002b50:	e1520003 	cmp	r2, r3
50002b54:	2a000001 	bcs	50002b60 <msgQ_delete+0x144>
50002b58:	e51b0018 	ldr	r0, [fp, #-24]
50002b5c:	ebfffcc5 	bl	50001e78 <memH_free>
50002b60:	e3a03000 	mov	r3, #0
50002b64:	e1a00003 	mov	r0, r3
50002b68:	e24bd004 	sub	sp, fp, #4
50002b6c:	e8bd8800 	pop	{fp, pc}

50002b70 <msgQ_remove>:
50002b70:	e92d4800 	push	{fp, lr}
50002b74:	e28db004 	add	fp, sp, #4
50002b78:	e24dd010 	sub	sp, sp, #16
50002b7c:	e50b0010 	str	r0, [fp, #-16]
50002b80:	e50b1014 	str	r1, [fp, #-20]
50002b84:	eb001638 	bl	5000846c <CPU_LOCK>
50002b88:	e50b0008 	str	r0, [fp, #-8]
50002b8c:	e51b3014 	ldr	r3, [fp, #-20]
50002b90:	e593304c 	ldr	r3, [r3, #76]	; 0x4c
50002b94:	e3530005 	cmp	r3, #5
50002b98:	1a000005 	bne	50002bb4 <msgQ_remove+0x44>
50002b9c:	e51b3010 	ldr	r3, [fp, #-16]
50002ba0:	e283301c 	add	r3, r3, #28
50002ba4:	e1a00003 	mov	r0, r3
50002ba8:	e51b1014 	ldr	r1, [fp, #-20]
50002bac:	ebfffa4b 	bl	500014e0 <dlist_remove>
50002bb0:	ea000008 	b	50002bd8 <msgQ_remove+0x68>
50002bb4:	e51b3014 	ldr	r3, [fp, #-20]
50002bb8:	e593304c 	ldr	r3, [r3, #76]	; 0x4c
50002bbc:	e3530006 	cmp	r3, #6
50002bc0:	1a000004 	bne	50002bd8 <msgQ_remove+0x68>
50002bc4:	e51b3010 	ldr	r3, [fp, #-16]
50002bc8:	e2833024 	add	r3, r3, #36	; 0x24
50002bcc:	e1a00003 	mov	r0, r3
50002bd0:	e51b1014 	ldr	r1, [fp, #-20]
50002bd4:	ebfffa41 	bl	500014e0 <dlist_remove>
50002bd8:	e51b0008 	ldr	r0, [fp, #-8]
50002bdc:	eb00162b 	bl	50008490 <CPU_UNLOCK>
50002be0:	e3a03000 	mov	r3, #0
50002be4:	e1a00003 	mov	r0, r3
50002be8:	e24bd004 	sub	sp, fp, #4
50002bec:	e8bd8800 	pop	{fp, pc}

50002bf0 <_update_wait_list>:
50002bf0:	e92d4800 	push	{fp, lr}
50002bf4:	e28db004 	add	fp, sp, #4
50002bf8:	e24dd008 	sub	sp, sp, #8
50002bfc:	e50b0008 	str	r0, [fp, #-8]
50002c00:	e50b100c 	str	r1, [fp, #-12]
50002c04:	e51b3008 	ldr	r3, [fp, #-8]
50002c08:	e283201c 	add	r2, r3, #28
50002c0c:	e51b3008 	ldr	r3, [fp, #-8]
50002c10:	e283301c 	add	r3, r3, #28
50002c14:	e1a00002 	mov	r0, r2
50002c18:	e30314c0 	movw	r1, #13504	; 0x34c0
50002c1c:	e3451000 	movt	r1, #20480	; 0x5000
50002c20:	e1a02003 	mov	r2, r3
50002c24:	ebfffaa4 	bl	500016bc <dlist_each>
50002c28:	e51b3008 	ldr	r3, [fp, #-8]
50002c2c:	e2832024 	add	r2, r3, #36	; 0x24
50002c30:	e51b3008 	ldr	r3, [fp, #-8]
50002c34:	e2833024 	add	r3, r3, #36	; 0x24
50002c38:	e1a00002 	mov	r0, r2
50002c3c:	e30314c0 	movw	r1, #13504	; 0x34c0
50002c40:	e3451000 	movt	r1, #20480	; 0x5000
50002c44:	e1a02003 	mov	r2, r3
50002c48:	ebfffa9b 	bl	500016bc <dlist_each>
50002c4c:	e3a03000 	mov	r3, #0
50002c50:	e1a00003 	mov	r0, r3
50002c54:	e24bd004 	sub	sp, fp, #4
50002c58:	e8bd8800 	pop	{fp, pc}

50002c5c <msgQ_decrease>:
50002c5c:	e92d4800 	push	{fp, lr}
50002c60:	e28db004 	add	fp, sp, #4
50002c64:	e307083c 	movw	r0, #30780	; 0x783c
50002c68:	e3450001 	movt	r0, #20481	; 0x5001
50002c6c:	e3021bf0 	movw	r1, #11248	; 0x2bf0
50002c70:	e3451000 	movt	r1, #20480	; 0x5000
50002c74:	e3a02000 	mov	r2, #0
50002c78:	ebfffa8f 	bl	500016bc <dlist_each>
50002c7c:	e8bd8800 	pop	{fp, pc}

50002c80 <_each_wait_list>:
50002c80:	e92d4800 	push	{fp, lr}
50002c84:	e28db004 	add	fp, sp, #4
50002c88:	e24dd008 	sub	sp, sp, #8
50002c8c:	e50b0008 	str	r0, [fp, #-8]
50002c90:	e50b100c 	str	r1, [fp, #-12]
50002c94:	e51b3008 	ldr	r3, [fp, #-8]
50002c98:	e283301c 	add	r3, r3, #28
50002c9c:	e1a00003 	mov	r0, r3
50002ca0:	e51b100c 	ldr	r1, [fp, #-12]
50002ca4:	e3a02000 	mov	r2, #0
50002ca8:	ebfffa83 	bl	500016bc <dlist_each>
50002cac:	e51b3008 	ldr	r3, [fp, #-8]
50002cb0:	e2833024 	add	r3, r3, #36	; 0x24
50002cb4:	e1a00003 	mov	r0, r3
50002cb8:	e51b100c 	ldr	r1, [fp, #-12]
50002cbc:	e3a02000 	mov	r2, #0
50002cc0:	ebfffa7d 	bl	500016bc <dlist_each>
50002cc4:	e3a03000 	mov	r3, #0
50002cc8:	e1a00003 	mov	r0, r3
50002ccc:	e24bd004 	sub	sp, fp, #4
50002cd0:	e8bd8800 	pop	{fp, pc}

50002cd4 <msgQ_show>:
50002cd4:	e92d4800 	push	{fp, lr}
50002cd8:	e28db004 	add	fp, sp, #4
50002cdc:	e24dd008 	sub	sp, sp, #8
50002ce0:	e50b0008 	str	r0, [fp, #-8]
50002ce4:	e51b3008 	ldr	r3, [fp, #-8]
50002ce8:	e307083c 	movw	r0, #30780	; 0x783c
50002cec:	e3450001 	movt	r0, #20481	; 0x5001
50002cf0:	e3021c80 	movw	r1, #11392	; 0x2c80
50002cf4:	e3451000 	movt	r1, #20480	; 0x5000
50002cf8:	e1a02003 	mov	r2, r3
50002cfc:	ebfffa6e 	bl	500016bc <dlist_each>
50002d00:	e24bd004 	sub	sp, fp, #4
50002d04:	e8bd8800 	pop	{fp, pc}

50002d08 <_show_msgQ_info>:
50002d08:	e92d4870 	push	{r4, r5, r6, fp, lr}
50002d0c:	e28db010 	add	fp, sp, #16
50002d10:	e24dd014 	sub	sp, sp, #20
50002d14:	e50b0018 	str	r0, [fp, #-24]
50002d18:	e50b101c 	str	r1, [fp, #-28]
50002d1c:	e51b3018 	ldr	r3, [fp, #-24]
50002d20:	e5935010 	ldr	r5, [r3, #16]
50002d24:	e51b3018 	ldr	r3, [fp, #-24]
50002d28:	e5934008 	ldr	r4, [r3, #8]
50002d2c:	e51b3018 	ldr	r3, [fp, #-24]
50002d30:	e283301c 	add	r3, r3, #28
50002d34:	e1a00003 	mov	r0, r3
50002d38:	ebfffa2b 	bl	500015ec <dlist_count>
50002d3c:	e1a06000 	mov	r6, r0
50002d40:	e51b3018 	ldr	r3, [fp, #-24]
50002d44:	e2833024 	add	r3, r3, #36	; 0x24
50002d48:	e1a00003 	mov	r0, r3
50002d4c:	ebfffa26 	bl	500015ec <dlist_count>
50002d50:	e1a03000 	mov	r3, r0
50002d54:	e58d6000 	str	r6, [sp]
50002d58:	e58d3004 	str	r3, [sp, #4]
50002d5c:	e3050364 	movw	r0, #21348	; 0x5364
50002d60:	e3450001 	movt	r0, #20481	; 0x5001
50002d64:	e51b1018 	ldr	r1, [fp, #-24]
50002d68:	e1a02005 	mov	r2, r5
50002d6c:	e1a03004 	mov	r3, r4
50002d70:	eb00064f 	bl	500046b4 <serial_printf>
50002d74:	e3a03000 	mov	r3, #0
50002d78:	e1a00003 	mov	r0, r3
50002d7c:	e24bd010 	sub	sp, fp, #16
50002d80:	e8bd8870 	pop	{r4, r5, r6, fp, pc}

50002d84 <q>:
50002d84:	e92d4800 	push	{fp, lr}
50002d88:	e28db004 	add	fp, sp, #4
50002d8c:	e307083c 	movw	r0, #30780	; 0x783c
50002d90:	e3450001 	movt	r0, #20481	; 0x5001
50002d94:	e3021d08 	movw	r1, #11528	; 0x2d08
50002d98:	e3451000 	movt	r1, #20480	; 0x5000
50002d9c:	e3a02000 	mov	r2, #0
50002da0:	ebfffa45 	bl	500016bc <dlist_each>
50002da4:	e3a03000 	mov	r3, #0
50002da8:	e1a00003 	mov	r0, r3
50002dac:	e8bd8800 	pop	{fp, pc}

50002db0 <readyQ_init>:
50002db0:	e92d4800 	push	{fp, lr}
50002db4:	e28db004 	add	fp, sp, #4
50002db8:	e24dd008 	sub	sp, sp, #8
50002dbc:	e3a03000 	mov	r3, #0
50002dc0:	e50b3008 	str	r3, [fp, #-8]
50002dc4:	ea00000a 	b	50002df4 <readyQ_init+0x44>
50002dc8:	e51b3008 	ldr	r3, [fp, #-8]
50002dcc:	e2833005 	add	r3, r3, #5
50002dd0:	e1a02183 	lsl	r2, r3, #3
50002dd4:	e30c3f00 	movw	r3, #52992	; 0xcf00
50002dd8:	e3453001 	movt	r3, #20481	; 0x5001
50002ddc:	e0823003 	add	r3, r2, r3
50002de0:	e1a00003 	mov	r0, r3
50002de4:	ebfff978 	bl	500013cc <dlist_init>
50002de8:	e51b3008 	ldr	r3, [fp, #-8]
50002dec:	e2833001 	add	r3, r3, #1
50002df0:	e50b3008 	str	r3, [fp, #-8]
50002df4:	e51b3008 	ldr	r3, [fp, #-8]
50002df8:	e35300ff 	cmp	r3, #255	; 0xff
50002dfc:	dafffff1 	ble	50002dc8 <readyQ_init+0x18>
50002e00:	e24bd004 	sub	sp, fp, #4
50002e04:	e8bd8800 	pop	{fp, pc}

50002e08 <readyQ_put>:
50002e08:	e92d4800 	push	{fp, lr}
50002e0c:	e28db004 	add	fp, sp, #4
50002e10:	e24dd010 	sub	sp, sp, #16
50002e14:	e50b0010 	str	r0, [fp, #-16]
50002e18:	e51b3010 	ldr	r3, [fp, #-16]
50002e1c:	e5933030 	ldr	r3, [r3, #48]	; 0x30
50002e20:	e50b3008 	str	r3, [fp, #-8]
50002e24:	e30c3f00 	movw	r3, #52992	; 0xcf00
50002e28:	e3453001 	movt	r3, #20481	; 0x5001
50002e2c:	e5933000 	ldr	r3, [r3]
50002e30:	e3530000 	cmp	r3, #0
50002e34:	0a000006 	beq	50002e54 <readyQ_put+0x4c>
50002e38:	e51b2008 	ldr	r2, [fp, #-8]
50002e3c:	e30c3f00 	movw	r3, #52992	; 0xcf00
50002e40:	e3453001 	movt	r3, #20481	; 0x5001
50002e44:	e5933000 	ldr	r3, [r3]
50002e48:	e5933030 	ldr	r3, [r3, #48]	; 0x30
50002e4c:	e1520003 	cmp	r2, r3
50002e50:	2a000003 	bcs	50002e64 <readyQ_put+0x5c>
50002e54:	e30c3f00 	movw	r3, #52992	; 0xcf00
50002e58:	e3453001 	movt	r3, #20481	; 0x5001
50002e5c:	e51b2010 	ldr	r2, [fp, #-16]
50002e60:	e5832000 	str	r2, [r3]
50002e64:	e30c3f00 	movw	r3, #52992	; 0xcf00
50002e68:	e3453001 	movt	r3, #20481	; 0x5001
50002e6c:	e5933004 	ldr	r3, [r3, #4]
50002e70:	e51b2008 	ldr	r2, [fp, #-8]
50002e74:	e1a022c2 	asr	r2, r2, #5
50002e78:	e3a01001 	mov	r1, #1
50002e7c:	e1a02211 	lsl	r2, r1, r2
50002e80:	e1832002 	orr	r2, r3, r2
50002e84:	e30c3f00 	movw	r3, #52992	; 0xcf00
50002e88:	e3453001 	movt	r3, #20481	; 0x5001
50002e8c:	e5832004 	str	r2, [r3, #4]
50002e90:	e51b3008 	ldr	r3, [fp, #-8]
50002e94:	e1a022c3 	asr	r2, r3, #5
50002e98:	e51b3008 	ldr	r3, [fp, #-8]
50002e9c:	e1a012c3 	asr	r1, r3, #5
50002ea0:	e30c3f00 	movw	r3, #52992	; 0xcf00
50002ea4:	e3453001 	movt	r3, #20481	; 0x5001
50002ea8:	e2811002 	add	r1, r1, #2
50002eac:	e7933101 	ldr	r3, [r3, r1, lsl #2]
50002eb0:	e51b1008 	ldr	r1, [fp, #-8]
50002eb4:	e201101f 	and	r1, r1, #31
50002eb8:	e3a00001 	mov	r0, #1
50002ebc:	e1a01110 	lsl	r1, r0, r1
50002ec0:	e1831001 	orr	r1, r3, r1
50002ec4:	e30c3f00 	movw	r3, #52992	; 0xcf00
50002ec8:	e3453001 	movt	r3, #20481	; 0x5001
50002ecc:	e2822002 	add	r2, r2, #2
50002ed0:	e7831102 	str	r1, [r3, r2, lsl #2]
50002ed4:	e51b3010 	ldr	r3, [fp, #-16]
50002ed8:	e3a02000 	mov	r2, #0
50002edc:	e583204c 	str	r2, [r3, #76]	; 0x4c
50002ee0:	e51b3010 	ldr	r3, [fp, #-16]
50002ee4:	e3a02000 	mov	r2, #0
50002ee8:	e5832050 	str	r2, [r3, #80]	; 0x50
50002eec:	e51b3008 	ldr	r3, [fp, #-8]
50002ef0:	e2833005 	add	r3, r3, #5
50002ef4:	e1a02183 	lsl	r2, r3, #3
50002ef8:	e30c3f00 	movw	r3, #52992	; 0xcf00
50002efc:	e3453001 	movt	r3, #20481	; 0x5001
50002f00:	e0823003 	add	r3, r2, r3
50002f04:	e1a00003 	mov	r0, r3
50002f08:	e51b1010 	ldr	r1, [fp, #-16]
50002f0c:	ebfff966 	bl	500014ac <dlist_add>
50002f10:	e24bd004 	sub	sp, fp, #4
50002f14:	e8bd8800 	pop	{fp, pc}

50002f18 <readyQ_remove>:
50002f18:	e92d4800 	push	{fp, lr}
50002f1c:	e28db004 	add	fp, sp, #4
50002f20:	e24dd010 	sub	sp, sp, #16
50002f24:	e50b0010 	str	r0, [fp, #-16]
50002f28:	e51b3010 	ldr	r3, [fp, #-16]
50002f2c:	e5933030 	ldr	r3, [r3, #48]	; 0x30
50002f30:	e50b3008 	str	r3, [fp, #-8]
50002f34:	e51b3008 	ldr	r3, [fp, #-8]
50002f38:	e2833005 	add	r3, r3, #5
50002f3c:	e1a02183 	lsl	r2, r3, #3
50002f40:	e30c3f00 	movw	r3, #52992	; 0xcf00
50002f44:	e3453001 	movt	r3, #20481	; 0x5001
50002f48:	e0823003 	add	r3, r2, r3
50002f4c:	e50b300c 	str	r3, [fp, #-12]
50002f50:	e51b000c 	ldr	r0, [fp, #-12]
50002f54:	e51b1010 	ldr	r1, [fp, #-16]
50002f58:	ebfff960 	bl	500014e0 <dlist_remove>
50002f5c:	e51b300c 	ldr	r3, [fp, #-12]
50002f60:	e5933000 	ldr	r3, [r3]
50002f64:	e3530000 	cmp	r3, #0
50002f68:	1a000035 	bne	50003044 <readyQ_remove+0x12c>
50002f6c:	e51b3008 	ldr	r3, [fp, #-8]
50002f70:	e1a022c3 	asr	r2, r3, #5
50002f74:	e51b3008 	ldr	r3, [fp, #-8]
50002f78:	e1a012c3 	asr	r1, r3, #5
50002f7c:	e30c3f00 	movw	r3, #52992	; 0xcf00
50002f80:	e3453001 	movt	r3, #20481	; 0x5001
50002f84:	e2811002 	add	r1, r1, #2
50002f88:	e7933101 	ldr	r3, [r3, r1, lsl #2]
50002f8c:	e51b1008 	ldr	r1, [fp, #-8]
50002f90:	e201101f 	and	r1, r1, #31
50002f94:	e3a00001 	mov	r0, #1
50002f98:	e1a01110 	lsl	r1, r0, r1
50002f9c:	e1e01001 	mvn	r1, r1
50002fa0:	e0011003 	and	r1, r1, r3
50002fa4:	e30c3f00 	movw	r3, #52992	; 0xcf00
50002fa8:	e3453001 	movt	r3, #20481	; 0x5001
50002fac:	e2822002 	add	r2, r2, #2
50002fb0:	e7831102 	str	r1, [r3, r2, lsl #2]
50002fb4:	e51b3008 	ldr	r3, [fp, #-8]
50002fb8:	e1a022c3 	asr	r2, r3, #5
50002fbc:	e30c3f00 	movw	r3, #52992	; 0xcf00
50002fc0:	e3453001 	movt	r3, #20481	; 0x5001
50002fc4:	e2822002 	add	r2, r2, #2
50002fc8:	e7933102 	ldr	r3, [r3, r2, lsl #2]
50002fcc:	e3530000 	cmp	r3, #0
50002fd0:	1a00000b 	bne	50003004 <readyQ_remove+0xec>
50002fd4:	e30c3f00 	movw	r3, #52992	; 0xcf00
50002fd8:	e3453001 	movt	r3, #20481	; 0x5001
50002fdc:	e5933004 	ldr	r3, [r3, #4]
50002fe0:	e51b2008 	ldr	r2, [fp, #-8]
50002fe4:	e1a022c2 	asr	r2, r2, #5
50002fe8:	e3a01001 	mov	r1, #1
50002fec:	e1a02211 	lsl	r2, r1, r2
50002ff0:	e1e02002 	mvn	r2, r2
50002ff4:	e0022003 	and	r2, r2, r3
50002ff8:	e30c3f00 	movw	r3, #52992	; 0xcf00
50002ffc:	e3453001 	movt	r3, #20481	; 0x5001
50003000:	e5832004 	str	r2, [r3, #4]
50003004:	e30c3f00 	movw	r3, #52992	; 0xcf00
50003008:	e3453001 	movt	r3, #20481	; 0x5001
5000300c:	e5932000 	ldr	r2, [r3]
50003010:	e51b3010 	ldr	r3, [fp, #-16]
50003014:	e1520003 	cmp	r2, r3
50003018:	1a000014 	bne	50003070 <readyQ_remove+0x158>
5000301c:	eb000015 	bl	50003078 <_readQ_highest_pri>
50003020:	e1a02000 	mov	r2, r0
50003024:	e30c3f00 	movw	r3, #52992	; 0xcf00
50003028:	e3453001 	movt	r3, #20481	; 0x5001
5000302c:	e2822005 	add	r2, r2, #5
50003030:	e7932182 	ldr	r2, [r3, r2, lsl #3]
50003034:	e30c3f00 	movw	r3, #52992	; 0xcf00
50003038:	e3453001 	movt	r3, #20481	; 0x5001
5000303c:	e5832000 	str	r2, [r3]
50003040:	ea00000a 	b	50003070 <readyQ_remove+0x158>
50003044:	e30c3f00 	movw	r3, #52992	; 0xcf00
50003048:	e3453001 	movt	r3, #20481	; 0x5001
5000304c:	e5932000 	ldr	r2, [r3]
50003050:	e51b3010 	ldr	r3, [fp, #-16]
50003054:	e1520003 	cmp	r2, r3
50003058:	1a000004 	bne	50003070 <readyQ_remove+0x158>
5000305c:	e51b300c 	ldr	r3, [fp, #-12]
50003060:	e5932000 	ldr	r2, [r3]
50003064:	e30c3f00 	movw	r3, #52992	; 0xcf00
50003068:	e3453001 	movt	r3, #20481	; 0x5001
5000306c:	e5832000 	str	r2, [r3]
50003070:	e24bd004 	sub	sp, fp, #4
50003074:	e8bd8800 	pop	{fp, pc}

50003078 <_readQ_highest_pri>:
50003078:	e92d4800 	push	{fp, lr}
5000307c:	e28db004 	add	fp, sp, #4
50003080:	e24dd008 	sub	sp, sp, #8
50003084:	e30c3f00 	movw	r3, #52992	; 0xcf00
50003088:	e3453001 	movt	r3, #20481	; 0x5001
5000308c:	e5933004 	ldr	r3, [r3, #4]
50003090:	e1a00003 	mov	r0, r3
50003094:	eb001207 	bl	500078b8 <LSB>
50003098:	e1a03000 	mov	r3, r0
5000309c:	e50b3008 	str	r3, [fp, #-8]
500030a0:	e30c3f00 	movw	r3, #52992	; 0xcf00
500030a4:	e3453001 	movt	r3, #20481	; 0x5001
500030a8:	e51b2008 	ldr	r2, [fp, #-8]
500030ac:	e2822002 	add	r2, r2, #2
500030b0:	e7933102 	ldr	r3, [r3, r2, lsl #2]
500030b4:	e1a00003 	mov	r0, r3
500030b8:	eb0011fe 	bl	500078b8 <LSB>
500030bc:	e1a03000 	mov	r3, r0
500030c0:	e50b300c 	str	r3, [fp, #-12]
500030c4:	e51b3008 	ldr	r3, [fp, #-8]
500030c8:	e1a02283 	lsl	r2, r3, #5
500030cc:	e51b300c 	ldr	r3, [fp, #-12]
500030d0:	e1823003 	orr	r3, r2, r3
500030d4:	e1a00003 	mov	r0, r3
500030d8:	e24bd004 	sub	sp, fp, #4
500030dc:	e8bd8800 	pop	{fp, pc}

500030e0 <readyQ_show>:
500030e0:	e92d4800 	push	{fp, lr}
500030e4:	e28db004 	add	fp, sp, #4
500030e8:	e24dd010 	sub	sp, sp, #16
500030ec:	e50b0010 	str	r0, [fp, #-16]
500030f0:	e3a03000 	mov	r3, #0
500030f4:	e50b3008 	str	r3, [fp, #-8]
500030f8:	ea00000c 	b	50003130 <readyQ_show+0x50>
500030fc:	e51b3008 	ldr	r3, [fp, #-8]
50003100:	e2833005 	add	r3, r3, #5
50003104:	e1a02183 	lsl	r2, r3, #3
50003108:	e30c3f00 	movw	r3, #52992	; 0xcf00
5000310c:	e3453001 	movt	r3, #20481	; 0x5001
50003110:	e0823003 	add	r3, r2, r3
50003114:	e1a00003 	mov	r0, r3
50003118:	e51b1010 	ldr	r1, [fp, #-16]
5000311c:	e3a02000 	mov	r2, #0
50003120:	ebfff965 	bl	500016bc <dlist_each>
50003124:	e51b3008 	ldr	r3, [fp, #-8]
50003128:	e2833001 	add	r3, r3, #1
5000312c:	e50b3008 	str	r3, [fp, #-8]
50003130:	e51b3008 	ldr	r3, [fp, #-8]
50003134:	e35300ff 	cmp	r3, #255	; 0xff
50003138:	daffffef 	ble	500030fc <readyQ_show+0x1c>
5000313c:	e24bd004 	sub	sp, fp, #4
50003140:	e8bd8800 	pop	{fp, pc}

50003144 <semB_init>:
50003144:	e92d4800 	push	{fp, lr}
50003148:	e28db004 	add	fp, sp, #4
5000314c:	e24dd010 	sub	sp, sp, #16
50003150:	e50b0010 	str	r0, [fp, #-16]
50003154:	e51b3010 	ldr	r3, [fp, #-16]
50003158:	e3530000 	cmp	r3, #0
5000315c:	1a000002 	bne	5000316c <semB_init+0x28>
50003160:	e3a00014 	mov	r0, #20
50003164:	ebfffa93 	bl	50001bb8 <memH_malloc>
50003168:	e50b0010 	str	r0, [fp, #-16]
5000316c:	e51b3010 	ldr	r3, [fp, #-16]
50003170:	e3530000 	cmp	r3, #0
50003174:	0a00000e 	beq	500031b4 <semB_init+0x70>
50003178:	e51b3010 	ldr	r3, [fp, #-16]
5000317c:	e3a02000 	mov	r2, #0
50003180:	e5832008 	str	r2, [r3, #8]
50003184:	e51b3010 	ldr	r3, [fp, #-16]
50003188:	e283300c 	add	r3, r3, #12
5000318c:	e1a00003 	mov	r0, r3
50003190:	ebfff88d 	bl	500013cc <dlist_init>
50003194:	eb0014b4 	bl	5000846c <CPU_LOCK>
50003198:	e50b0008 	str	r0, [fp, #-8]
5000319c:	e3070844 	movw	r0, #30788	; 0x7844
500031a0:	e3450001 	movt	r0, #20481	; 0x5001
500031a4:	e51b1010 	ldr	r1, [fp, #-16]
500031a8:	ebfff8bf 	bl	500014ac <dlist_add>
500031ac:	e51b0008 	ldr	r0, [fp, #-8]
500031b0:	eb0014b6 	bl	50008490 <CPU_UNLOCK>
500031b4:	e51b3010 	ldr	r3, [fp, #-16]
500031b8:	e1a00003 	mov	r0, r3
500031bc:	e24bd004 	sub	sp, fp, #4
500031c0:	e8bd8800 	pop	{fp, pc}

500031c4 <semB_take>:
500031c4:	e92d4800 	push	{fp, lr}
500031c8:	e28db004 	add	fp, sp, #4
500031cc:	e24dd010 	sub	sp, sp, #16
500031d0:	e50b0010 	str	r0, [fp, #-16]
500031d4:	e50b1014 	str	r1, [fp, #-20]
500031d8:	e3e03000 	mvn	r3, #0
500031dc:	e50b3008 	str	r3, [fp, #-8]
500031e0:	eb0014a1 	bl	5000846c <CPU_LOCK>
500031e4:	e50b000c 	str	r0, [fp, #-12]
500031e8:	e51b3010 	ldr	r3, [fp, #-16]
500031ec:	e5933008 	ldr	r3, [r3, #8]
500031f0:	e3530000 	cmp	r3, #0
500031f4:	1a00000c 	bne	5000322c <semB_take+0x68>
500031f8:	e3073878 	movw	r3, #30840	; 0x7878
500031fc:	e3453001 	movt	r3, #20481	; 0x5001
50003200:	e5932000 	ldr	r2, [r3]
50003204:	e51b3010 	ldr	r3, [fp, #-16]
50003208:	e5832008 	str	r2, [r3, #8]
5000320c:	e3073878 	movw	r3, #30840	; 0x7878
50003210:	e3453001 	movt	r3, #20481	; 0x5001
50003214:	e5933000 	ldr	r3, [r3]
50003218:	e3a02000 	mov	r2, #0
5000321c:	e5832044 	str	r2, [r3, #68]	; 0x44
50003220:	e3a03000 	mov	r3, #0
50003224:	e50b3008 	str	r3, [fp, #-8]
50003228:	ea00002b 	b	500032dc <semB_take+0x118>
5000322c:	e51b3014 	ldr	r3, [fp, #-20]
50003230:	e3530000 	cmp	r3, #0
50003234:	0a000028 	beq	500032dc <semB_take+0x118>
50003238:	e3073878 	movw	r3, #30840	; 0x7878
5000323c:	e3453001 	movt	r3, #20481	; 0x5001
50003240:	e5933000 	ldr	r3, [r3]
50003244:	e1a00003 	mov	r0, r3
50003248:	ebffff32 	bl	50002f18 <readyQ_remove>
5000324c:	e3073878 	movw	r3, #30840	; 0x7878
50003250:	e3453001 	movt	r3, #20481	; 0x5001
50003254:	e5933000 	ldr	r3, [r3]
50003258:	e51b2014 	ldr	r2, [fp, #-20]
5000325c:	e5832044 	str	r2, [r3, #68]	; 0x44
50003260:	e3073878 	movw	r3, #30840	; 0x7878
50003264:	e3453001 	movt	r3, #20481	; 0x5001
50003268:	e5933000 	ldr	r3, [r3]
5000326c:	e3a02003 	mov	r2, #3
50003270:	e583204c 	str	r2, [r3, #76]	; 0x4c
50003274:	e3073878 	movw	r3, #30840	; 0x7878
50003278:	e3453001 	movt	r3, #20481	; 0x5001
5000327c:	e5933000 	ldr	r3, [r3]
50003280:	e51b2010 	ldr	r2, [fp, #-16]
50003284:	e5832050 	str	r2, [r3, #80]	; 0x50
50003288:	e51b3010 	ldr	r3, [fp, #-16]
5000328c:	e283200c 	add	r2, r3, #12
50003290:	e3073878 	movw	r3, #30840	; 0x7878
50003294:	e3453001 	movt	r3, #20481	; 0x5001
50003298:	e5933000 	ldr	r3, [r3]
5000329c:	e1a00002 	mov	r0, r2
500032a0:	e1a01003 	mov	r1, r3
500032a4:	ebfff880 	bl	500014ac <dlist_add>
500032a8:	ef000007 	svc	0x00000007
500032ac:	e3073878 	movw	r3, #30840	; 0x7878
500032b0:	e3453001 	movt	r3, #20481	; 0x5001
500032b4:	e5933000 	ldr	r3, [r3]
500032b8:	e5933044 	ldr	r3, [r3, #68]	; 0x44
500032bc:	e3530000 	cmp	r3, #0
500032c0:	0a000005 	beq	500032dc <semB_take+0x118>
500032c4:	e3073878 	movw	r3, #30840	; 0x7878
500032c8:	e3453001 	movt	r3, #20481	; 0x5001
500032cc:	e5933000 	ldr	r3, [r3]
500032d0:	e5933044 	ldr	r3, [r3, #68]	; 0x44
500032d4:	e50b3014 	str	r3, [fp, #-20]
500032d8:	eaffffc2 	b	500031e8 <semB_take+0x24>
500032dc:	e51b000c 	ldr	r0, [fp, #-12]
500032e0:	eb00146a 	bl	50008490 <CPU_UNLOCK>
500032e4:	e51b3008 	ldr	r3, [fp, #-8]
500032e8:	e1a00003 	mov	r0, r3
500032ec:	e24bd004 	sub	sp, fp, #4
500032f0:	e8bd8800 	pop	{fp, pc}

500032f4 <semB_give>:
500032f4:	e92d4800 	push	{fp, lr}
500032f8:	e28db004 	add	fp, sp, #4
500032fc:	e24dd010 	sub	sp, sp, #16
50003300:	e50b0010 	str	r0, [fp, #-16]
50003304:	e3a03000 	mov	r3, #0
50003308:	e50b3008 	str	r3, [fp, #-8]
5000330c:	eb001456 	bl	5000846c <CPU_LOCK>
50003310:	e50b000c 	str	r0, [fp, #-12]
50003314:	e51b3010 	ldr	r3, [fp, #-16]
50003318:	e3a02000 	mov	r2, #0
5000331c:	e5832008 	str	r2, [r3, #8]
50003320:	e51b3010 	ldr	r3, [fp, #-16]
50003324:	e283300c 	add	r3, r3, #12
50003328:	e1a00003 	mov	r0, r3
5000332c:	ebfff88f 	bl	50001570 <dlist_get>
50003330:	e50b0008 	str	r0, [fp, #-8]
50003334:	e51b3008 	ldr	r3, [fp, #-8]
50003338:	e3530000 	cmp	r3, #0
5000333c:	0a000001 	beq	50003348 <semB_give+0x54>
50003340:	e51b0008 	ldr	r0, [fp, #-8]
50003344:	ebfffeaf 	bl	50002e08 <readyQ_put>
50003348:	e51b000c 	ldr	r0, [fp, #-12]
5000334c:	eb00144f 	bl	50008490 <CPU_UNLOCK>
50003350:	e3a03000 	mov	r3, #0
50003354:	e1a00003 	mov	r0, r3
50003358:	e24bd004 	sub	sp, fp, #4
5000335c:	e8bd8800 	pop	{fp, pc}

50003360 <semB_flush>:
50003360:	e92d4800 	push	{fp, lr}
50003364:	e28db004 	add	fp, sp, #4
50003368:	e24dd010 	sub	sp, sp, #16
5000336c:	e50b0010 	str	r0, [fp, #-16]
50003370:	eb00143d 	bl	5000846c <CPU_LOCK>
50003374:	e50b0008 	str	r0, [fp, #-8]
50003378:	e51b3010 	ldr	r3, [fp, #-16]
5000337c:	e283300c 	add	r3, r3, #12
50003380:	e1a00003 	mov	r0, r3
50003384:	ebfff879 	bl	50001570 <dlist_get>
50003388:	e1a02000 	mov	r2, r0
5000338c:	e51b3010 	ldr	r3, [fp, #-16]
50003390:	e5832008 	str	r2, [r3, #8]
50003394:	ea00000e 	b	500033d4 <semB_flush+0x74>
50003398:	e51b3010 	ldr	r3, [fp, #-16]
5000339c:	e5933008 	ldr	r3, [r3, #8]
500033a0:	e3a02000 	mov	r2, #0
500033a4:	e5832044 	str	r2, [r3, #68]	; 0x44
500033a8:	e51b3010 	ldr	r3, [fp, #-16]
500033ac:	e5933008 	ldr	r3, [r3, #8]
500033b0:	e1a00003 	mov	r0, r3
500033b4:	ebfffe93 	bl	50002e08 <readyQ_put>
500033b8:	e51b3010 	ldr	r3, [fp, #-16]
500033bc:	e283300c 	add	r3, r3, #12
500033c0:	e1a00003 	mov	r0, r3
500033c4:	ebfff869 	bl	50001570 <dlist_get>
500033c8:	e1a02000 	mov	r2, r0
500033cc:	e51b3010 	ldr	r3, [fp, #-16]
500033d0:	e5832008 	str	r2, [r3, #8]
500033d4:	e51b3010 	ldr	r3, [fp, #-16]
500033d8:	e5933008 	ldr	r3, [r3, #8]
500033dc:	e3530000 	cmp	r3, #0
500033e0:	1affffec 	bne	50003398 <semB_flush+0x38>
500033e4:	e51b0008 	ldr	r0, [fp, #-8]
500033e8:	eb001428 	bl	50008490 <CPU_UNLOCK>
500033ec:	e3a03000 	mov	r3, #0
500033f0:	e1a00003 	mov	r0, r3
500033f4:	e24bd004 	sub	sp, fp, #4
500033f8:	e8bd8800 	pop	{fp, pc}

500033fc <semB_delete>:
500033fc:	e92d4800 	push	{fp, lr}
50003400:	e28db004 	add	fp, sp, #4
50003404:	e24dd010 	sub	sp, sp, #16
50003408:	e50b0010 	str	r0, [fp, #-16]
5000340c:	e51b0010 	ldr	r0, [fp, #-16]
50003410:	ebffffd2 	bl	50003360 <semB_flush>
50003414:	eb001414 	bl	5000846c <CPU_LOCK>
50003418:	e50b0008 	str	r0, [fp, #-8]
5000341c:	e3070844 	movw	r0, #30788	; 0x7844
50003420:	e3450001 	movt	r0, #20481	; 0x5001
50003424:	e51b1010 	ldr	r1, [fp, #-16]
50003428:	ebfff82c 	bl	500014e0 <dlist_remove>
5000342c:	e51b0008 	ldr	r0, [fp, #-8]
50003430:	eb001416 	bl	50008490 <CPU_UNLOCK>
50003434:	e51b2010 	ldr	r2, [fp, #-16]
50003438:	e30f3500 	movw	r3, #62720	; 0xf500
5000343c:	e3453003 	movt	r3, #20483	; 0x5003
50003440:	e1520003 	cmp	r2, r3
50003444:	3a000007 	bcc	50003468 <semB_delete+0x6c>
50003448:	e51b2010 	ldr	r2, [fp, #-16]
5000344c:	e30f3500 	movw	r3, #62720	; 0xf500
50003450:	e3453003 	movt	r3, #20483	; 0x5003
50003454:	e2833501 	add	r3, r3, #4194304	; 0x400000
50003458:	e1520003 	cmp	r2, r3
5000345c:	8a000001 	bhi	50003468 <semB_delete+0x6c>
50003460:	e51b0010 	ldr	r0, [fp, #-16]
50003464:	ebfffa83 	bl	50001e78 <memH_free>
50003468:	e3a03000 	mov	r3, #0
5000346c:	e1a00003 	mov	r0, r3
50003470:	e24bd004 	sub	sp, fp, #4
50003474:	e8bd8800 	pop	{fp, pc}

50003478 <semB_remove>:
50003478:	e92d4800 	push	{fp, lr}
5000347c:	e28db004 	add	fp, sp, #4
50003480:	e24dd010 	sub	sp, sp, #16
50003484:	e50b0010 	str	r0, [fp, #-16]
50003488:	e50b1014 	str	r1, [fp, #-20]
5000348c:	eb0013f6 	bl	5000846c <CPU_LOCK>
50003490:	e50b0008 	str	r0, [fp, #-8]
50003494:	e51b3010 	ldr	r3, [fp, #-16]
50003498:	e283300c 	add	r3, r3, #12
5000349c:	e1a00003 	mov	r0, r3
500034a0:	e51b1014 	ldr	r1, [fp, #-20]
500034a4:	ebfff80d 	bl	500014e0 <dlist_remove>
500034a8:	e51b0008 	ldr	r0, [fp, #-8]
500034ac:	eb0013f7 	bl	50008490 <CPU_UNLOCK>
500034b0:	e3a03000 	mov	r3, #0
500034b4:	e1a00003 	mov	r0, r3
500034b8:	e24bd004 	sub	sp, fp, #4
500034bc:	e8bd8800 	pop	{fp, pc}

500034c0 <wait_to_ready>:
500034c0:	e92d4800 	push	{fp, lr}
500034c4:	e28db004 	add	fp, sp, #4
500034c8:	e24dd008 	sub	sp, sp, #8
500034cc:	e50b0008 	str	r0, [fp, #-8]
500034d0:	e50b100c 	str	r1, [fp, #-12]
500034d4:	e51b3008 	ldr	r3, [fp, #-8]
500034d8:	e5933044 	ldr	r3, [r3, #68]	; 0x44
500034dc:	e3730001 	cmn	r3, #1
500034e0:	0a000004 	beq	500034f8 <wait_to_ready+0x38>
500034e4:	e51b3008 	ldr	r3, [fp, #-8]
500034e8:	e5933044 	ldr	r3, [r3, #68]	; 0x44
500034ec:	e2432001 	sub	r2, r3, #1
500034f0:	e51b3008 	ldr	r3, [fp, #-8]
500034f4:	e5832044 	str	r2, [r3, #68]	; 0x44
500034f8:	e51b3008 	ldr	r3, [fp, #-8]
500034fc:	e5933044 	ldr	r3, [r3, #68]	; 0x44
50003500:	e3530000 	cmp	r3, #0
50003504:	1a000004 	bne	5000351c <wait_to_ready+0x5c>
50003508:	e51b000c 	ldr	r0, [fp, #-12]
5000350c:	e51b1008 	ldr	r1, [fp, #-8]
50003510:	ebfff7f2 	bl	500014e0 <dlist_remove>
50003514:	e51b0008 	ldr	r0, [fp, #-8]
50003518:	ebfffe3a 	bl	50002e08 <readyQ_put>
5000351c:	e3a03000 	mov	r3, #0
50003520:	e1a00003 	mov	r0, r3
50003524:	e24bd004 	sub	sp, fp, #4
50003528:	e8bd8800 	pop	{fp, pc}

5000352c <_update_wait_list>:
5000352c:	e92d4800 	push	{fp, lr}
50003530:	e28db004 	add	fp, sp, #4
50003534:	e24dd008 	sub	sp, sp, #8
50003538:	e50b0008 	str	r0, [fp, #-8]
5000353c:	e50b100c 	str	r1, [fp, #-12]
50003540:	e51b3008 	ldr	r3, [fp, #-8]
50003544:	e283200c 	add	r2, r3, #12
50003548:	e51b3008 	ldr	r3, [fp, #-8]
5000354c:	e283300c 	add	r3, r3, #12
50003550:	e1a00002 	mov	r0, r2
50003554:	e30314c0 	movw	r1, #13504	; 0x34c0
50003558:	e3451000 	movt	r1, #20480	; 0x5000
5000355c:	e1a02003 	mov	r2, r3
50003560:	ebfff855 	bl	500016bc <dlist_each>
50003564:	e3a03000 	mov	r3, #0
50003568:	e1a00003 	mov	r0, r3
5000356c:	e24bd004 	sub	sp, fp, #4
50003570:	e8bd8800 	pop	{fp, pc}

50003574 <semB_decrease>:
50003574:	e92d4800 	push	{fp, lr}
50003578:	e28db004 	add	fp, sp, #4
5000357c:	e3070844 	movw	r0, #30788	; 0x7844
50003580:	e3450001 	movt	r0, #20481	; 0x5001
50003584:	e303152c 	movw	r1, #13612	; 0x352c
50003588:	e3451000 	movt	r1, #20480	; 0x5000
5000358c:	e3a02000 	mov	r2, #0
50003590:	ebfff849 	bl	500016bc <dlist_each>
50003594:	e8bd8800 	pop	{fp, pc}

50003598 <_each_wait_list>:
50003598:	e92d4800 	push	{fp, lr}
5000359c:	e28db004 	add	fp, sp, #4
500035a0:	e24dd008 	sub	sp, sp, #8
500035a4:	e50b0008 	str	r0, [fp, #-8]
500035a8:	e50b100c 	str	r1, [fp, #-12]
500035ac:	e51b3008 	ldr	r3, [fp, #-8]
500035b0:	e283300c 	add	r3, r3, #12
500035b4:	e1a00003 	mov	r0, r3
500035b8:	e51b100c 	ldr	r1, [fp, #-12]
500035bc:	e3a02000 	mov	r2, #0
500035c0:	ebfff83d 	bl	500016bc <dlist_each>
500035c4:	e3a03000 	mov	r3, #0
500035c8:	e1a00003 	mov	r0, r3
500035cc:	e24bd004 	sub	sp, fp, #4
500035d0:	e8bd8800 	pop	{fp, pc}

500035d4 <semB_show>:
500035d4:	e92d4800 	push	{fp, lr}
500035d8:	e28db004 	add	fp, sp, #4
500035dc:	e24dd008 	sub	sp, sp, #8
500035e0:	e50b0008 	str	r0, [fp, #-8]
500035e4:	e51b3008 	ldr	r3, [fp, #-8]
500035e8:	e3070844 	movw	r0, #30788	; 0x7844
500035ec:	e3450001 	movt	r0, #20481	; 0x5001
500035f0:	e3031598 	movw	r1, #13720	; 0x3598
500035f4:	e3451000 	movt	r1, #20480	; 0x5000
500035f8:	e1a02003 	mov	r2, r3
500035fc:	ebfff82e 	bl	500016bc <dlist_each>
50003600:	e24bd004 	sub	sp, fp, #4
50003604:	e8bd8800 	pop	{fp, pc}

50003608 <_show_semB_info>:
50003608:	e92d4810 	push	{r4, fp, lr}
5000360c:	e28db008 	add	fp, sp, #8
50003610:	e24dd00c 	sub	sp, sp, #12
50003614:	e50b0010 	str	r0, [fp, #-16]
50003618:	e50b1014 	str	r1, [fp, #-20]
5000361c:	e51b3010 	ldr	r3, [fp, #-16]
50003620:	e5934008 	ldr	r4, [r3, #8]
50003624:	e51b3010 	ldr	r3, [fp, #-16]
50003628:	e283300c 	add	r3, r3, #12
5000362c:	e1a00003 	mov	r0, r3
50003630:	ebfff7ed 	bl	500015ec <dlist_count>
50003634:	e1a03000 	mov	r3, r0
50003638:	e30503b0 	movw	r0, #21424	; 0x53b0
5000363c:	e3450001 	movt	r0, #20481	; 0x5001
50003640:	e51b1010 	ldr	r1, [fp, #-16]
50003644:	e1a02004 	mov	r2, r4
50003648:	eb000419 	bl	500046b4 <serial_printf>
5000364c:	e3a03000 	mov	r3, #0
50003650:	e1a00003 	mov	r0, r3
50003654:	e24bd008 	sub	sp, fp, #8
50003658:	e8bd8810 	pop	{r4, fp, pc}

5000365c <b>:
5000365c:	e92d4800 	push	{fp, lr}
50003660:	e28db004 	add	fp, sp, #4
50003664:	e3070844 	movw	r0, #30788	; 0x7844
50003668:	e3450001 	movt	r0, #20481	; 0x5001
5000366c:	e3031608 	movw	r1, #13832	; 0x3608
50003670:	e3451000 	movt	r1, #20480	; 0x5000
50003674:	e3a02000 	mov	r2, #0
50003678:	ebfff80f 	bl	500016bc <dlist_each>
5000367c:	e3a03000 	mov	r3, #0
50003680:	e1a00003 	mov	r0, r3
50003684:	e8bd8800 	pop	{fp, pc}

50003688 <semC_init>:
50003688:	e92d4800 	push	{fp, lr}
5000368c:	e28db004 	add	fp, sp, #4
50003690:	e24dd018 	sub	sp, sp, #24
50003694:	e50b0010 	str	r0, [fp, #-16]
50003698:	e50b1014 	str	r1, [fp, #-20]
5000369c:	e50b2018 	str	r2, [fp, #-24]
500036a0:	e51b3018 	ldr	r3, [fp, #-24]
500036a4:	e3530000 	cmp	r3, #0
500036a8:	1a000001 	bne	500036b4 <semC_init+0x2c>
500036ac:	e3a03000 	mov	r3, #0
500036b0:	ea00001b 	b	50003724 <semC_init+0x9c>
500036b4:	e51b3010 	ldr	r3, [fp, #-16]
500036b8:	e3530000 	cmp	r3, #0
500036bc:	1a000002 	bne	500036cc <semC_init+0x44>
500036c0:	e3a00018 	mov	r0, #24
500036c4:	ebfff93b 	bl	50001bb8 <memH_malloc>
500036c8:	e50b0010 	str	r0, [fp, #-16]
500036cc:	e51b3010 	ldr	r3, [fp, #-16]
500036d0:	e3530000 	cmp	r3, #0
500036d4:	0a000011 	beq	50003720 <semC_init+0x98>
500036d8:	e51b3010 	ldr	r3, [fp, #-16]
500036dc:	e51b2014 	ldr	r2, [fp, #-20]
500036e0:	e5832008 	str	r2, [r3, #8]
500036e4:	e51b3010 	ldr	r3, [fp, #-16]
500036e8:	e51b2018 	ldr	r2, [fp, #-24]
500036ec:	e583200c 	str	r2, [r3, #12]
500036f0:	e51b3010 	ldr	r3, [fp, #-16]
500036f4:	e2833010 	add	r3, r3, #16
500036f8:	e1a00003 	mov	r0, r3
500036fc:	ebfff732 	bl	500013cc <dlist_init>
50003700:	eb001359 	bl	5000846c <CPU_LOCK>
50003704:	e50b0008 	str	r0, [fp, #-8]
50003708:	e307084c 	movw	r0, #30796	; 0x784c
5000370c:	e3450001 	movt	r0, #20481	; 0x5001
50003710:	e51b1010 	ldr	r1, [fp, #-16]
50003714:	ebfff764 	bl	500014ac <dlist_add>
50003718:	e51b0008 	ldr	r0, [fp, #-8]
5000371c:	eb00135b 	bl	50008490 <CPU_UNLOCK>
50003720:	e51b3010 	ldr	r3, [fp, #-16]
50003724:	e1a00003 	mov	r0, r3
50003728:	e24bd004 	sub	sp, fp, #4
5000372c:	e8bd8800 	pop	{fp, pc}

50003730 <semC_take>:
50003730:	e92d4800 	push	{fp, lr}
50003734:	e28db004 	add	fp, sp, #4
50003738:	e24dd010 	sub	sp, sp, #16
5000373c:	e50b0010 	str	r0, [fp, #-16]
50003740:	e50b1014 	str	r1, [fp, #-20]
50003744:	e3e03000 	mvn	r3, #0
50003748:	e50b3008 	str	r3, [fp, #-8]
5000374c:	eb001346 	bl	5000846c <CPU_LOCK>
50003750:	e50b000c 	str	r0, [fp, #-12]
50003754:	e51b3010 	ldr	r3, [fp, #-16]
50003758:	e5933008 	ldr	r3, [r3, #8]
5000375c:	e3530000 	cmp	r3, #0
50003760:	0a00000c 	beq	50003798 <semC_take+0x68>
50003764:	e51b3010 	ldr	r3, [fp, #-16]
50003768:	e5933008 	ldr	r3, [r3, #8]
5000376c:	e2432001 	sub	r2, r3, #1
50003770:	e51b3010 	ldr	r3, [fp, #-16]
50003774:	e5832008 	str	r2, [r3, #8]
50003778:	e3073878 	movw	r3, #30840	; 0x7878
5000377c:	e3453001 	movt	r3, #20481	; 0x5001
50003780:	e5933000 	ldr	r3, [r3]
50003784:	e3a02000 	mov	r2, #0
50003788:	e5832044 	str	r2, [r3, #68]	; 0x44
5000378c:	e3a03000 	mov	r3, #0
50003790:	e50b3008 	str	r3, [fp, #-8]
50003794:	ea00002b 	b	50003848 <semC_take+0x118>
50003798:	e51b3014 	ldr	r3, [fp, #-20]
5000379c:	e3530000 	cmp	r3, #0
500037a0:	0a000028 	beq	50003848 <semC_take+0x118>
500037a4:	e3073878 	movw	r3, #30840	; 0x7878
500037a8:	e3453001 	movt	r3, #20481	; 0x5001
500037ac:	e5933000 	ldr	r3, [r3]
500037b0:	e1a00003 	mov	r0, r3
500037b4:	ebfffdd7 	bl	50002f18 <readyQ_remove>
500037b8:	e3073878 	movw	r3, #30840	; 0x7878
500037bc:	e3453001 	movt	r3, #20481	; 0x5001
500037c0:	e5933000 	ldr	r3, [r3]
500037c4:	e51b2014 	ldr	r2, [fp, #-20]
500037c8:	e5832044 	str	r2, [r3, #68]	; 0x44
500037cc:	e3073878 	movw	r3, #30840	; 0x7878
500037d0:	e3453001 	movt	r3, #20481	; 0x5001
500037d4:	e5933000 	ldr	r3, [r3]
500037d8:	e3a02004 	mov	r2, #4
500037dc:	e583204c 	str	r2, [r3, #76]	; 0x4c
500037e0:	e3073878 	movw	r3, #30840	; 0x7878
500037e4:	e3453001 	movt	r3, #20481	; 0x5001
500037e8:	e5933000 	ldr	r3, [r3]
500037ec:	e51b2010 	ldr	r2, [fp, #-16]
500037f0:	e5832050 	str	r2, [r3, #80]	; 0x50
500037f4:	e51b3010 	ldr	r3, [fp, #-16]
500037f8:	e2832010 	add	r2, r3, #16
500037fc:	e3073878 	movw	r3, #30840	; 0x7878
50003800:	e3453001 	movt	r3, #20481	; 0x5001
50003804:	e5933000 	ldr	r3, [r3]
50003808:	e1a00002 	mov	r0, r2
5000380c:	e1a01003 	mov	r1, r3
50003810:	ebfff725 	bl	500014ac <dlist_add>
50003814:	ef000007 	svc	0x00000007
50003818:	e3073878 	movw	r3, #30840	; 0x7878
5000381c:	e3453001 	movt	r3, #20481	; 0x5001
50003820:	e5933000 	ldr	r3, [r3]
50003824:	e5933044 	ldr	r3, [r3, #68]	; 0x44
50003828:	e3530000 	cmp	r3, #0
5000382c:	0a000005 	beq	50003848 <semC_take+0x118>
50003830:	e3073878 	movw	r3, #30840	; 0x7878
50003834:	e3453001 	movt	r3, #20481	; 0x5001
50003838:	e5933000 	ldr	r3, [r3]
5000383c:	e5933044 	ldr	r3, [r3, #68]	; 0x44
50003840:	e50b3014 	str	r3, [fp, #-20]
50003844:	eaffffc2 	b	50003754 <semC_take+0x24>
50003848:	e51b000c 	ldr	r0, [fp, #-12]
5000384c:	eb00130f 	bl	50008490 <CPU_UNLOCK>
50003850:	e51b3008 	ldr	r3, [fp, #-8]
50003854:	e1a00003 	mov	r0, r3
50003858:	e24bd004 	sub	sp, fp, #4
5000385c:	e8bd8800 	pop	{fp, pc}

50003860 <semC_give>:
50003860:	e92d4800 	push	{fp, lr}
50003864:	e28db004 	add	fp, sp, #4
50003868:	e24dd018 	sub	sp, sp, #24
5000386c:	e50b0018 	str	r0, [fp, #-24]
50003870:	e3a03000 	mov	r3, #0
50003874:	e50b3008 	str	r3, [fp, #-8]
50003878:	e3a03000 	mov	r3, #0
5000387c:	e50b300c 	str	r3, [fp, #-12]
50003880:	eb0012f9 	bl	5000846c <CPU_LOCK>
50003884:	e50b0010 	str	r0, [fp, #-16]
50003888:	e51b3018 	ldr	r3, [fp, #-24]
5000388c:	e5932008 	ldr	r2, [r3, #8]
50003890:	e51b3018 	ldr	r3, [fp, #-24]
50003894:	e593300c 	ldr	r3, [r3, #12]
50003898:	e1520003 	cmp	r2, r3
5000389c:	2a00000f 	bcs	500038e0 <semC_give+0x80>
500038a0:	e51b3018 	ldr	r3, [fp, #-24]
500038a4:	e5933008 	ldr	r3, [r3, #8]
500038a8:	e2832001 	add	r2, r3, #1
500038ac:	e51b3018 	ldr	r3, [fp, #-24]
500038b0:	e5832008 	str	r2, [r3, #8]
500038b4:	e51b3018 	ldr	r3, [fp, #-24]
500038b8:	e2833010 	add	r3, r3, #16
500038bc:	e1a00003 	mov	r0, r3
500038c0:	ebfff72a 	bl	50001570 <dlist_get>
500038c4:	e50b000c 	str	r0, [fp, #-12]
500038c8:	e51b300c 	ldr	r3, [fp, #-12]
500038cc:	e3530000 	cmp	r3, #0
500038d0:	0a000004 	beq	500038e8 <semC_give+0x88>
500038d4:	e51b000c 	ldr	r0, [fp, #-12]
500038d8:	ebfffd4a 	bl	50002e08 <readyQ_put>
500038dc:	ea000001 	b	500038e8 <semC_give+0x88>
500038e0:	e3e03000 	mvn	r3, #0
500038e4:	e50b3008 	str	r3, [fp, #-8]
500038e8:	e51b0010 	ldr	r0, [fp, #-16]
500038ec:	eb0012e7 	bl	50008490 <CPU_UNLOCK>
500038f0:	e51b3008 	ldr	r3, [fp, #-8]
500038f4:	e1a00003 	mov	r0, r3
500038f8:	e24bd004 	sub	sp, fp, #4
500038fc:	e8bd8800 	pop	{fp, pc}

50003900 <semC_flush>:
50003900:	e92d4800 	push	{fp, lr}
50003904:	e28db004 	add	fp, sp, #4
50003908:	e24dd010 	sub	sp, sp, #16
5000390c:	e50b0010 	str	r0, [fp, #-16]
50003910:	e3a03000 	mov	r3, #0
50003914:	e50b3008 	str	r3, [fp, #-8]
50003918:	eb0012d3 	bl	5000846c <CPU_LOCK>
5000391c:	e50b000c 	str	r0, [fp, #-12]
50003920:	e51b3010 	ldr	r3, [fp, #-16]
50003924:	e2833010 	add	r3, r3, #16
50003928:	e1a00003 	mov	r0, r3
5000392c:	ebfff70f 	bl	50001570 <dlist_get>
50003930:	e50b0008 	str	r0, [fp, #-8]
50003934:	ea000009 	b	50003960 <semC_flush+0x60>
50003938:	e51b3008 	ldr	r3, [fp, #-8]
5000393c:	e3a02000 	mov	r2, #0
50003940:	e5832044 	str	r2, [r3, #68]	; 0x44
50003944:	e51b0008 	ldr	r0, [fp, #-8]
50003948:	ebfffd2e 	bl	50002e08 <readyQ_put>
5000394c:	e51b3010 	ldr	r3, [fp, #-16]
50003950:	e2833010 	add	r3, r3, #16
50003954:	e1a00003 	mov	r0, r3
50003958:	ebfff704 	bl	50001570 <dlist_get>
5000395c:	e50b0008 	str	r0, [fp, #-8]
50003960:	e51b3008 	ldr	r3, [fp, #-8]
50003964:	e3530000 	cmp	r3, #0
50003968:	1afffff2 	bne	50003938 <semC_flush+0x38>
5000396c:	e51b3010 	ldr	r3, [fp, #-16]
50003970:	e3a02000 	mov	r2, #0
50003974:	e5832008 	str	r2, [r3, #8]
50003978:	e51b000c 	ldr	r0, [fp, #-12]
5000397c:	eb0012c3 	bl	50008490 <CPU_UNLOCK>
50003980:	e3a03000 	mov	r3, #0
50003984:	e1a00003 	mov	r0, r3
50003988:	e24bd004 	sub	sp, fp, #4
5000398c:	e8bd8800 	pop	{fp, pc}

50003990 <semC_delete>:
50003990:	e92d4800 	push	{fp, lr}
50003994:	e28db004 	add	fp, sp, #4
50003998:	e24dd010 	sub	sp, sp, #16
5000399c:	e50b0010 	str	r0, [fp, #-16]
500039a0:	e51b0010 	ldr	r0, [fp, #-16]
500039a4:	ebffffd5 	bl	50003900 <semC_flush>
500039a8:	eb0012af 	bl	5000846c <CPU_LOCK>
500039ac:	e50b0008 	str	r0, [fp, #-8]
500039b0:	e307084c 	movw	r0, #30796	; 0x784c
500039b4:	e3450001 	movt	r0, #20481	; 0x5001
500039b8:	e51b1010 	ldr	r1, [fp, #-16]
500039bc:	ebfff6c7 	bl	500014e0 <dlist_remove>
500039c0:	e51b0008 	ldr	r0, [fp, #-8]
500039c4:	eb0012b1 	bl	50008490 <CPU_UNLOCK>
500039c8:	e51b2010 	ldr	r2, [fp, #-16]
500039cc:	e30f3500 	movw	r3, #62720	; 0xf500
500039d0:	e3453003 	movt	r3, #20483	; 0x5003
500039d4:	e1520003 	cmp	r2, r3
500039d8:	3a000007 	bcc	500039fc <semC_delete+0x6c>
500039dc:	e51b2010 	ldr	r2, [fp, #-16]
500039e0:	e30f3500 	movw	r3, #62720	; 0xf500
500039e4:	e3453003 	movt	r3, #20483	; 0x5003
500039e8:	e2833501 	add	r3, r3, #4194304	; 0x400000
500039ec:	e1520003 	cmp	r2, r3
500039f0:	8a000001 	bhi	500039fc <semC_delete+0x6c>
500039f4:	e51b0010 	ldr	r0, [fp, #-16]
500039f8:	ebfff91e 	bl	50001e78 <memH_free>
500039fc:	e3a03000 	mov	r3, #0
50003a00:	e1a00003 	mov	r0, r3
50003a04:	e24bd004 	sub	sp, fp, #4
50003a08:	e8bd8800 	pop	{fp, pc}

50003a0c <semC_remove>:
50003a0c:	e92d4800 	push	{fp, lr}
50003a10:	e28db004 	add	fp, sp, #4
50003a14:	e24dd010 	sub	sp, sp, #16
50003a18:	e50b0010 	str	r0, [fp, #-16]
50003a1c:	e50b1014 	str	r1, [fp, #-20]
50003a20:	eb001291 	bl	5000846c <CPU_LOCK>
50003a24:	e50b0008 	str	r0, [fp, #-8]
50003a28:	e51b3010 	ldr	r3, [fp, #-16]
50003a2c:	e2833010 	add	r3, r3, #16
50003a30:	e1a00003 	mov	r0, r3
50003a34:	e51b1014 	ldr	r1, [fp, #-20]
50003a38:	ebfff6a8 	bl	500014e0 <dlist_remove>
50003a3c:	e51b0008 	ldr	r0, [fp, #-8]
50003a40:	eb001292 	bl	50008490 <CPU_UNLOCK>
50003a44:	e3a03000 	mov	r3, #0
50003a48:	e1a00003 	mov	r0, r3
50003a4c:	e24bd004 	sub	sp, fp, #4
50003a50:	e8bd8800 	pop	{fp, pc}

50003a54 <_update_wait_list>:
50003a54:	e92d4800 	push	{fp, lr}
50003a58:	e28db004 	add	fp, sp, #4
50003a5c:	e24dd008 	sub	sp, sp, #8
50003a60:	e50b0008 	str	r0, [fp, #-8]
50003a64:	e50b100c 	str	r1, [fp, #-12]
50003a68:	e51b3008 	ldr	r3, [fp, #-8]
50003a6c:	e2832010 	add	r2, r3, #16
50003a70:	e51b3008 	ldr	r3, [fp, #-8]
50003a74:	e2833010 	add	r3, r3, #16
50003a78:	e1a00002 	mov	r0, r2
50003a7c:	e30314c0 	movw	r1, #13504	; 0x34c0
50003a80:	e3451000 	movt	r1, #20480	; 0x5000
50003a84:	e1a02003 	mov	r2, r3
50003a88:	ebfff70b 	bl	500016bc <dlist_each>
50003a8c:	e3a03000 	mov	r3, #0
50003a90:	e1a00003 	mov	r0, r3
50003a94:	e24bd004 	sub	sp, fp, #4
50003a98:	e8bd8800 	pop	{fp, pc}

50003a9c <semC_decrease>:
50003a9c:	e92d4800 	push	{fp, lr}
50003aa0:	e28db004 	add	fp, sp, #4
50003aa4:	e307084c 	movw	r0, #30796	; 0x784c
50003aa8:	e3450001 	movt	r0, #20481	; 0x5001
50003aac:	e3031a54 	movw	r1, #14932	; 0x3a54
50003ab0:	e3451000 	movt	r1, #20480	; 0x5000
50003ab4:	e3a02000 	mov	r2, #0
50003ab8:	ebfff6ff 	bl	500016bc <dlist_each>
50003abc:	e8bd8800 	pop	{fp, pc}

50003ac0 <_each_wait_list>:
50003ac0:	e92d4800 	push	{fp, lr}
50003ac4:	e28db004 	add	fp, sp, #4
50003ac8:	e24dd008 	sub	sp, sp, #8
50003acc:	e50b0008 	str	r0, [fp, #-8]
50003ad0:	e50b100c 	str	r1, [fp, #-12]
50003ad4:	e51b3008 	ldr	r3, [fp, #-8]
50003ad8:	e2833010 	add	r3, r3, #16
50003adc:	e1a00003 	mov	r0, r3
50003ae0:	e51b100c 	ldr	r1, [fp, #-12]
50003ae4:	e3a02000 	mov	r2, #0
50003ae8:	ebfff6f3 	bl	500016bc <dlist_each>
50003aec:	e3a03000 	mov	r3, #0
50003af0:	e1a00003 	mov	r0, r3
50003af4:	e24bd004 	sub	sp, fp, #4
50003af8:	e8bd8800 	pop	{fp, pc}

50003afc <semC_show>:
50003afc:	e92d4800 	push	{fp, lr}
50003b00:	e28db004 	add	fp, sp, #4
50003b04:	e24dd008 	sub	sp, sp, #8
50003b08:	e50b0008 	str	r0, [fp, #-8]
50003b0c:	e51b3008 	ldr	r3, [fp, #-8]
50003b10:	e307084c 	movw	r0, #30796	; 0x784c
50003b14:	e3450001 	movt	r0, #20481	; 0x5001
50003b18:	e3031ac0 	movw	r1, #15040	; 0x3ac0
50003b1c:	e3451000 	movt	r1, #20480	; 0x5000
50003b20:	e1a02003 	mov	r2, r3
50003b24:	ebfff6e4 	bl	500016bc <dlist_each>
50003b28:	e24bd004 	sub	sp, fp, #4
50003b2c:	e8bd8800 	pop	{fp, pc}

50003b30 <_show_semC_info>:
50003b30:	e92d4830 	push	{r4, r5, fp, lr}
50003b34:	e28db00c 	add	fp, sp, #12
50003b38:	e24dd010 	sub	sp, sp, #16
50003b3c:	e50b0010 	str	r0, [fp, #-16]
50003b40:	e50b1014 	str	r1, [fp, #-20]
50003b44:	e51b3010 	ldr	r3, [fp, #-16]
50003b48:	e5935008 	ldr	r5, [r3, #8]
50003b4c:	e51b3010 	ldr	r3, [fp, #-16]
50003b50:	e593400c 	ldr	r4, [r3, #12]
50003b54:	e51b3010 	ldr	r3, [fp, #-16]
50003b58:	e2833010 	add	r3, r3, #16
50003b5c:	e1a00003 	mov	r0, r3
50003b60:	ebfff6a1 	bl	500015ec <dlist_count>
50003b64:	e1a03000 	mov	r3, r0
50003b68:	e58d3000 	str	r3, [sp]
50003b6c:	e30503dc 	movw	r0, #21468	; 0x53dc
50003b70:	e3450001 	movt	r0, #20481	; 0x5001
50003b74:	e51b1010 	ldr	r1, [fp, #-16]
50003b78:	e1a02005 	mov	r2, r5
50003b7c:	e1a03004 	mov	r3, r4
50003b80:	eb0002cb 	bl	500046b4 <serial_printf>
50003b84:	e3a03000 	mov	r3, #0
50003b88:	e1a00003 	mov	r0, r3
50003b8c:	e24bd00c 	sub	sp, fp, #12
50003b90:	e8bd8830 	pop	{r4, r5, fp, pc}

50003b94 <c>:
50003b94:	e92d4800 	push	{fp, lr}
50003b98:	e28db004 	add	fp, sp, #4
50003b9c:	e307084c 	movw	r0, #30796	; 0x784c
50003ba0:	e3450001 	movt	r0, #20481	; 0x5001
50003ba4:	e3031b30 	movw	r1, #15152	; 0x3b30
50003ba8:	e3451000 	movt	r1, #20480	; 0x5000
50003bac:	e3a02000 	mov	r2, #0
50003bb0:	ebfff6c1 	bl	500016bc <dlist_each>
50003bb4:	e3a03000 	mov	r3, #0
50003bb8:	e1a00003 	mov	r0, r3
50003bbc:	e8bd8800 	pop	{fp, pc}

50003bc0 <_semM_alloc>:
50003bc0:	e92d4800 	push	{fp, lr}
50003bc4:	e28db004 	add	fp, sp, #4
50003bc8:	e3a0001c 	mov	r0, #28
50003bcc:	ebfff7f9 	bl	50001bb8 <memH_malloc>
50003bd0:	e1a03000 	mov	r3, r0
50003bd4:	e1a00003 	mov	r0, r3
50003bd8:	e8bd8800 	pop	{fp, pc}

50003bdc <semM_init>:
50003bdc:	e92d4800 	push	{fp, lr}
50003be0:	e28db004 	add	fp, sp, #4
50003be4:	e24dd010 	sub	sp, sp, #16
50003be8:	e50b0010 	str	r0, [fp, #-16]
50003bec:	e51b3010 	ldr	r3, [fp, #-16]
50003bf0:	e3530000 	cmp	r3, #0
50003bf4:	1a000001 	bne	50003c00 <semM_init+0x24>
50003bf8:	ebfffff0 	bl	50003bc0 <_semM_alloc>
50003bfc:	e50b0010 	str	r0, [fp, #-16]
50003c00:	e51b3010 	ldr	r3, [fp, #-16]
50003c04:	e3530000 	cmp	r3, #0
50003c08:	0a000014 	beq	50003c60 <semM_init+0x84>
50003c0c:	e51b3010 	ldr	r3, [fp, #-16]
50003c10:	e3a02000 	mov	r2, #0
50003c14:	e5832008 	str	r2, [r3, #8]
50003c18:	e51b3010 	ldr	r3, [fp, #-16]
50003c1c:	e3a02000 	mov	r2, #0
50003c20:	e583200c 	str	r2, [r3, #12]
50003c24:	e51b3010 	ldr	r3, [fp, #-16]
50003c28:	e3a020ff 	mov	r2, #255	; 0xff
50003c2c:	e5832010 	str	r2, [r3, #16]
50003c30:	e51b3010 	ldr	r3, [fp, #-16]
50003c34:	e2833014 	add	r3, r3, #20
50003c38:	e1a00003 	mov	r0, r3
50003c3c:	ebfff5e2 	bl	500013cc <dlist_init>
50003c40:	eb001209 	bl	5000846c <CPU_LOCK>
50003c44:	e50b0008 	str	r0, [fp, #-8]
50003c48:	e3070854 	movw	r0, #30804	; 0x7854
50003c4c:	e3450001 	movt	r0, #20481	; 0x5001
50003c50:	e51b1010 	ldr	r1, [fp, #-16]
50003c54:	ebfff614 	bl	500014ac <dlist_add>
50003c58:	e51b0008 	ldr	r0, [fp, #-8]
50003c5c:	eb00120b 	bl	50008490 <CPU_UNLOCK>
50003c60:	e51b3010 	ldr	r3, [fp, #-16]
50003c64:	e1a00003 	mov	r0, r3
50003c68:	e24bd004 	sub	sp, fp, #4
50003c6c:	e8bd8800 	pop	{fp, pc}

50003c70 <semM_take>:
50003c70:	e92d4800 	push	{fp, lr}
50003c74:	e28db004 	add	fp, sp, #4
50003c78:	e24dd010 	sub	sp, sp, #16
50003c7c:	e50b0010 	str	r0, [fp, #-16]
50003c80:	e50b1014 	str	r1, [fp, #-20]
50003c84:	e3e03000 	mvn	r3, #0
50003c88:	e50b3008 	str	r3, [fp, #-8]
50003c8c:	eb0011f6 	bl	5000846c <CPU_LOCK>
50003c90:	e50b000c 	str	r0, [fp, #-12]
50003c94:	e51b3010 	ldr	r3, [fp, #-16]
50003c98:	e5933008 	ldr	r3, [r3, #8]
50003c9c:	e3530000 	cmp	r3, #0
50003ca0:	1a00000a 	bne	50003cd0 <semM_take+0x60>
50003ca4:	e3073878 	movw	r3, #30840	; 0x7878
50003ca8:	e3453001 	movt	r3, #20481	; 0x5001
50003cac:	e5932000 	ldr	r2, [r3]
50003cb0:	e51b3010 	ldr	r3, [fp, #-16]
50003cb4:	e5832008 	str	r2, [r3, #8]
50003cb8:	e51b3010 	ldr	r3, [fp, #-16]
50003cbc:	e3a02001 	mov	r2, #1
50003cc0:	e583200c 	str	r2, [r3, #12]
50003cc4:	e3a03000 	mov	r3, #0
50003cc8:	e50b3008 	str	r3, [fp, #-8]
50003ccc:	ea00003f 	b	50003dd0 <semM_take+0x160>
50003cd0:	e51b3010 	ldr	r3, [fp, #-16]
50003cd4:	e5932008 	ldr	r2, [r3, #8]
50003cd8:	e3073878 	movw	r3, #30840	; 0x7878
50003cdc:	e3453001 	movt	r3, #20481	; 0x5001
50003ce0:	e5933000 	ldr	r3, [r3]
50003ce4:	e1520003 	cmp	r2, r3
50003ce8:	1a000005 	bne	50003d04 <semM_take+0x94>
50003cec:	e51b3010 	ldr	r3, [fp, #-16]
50003cf0:	e593300c 	ldr	r3, [r3, #12]
50003cf4:	e2832001 	add	r2, r3, #1
50003cf8:	e51b3010 	ldr	r3, [fp, #-16]
50003cfc:	e583200c 	str	r2, [r3, #12]
50003d00:	ea000032 	b	50003dd0 <semM_take+0x160>
50003d04:	e51b3014 	ldr	r3, [fp, #-20]
50003d08:	e3530000 	cmp	r3, #0
50003d0c:	0a00002f 	beq	50003dd0 <semM_take+0x160>
50003d10:	e3073878 	movw	r3, #30840	; 0x7878
50003d14:	e3453001 	movt	r3, #20481	; 0x5001
50003d18:	e5933000 	ldr	r3, [r3]
50003d1c:	e1a00003 	mov	r0, r3
50003d20:	e51b1010 	ldr	r1, [fp, #-16]
50003d24:	eb000135 	bl	50004200 <_up_owner_pri>
50003d28:	e3073878 	movw	r3, #30840	; 0x7878
50003d2c:	e3453001 	movt	r3, #20481	; 0x5001
50003d30:	e5933000 	ldr	r3, [r3]
50003d34:	e1a00003 	mov	r0, r3
50003d38:	ebfffc76 	bl	50002f18 <readyQ_remove>
50003d3c:	e3073878 	movw	r3, #30840	; 0x7878
50003d40:	e3453001 	movt	r3, #20481	; 0x5001
50003d44:	e5933000 	ldr	r3, [r3]
50003d48:	e51b2014 	ldr	r2, [fp, #-20]
50003d4c:	e5832044 	str	r2, [r3, #68]	; 0x44
50003d50:	e3073878 	movw	r3, #30840	; 0x7878
50003d54:	e3453001 	movt	r3, #20481	; 0x5001
50003d58:	e5933000 	ldr	r3, [r3]
50003d5c:	e3a02002 	mov	r2, #2
50003d60:	e583204c 	str	r2, [r3, #76]	; 0x4c
50003d64:	e3073878 	movw	r3, #30840	; 0x7878
50003d68:	e3453001 	movt	r3, #20481	; 0x5001
50003d6c:	e5933000 	ldr	r3, [r3]
50003d70:	e51b2010 	ldr	r2, [fp, #-16]
50003d74:	e5832050 	str	r2, [r3, #80]	; 0x50
50003d78:	e51b3010 	ldr	r3, [fp, #-16]
50003d7c:	e2832014 	add	r2, r3, #20
50003d80:	e3073878 	movw	r3, #30840	; 0x7878
50003d84:	e3453001 	movt	r3, #20481	; 0x5001
50003d88:	e5933000 	ldr	r3, [r3]
50003d8c:	e1a00002 	mov	r0, r2
50003d90:	e1a01003 	mov	r1, r3
50003d94:	eb0000ec 	bl	5000414c <_sort_pri_put>
50003d98:	ef000007 	svc	0x00000007
50003d9c:	e3073878 	movw	r3, #30840	; 0x7878
50003da0:	e3453001 	movt	r3, #20481	; 0x5001
50003da4:	e5933000 	ldr	r3, [r3]
50003da8:	e5933044 	ldr	r3, [r3, #68]	; 0x44
50003dac:	e3530000 	cmp	r3, #0
50003db0:	0a000006 	beq	50003dd0 <semM_take+0x160>
50003db4:	e3073878 	movw	r3, #30840	; 0x7878
50003db8:	e3453001 	movt	r3, #20481	; 0x5001
50003dbc:	e5933000 	ldr	r3, [r3]
50003dc0:	e3a02000 	mov	r2, #0
50003dc4:	e5832044 	str	r2, [r3, #68]	; 0x44
50003dc8:	e3a03000 	mov	r3, #0
50003dcc:	e50b3008 	str	r3, [fp, #-8]
50003dd0:	e51b000c 	ldr	r0, [fp, #-12]
50003dd4:	eb0011ad 	bl	50008490 <CPU_UNLOCK>
50003dd8:	e51b3008 	ldr	r3, [fp, #-8]
50003ddc:	e1a00003 	mov	r0, r3
50003de0:	e24bd004 	sub	sp, fp, #4
50003de4:	e8bd8800 	pop	{fp, pc}

50003de8 <semM_give>:
50003de8:	e92d4800 	push	{fp, lr}
50003dec:	e28db004 	add	fp, sp, #4
50003df0:	e24dd018 	sub	sp, sp, #24
50003df4:	e50b0018 	str	r0, [fp, #-24]
50003df8:	e3a03000 	mov	r3, #0
50003dfc:	e50b3008 	str	r3, [fp, #-8]
50003e00:	eb001199 	bl	5000846c <CPU_LOCK>
50003e04:	e50b000c 	str	r0, [fp, #-12]
50003e08:	e51b3018 	ldr	r3, [fp, #-24]
50003e0c:	e593300c 	ldr	r3, [r3, #12]
50003e10:	e2432001 	sub	r2, r3, #1
50003e14:	e51b3018 	ldr	r3, [fp, #-24]
50003e18:	e583200c 	str	r2, [r3, #12]
50003e1c:	e51b3018 	ldr	r3, [fp, #-24]
50003e20:	e593300c 	ldr	r3, [r3, #12]
50003e24:	e3530000 	cmp	r3, #0
50003e28:	0a000003 	beq	50003e3c <semM_give+0x54>
50003e2c:	e51b000c 	ldr	r0, [fp, #-12]
50003e30:	eb001196 	bl	50008490 <CPU_UNLOCK>
50003e34:	e3a03000 	mov	r3, #0
50003e38:	ea000037 	b	50003f1c <semM_give+0x134>
50003e3c:	e51b3018 	ldr	r3, [fp, #-24]
50003e40:	e2833014 	add	r3, r3, #20
50003e44:	e1a00003 	mov	r0, r3
50003e48:	ebfff5c8 	bl	50001570 <dlist_get>
50003e4c:	e50b0008 	str	r0, [fp, #-8]
50003e50:	e51b3008 	ldr	r3, [fp, #-8]
50003e54:	e3530000 	cmp	r3, #0
50003e58:	0a000007 	beq	50003e7c <semM_give+0x94>
50003e5c:	e51b3018 	ldr	r3, [fp, #-24]
50003e60:	e51b2008 	ldr	r2, [fp, #-8]
50003e64:	e5832008 	str	r2, [r3, #8]
50003e68:	e51b0008 	ldr	r0, [fp, #-8]
50003e6c:	ebfffbe5 	bl	50002e08 <readyQ_put>
50003e70:	e51b0018 	ldr	r0, [fp, #-24]
50003e74:	eb00002b 	bl	50003f28 <_update_wait_pri>
50003e78:	ea000002 	b	50003e88 <semM_give+0xa0>
50003e7c:	e51b3018 	ldr	r3, [fp, #-24]
50003e80:	e3a02000 	mov	r2, #0
50003e84:	e5832008 	str	r2, [r3, #8]
50003e88:	eb00009f 	bl	5000410c <_get_highest_wait_pri>
50003e8c:	e50b0010 	str	r0, [fp, #-16]
50003e90:	e51b2010 	ldr	r2, [fp, #-16]
50003e94:	e3073878 	movw	r3, #30840	; 0x7878
50003e98:	e3453001 	movt	r3, #20481	; 0x5001
50003e9c:	e5933000 	ldr	r3, [r3]
50003ea0:	e5933048 	ldr	r3, [r3, #72]	; 0x48
50003ea4:	e1520003 	cmp	r2, r3
50003ea8:	31a03002 	movcc	r3, r2
50003eac:	21a03003 	movcs	r3, r3
50003eb0:	e50b3014 	str	r3, [fp, #-20]
50003eb4:	e51b2014 	ldr	r2, [fp, #-20]
50003eb8:	e3073878 	movw	r3, #30840	; 0x7878
50003ebc:	e3453001 	movt	r3, #20481	; 0x5001
50003ec0:	e5933000 	ldr	r3, [r3]
50003ec4:	e5933030 	ldr	r3, [r3, #48]	; 0x30
50003ec8:	e1520003 	cmp	r2, r3
50003ecc:	9a00000f 	bls	50003f10 <semM_give+0x128>
50003ed0:	e3073878 	movw	r3, #30840	; 0x7878
50003ed4:	e3453001 	movt	r3, #20481	; 0x5001
50003ed8:	e5933000 	ldr	r3, [r3]
50003edc:	e1a00003 	mov	r0, r3
50003ee0:	ebfffc0c 	bl	50002f18 <readyQ_remove>
50003ee4:	e3073878 	movw	r3, #30840	; 0x7878
50003ee8:	e3453001 	movt	r3, #20481	; 0x5001
50003eec:	e5933000 	ldr	r3, [r3]
50003ef0:	e51b2014 	ldr	r2, [fp, #-20]
50003ef4:	e5832030 	str	r2, [r3, #48]	; 0x30
50003ef8:	e3073878 	movw	r3, #30840	; 0x7878
50003efc:	e3453001 	movt	r3, #20481	; 0x5001
50003f00:	e5933000 	ldr	r3, [r3]
50003f04:	e1a00003 	mov	r0, r3
50003f08:	ebfffbbe 	bl	50002e08 <readyQ_put>
50003f0c:	ef000007 	svc	0x00000007
50003f10:	e51b000c 	ldr	r0, [fp, #-12]
50003f14:	eb00115d 	bl	50008490 <CPU_UNLOCK>
50003f18:	e3a03000 	mov	r3, #0
50003f1c:	e1a00003 	mov	r0, r3
50003f20:	e24bd004 	sub	sp, fp, #4
50003f24:	e8bd8800 	pop	{fp, pc}

50003f28 <_update_wait_pri>:
50003f28:	e52db004 	push	{fp}		; (str fp, [sp, #-4]!)
50003f2c:	e28db000 	add	fp, sp, #0
50003f30:	e24dd00c 	sub	sp, sp, #12
50003f34:	e50b0008 	str	r0, [fp, #-8]
50003f38:	e51b3008 	ldr	r3, [fp, #-8]
50003f3c:	e5933014 	ldr	r3, [r3, #20]
50003f40:	e3530000 	cmp	r3, #0
50003f44:	1a000003 	bne	50003f58 <_update_wait_pri+0x30>
50003f48:	e51b3008 	ldr	r3, [fp, #-8]
50003f4c:	e3a020ff 	mov	r2, #255	; 0xff
50003f50:	e5832010 	str	r2, [r3, #16]
50003f54:	ea000004 	b	50003f6c <_update_wait_pri+0x44>
50003f58:	e51b3008 	ldr	r3, [fp, #-8]
50003f5c:	e5933014 	ldr	r3, [r3, #20]
50003f60:	e5932030 	ldr	r2, [r3, #48]	; 0x30
50003f64:	e51b3008 	ldr	r3, [fp, #-8]
50003f68:	e5832010 	str	r2, [r3, #16]
50003f6c:	e24bd000 	sub	sp, fp, #0
50003f70:	e49db004 	pop	{fp}		; (ldr fp, [sp], #4)
50003f74:	e12fff1e 	bx	lr

50003f78 <_free_semM>:
50003f78:	e92d4800 	push	{fp, lr}
50003f7c:	e28db004 	add	fp, sp, #4
50003f80:	e24dd010 	sub	sp, sp, #16
50003f84:	e50b0010 	str	r0, [fp, #-16]
50003f88:	e50b1014 	str	r1, [fp, #-20]
50003f8c:	e3a03000 	mov	r3, #0
50003f90:	e50b3008 	str	r3, [fp, #-8]
50003f94:	e51b3010 	ldr	r3, [fp, #-16]
50003f98:	e5932008 	ldr	r2, [r3, #8]
50003f9c:	e51b3014 	ldr	r3, [fp, #-20]
50003fa0:	e1520003 	cmp	r2, r3
50003fa4:	1a000012 	bne	50003ff4 <_free_semM+0x7c>
50003fa8:	e51b3010 	ldr	r3, [fp, #-16]
50003fac:	e3a02000 	mov	r2, #0
50003fb0:	e583200c 	str	r2, [r3, #12]
50003fb4:	e51b3010 	ldr	r3, [fp, #-16]
50003fb8:	e2833014 	add	r3, r3, #20
50003fbc:	e1a00003 	mov	r0, r3
50003fc0:	ebfff56a 	bl	50001570 <dlist_get>
50003fc4:	e50b0008 	str	r0, [fp, #-8]
50003fc8:	e51b3008 	ldr	r3, [fp, #-8]
50003fcc:	e3530000 	cmp	r3, #0
50003fd0:	0a000004 	beq	50003fe8 <_free_semM+0x70>
50003fd4:	e51b0008 	ldr	r0, [fp, #-8]
50003fd8:	ebfffb8a 	bl	50002e08 <readyQ_put>
50003fdc:	e51b0010 	ldr	r0, [fp, #-16]
50003fe0:	ebffffd0 	bl	50003f28 <_update_wait_pri>
50003fe4:	ea000002 	b	50003ff4 <_free_semM+0x7c>
50003fe8:	e51b3010 	ldr	r3, [fp, #-16]
50003fec:	e3a02000 	mov	r2, #0
50003ff0:	e5832008 	str	r2, [r3, #8]
50003ff4:	e3a03000 	mov	r3, #0
50003ff8:	e1a00003 	mov	r0, r3
50003ffc:	e24bd004 	sub	sp, fp, #4
50004000:	e8bd8800 	pop	{fp, pc}

50004004 <semM_free>:
50004004:	e92d4800 	push	{fp, lr}
50004008:	e28db004 	add	fp, sp, #4
5000400c:	e24dd010 	sub	sp, sp, #16
50004010:	e50b0010 	str	r0, [fp, #-16]
50004014:	eb001114 	bl	5000846c <CPU_LOCK>
50004018:	e50b0008 	str	r0, [fp, #-8]
5000401c:	e51b3010 	ldr	r3, [fp, #-16]
50004020:	e3070854 	movw	r0, #30804	; 0x7854
50004024:	e3450001 	movt	r0, #20481	; 0x5001
50004028:	e3031f78 	movw	r1, #16248	; 0x3f78
5000402c:	e3451000 	movt	r1, #20480	; 0x5000
50004030:	e1a02003 	mov	r2, r3
50004034:	ebfff5a0 	bl	500016bc <dlist_each>
50004038:	e51b0008 	ldr	r0, [fp, #-8]
5000403c:	eb001113 	bl	50008490 <CPU_UNLOCK>
50004040:	e24bd004 	sub	sp, fp, #4
50004044:	e8bd8800 	pop	{fp, pc}

50004048 <semM_remove>:
50004048:	e92d4800 	push	{fp, lr}
5000404c:	e28db004 	add	fp, sp, #4
50004050:	e24dd010 	sub	sp, sp, #16
50004054:	e50b0010 	str	r0, [fp, #-16]
50004058:	e50b1014 	str	r1, [fp, #-20]
5000405c:	eb001102 	bl	5000846c <CPU_LOCK>
50004060:	e50b0008 	str	r0, [fp, #-8]
50004064:	e51b3010 	ldr	r3, [fp, #-16]
50004068:	e2833014 	add	r3, r3, #20
5000406c:	e1a00003 	mov	r0, r3
50004070:	e51b1014 	ldr	r1, [fp, #-20]
50004074:	ebfff519 	bl	500014e0 <dlist_remove>
50004078:	e51b0010 	ldr	r0, [fp, #-16]
5000407c:	ebffffa9 	bl	50003f28 <_update_wait_pri>
50004080:	e51b0008 	ldr	r0, [fp, #-8]
50004084:	eb001101 	bl	50008490 <CPU_UNLOCK>
50004088:	e3a03000 	mov	r3, #0
5000408c:	e1a00003 	mov	r0, r3
50004090:	e24bd004 	sub	sp, fp, #4
50004094:	e8bd8800 	pop	{fp, pc}

50004098 <_check_owner>:
50004098:	e52db004 	push	{fp}		; (str fp, [sp, #-4]!)
5000409c:	e28db000 	add	fp, sp, #0
500040a0:	e24dd00c 	sub	sp, sp, #12
500040a4:	e50b0008 	str	r0, [fp, #-8]
500040a8:	e50b100c 	str	r1, [fp, #-12]
500040ac:	e51b3008 	ldr	r3, [fp, #-8]
500040b0:	e5932008 	ldr	r2, [r3, #8]
500040b4:	e3073878 	movw	r3, #30840	; 0x7878
500040b8:	e3453001 	movt	r3, #20481	; 0x5001
500040bc:	e5933000 	ldr	r3, [r3]
500040c0:	e1520003 	cmp	r2, r3
500040c4:	1a00000b 	bne	500040f8 <_check_owner+0x60>
500040c8:	e51b300c 	ldr	r3, [fp, #-12]
500040cc:	e5933000 	ldr	r3, [r3]
500040d0:	e1a02003 	mov	r2, r3
500040d4:	e51b3008 	ldr	r3, [fp, #-8]
500040d8:	e5933010 	ldr	r3, [r3, #16]
500040dc:	e1520003 	cmp	r2, r3
500040e0:	9a000004 	bls	500040f8 <_check_owner+0x60>
500040e4:	e51b3008 	ldr	r3, [fp, #-8]
500040e8:	e5933010 	ldr	r3, [r3, #16]
500040ec:	e1a02003 	mov	r2, r3
500040f0:	e51b300c 	ldr	r3, [fp, #-12]
500040f4:	e5832000 	str	r2, [r3]
500040f8:	e3a03000 	mov	r3, #0
500040fc:	e1a00003 	mov	r0, r3
50004100:	e24bd000 	sub	sp, fp, #0
50004104:	e49db004 	pop	{fp}		; (ldr fp, [sp], #4)
50004108:	e12fff1e 	bx	lr

5000410c <_get_highest_wait_pri>:
5000410c:	e92d4800 	push	{fp, lr}
50004110:	e28db004 	add	fp, sp, #4
50004114:	e24dd008 	sub	sp, sp, #8
50004118:	e3a030ff 	mov	r3, #255	; 0xff
5000411c:	e50b3008 	str	r3, [fp, #-8]
50004120:	e24b3008 	sub	r3, fp, #8
50004124:	e3070854 	movw	r0, #30804	; 0x7854
50004128:	e3450001 	movt	r0, #20481	; 0x5001
5000412c:	e3041098 	movw	r1, #16536	; 0x4098
50004130:	e3451000 	movt	r1, #20480	; 0x5000
50004134:	e1a02003 	mov	r2, r3
50004138:	ebfff55f 	bl	500016bc <dlist_each>
5000413c:	e51b3008 	ldr	r3, [fp, #-8]
50004140:	e1a00003 	mov	r0, r3
50004144:	e24bd004 	sub	sp, fp, #4
50004148:	e8bd8800 	pop	{fp, pc}

5000414c <_sort_pri_put>:
5000414c:	e92d4800 	push	{fp, lr}
50004150:	e28db004 	add	fp, sp, #4
50004154:	e24dd010 	sub	sp, sp, #16
50004158:	e50b0010 	str	r0, [fp, #-16]
5000415c:	e50b1014 	str	r1, [fp, #-20]
50004160:	e51b3010 	ldr	r3, [fp, #-16]
50004164:	e5933000 	ldr	r3, [r3]
50004168:	e3530000 	cmp	r3, #0
5000416c:	0a000006 	beq	5000418c <_sort_pri_put+0x40>
50004170:	e51b3010 	ldr	r3, [fp, #-16]
50004174:	e5933004 	ldr	r3, [r3, #4]
50004178:	e5932030 	ldr	r2, [r3, #48]	; 0x30
5000417c:	e51b3014 	ldr	r3, [fp, #-20]
50004180:	e5933030 	ldr	r3, [r3, #48]	; 0x30
50004184:	e1520003 	cmp	r2, r3
50004188:	2a000003 	bcs	5000419c <_sort_pri_put+0x50>
5000418c:	e51b0010 	ldr	r0, [fp, #-16]
50004190:	e51b1014 	ldr	r1, [fp, #-20]
50004194:	ebfff4c4 	bl	500014ac <dlist_add>
50004198:	ea000016 	b	500041f8 <_sort_pri_put+0xac>
5000419c:	e51b3010 	ldr	r3, [fp, #-16]
500041a0:	e5933000 	ldr	r3, [r3]
500041a4:	e50b3008 	str	r3, [fp, #-8]
500041a8:	ea000002 	b	500041b8 <_sort_pri_put+0x6c>
500041ac:	e51b3008 	ldr	r3, [fp, #-8]
500041b0:	e5933000 	ldr	r3, [r3]
500041b4:	e50b3008 	str	r3, [fp, #-8]
500041b8:	e51b3008 	ldr	r3, [fp, #-8]
500041bc:	e3530000 	cmp	r3, #0
500041c0:	0a000005 	beq	500041dc <_sort_pri_put+0x90>
500041c4:	e51b3008 	ldr	r3, [fp, #-8]
500041c8:	e5932030 	ldr	r2, [r3, #48]	; 0x30
500041cc:	e51b3014 	ldr	r3, [fp, #-20]
500041d0:	e5933030 	ldr	r3, [r3, #48]	; 0x30
500041d4:	e1520003 	cmp	r2, r3
500041d8:	3afffff3 	bcc	500041ac <_sort_pri_put+0x60>
500041dc:	e51b3008 	ldr	r3, [fp, #-8]
500041e0:	e5933004 	ldr	r3, [r3, #4]
500041e4:	e50b3008 	str	r3, [fp, #-8]
500041e8:	e51b0010 	ldr	r0, [fp, #-16]
500041ec:	e51b1008 	ldr	r1, [fp, #-8]
500041f0:	e51b2014 	ldr	r2, [fp, #-20]
500041f4:	ebfff483 	bl	50001408 <dlist_insert>
500041f8:	e24bd004 	sub	sp, fp, #4
500041fc:	e8bd8800 	pop	{fp, pc}

50004200 <_up_owner_pri>:
50004200:	e92d4800 	push	{fp, lr}
50004204:	e28db004 	add	fp, sp, #4
50004208:	e24dd010 	sub	sp, sp, #16
5000420c:	e50b0010 	str	r0, [fp, #-16]
50004210:	e50b1014 	str	r1, [fp, #-20]
50004214:	e51b3014 	ldr	r3, [fp, #-20]
50004218:	e5933008 	ldr	r3, [r3, #8]
5000421c:	e50b3008 	str	r3, [fp, #-8]
50004220:	e51b3010 	ldr	r3, [fp, #-16]
50004224:	e5932030 	ldr	r2, [r3, #48]	; 0x30
50004228:	e51b3008 	ldr	r3, [fp, #-8]
5000422c:	e5933030 	ldr	r3, [r3, #48]	; 0x30
50004230:	e1520003 	cmp	r2, r3
50004234:	2a00001e 	bcs	500042b4 <_up_owner_pri+0xb4>
50004238:	e51b3008 	ldr	r3, [fp, #-8]
5000423c:	e593304c 	ldr	r3, [r3, #76]	; 0x4c
50004240:	e3530000 	cmp	r3, #0
50004244:	1a000008 	bne	5000426c <_up_owner_pri+0x6c>
50004248:	e51b0008 	ldr	r0, [fp, #-8]
5000424c:	ebfffb31 	bl	50002f18 <readyQ_remove>
50004250:	e51b3010 	ldr	r3, [fp, #-16]
50004254:	e5932030 	ldr	r2, [r3, #48]	; 0x30
50004258:	e51b3008 	ldr	r3, [fp, #-8]
5000425c:	e5832030 	str	r2, [r3, #48]	; 0x30
50004260:	e51b0008 	ldr	r0, [fp, #-8]
50004264:	ebfffae7 	bl	50002e08 <readyQ_put>
50004268:	ea000011 	b	500042b4 <_up_owner_pri+0xb4>
5000426c:	e51b3008 	ldr	r3, [fp, #-8]
50004270:	e593304c 	ldr	r3, [r3, #76]	; 0x4c
50004274:	e3530002 	cmp	r3, #2
50004278:	1a000009 	bne	500042a4 <_up_owner_pri+0xa4>
5000427c:	e51b3010 	ldr	r3, [fp, #-16]
50004280:	e5932030 	ldr	r2, [r3, #48]	; 0x30
50004284:	e51b3008 	ldr	r3, [fp, #-8]
50004288:	e5832030 	str	r2, [r3, #48]	; 0x30
5000428c:	e51b3008 	ldr	r3, [fp, #-8]
50004290:	e5933050 	ldr	r3, [r3, #80]	; 0x50
50004294:	e51b0008 	ldr	r0, [fp, #-8]
50004298:	e1a01003 	mov	r1, r3
5000429c:	ebffffd7 	bl	50004200 <_up_owner_pri>
500042a0:	ea000003 	b	500042b4 <_up_owner_pri+0xb4>
500042a4:	e51b3010 	ldr	r3, [fp, #-16]
500042a8:	e5932030 	ldr	r2, [r3, #48]	; 0x30
500042ac:	e51b3008 	ldr	r3, [fp, #-8]
500042b0:	e5832030 	str	r2, [r3, #48]	; 0x30
500042b4:	e51b3010 	ldr	r3, [fp, #-16]
500042b8:	e5932030 	ldr	r2, [r3, #48]	; 0x30
500042bc:	e51b3014 	ldr	r3, [fp, #-20]
500042c0:	e5933010 	ldr	r3, [r3, #16]
500042c4:	e1520003 	cmp	r2, r3
500042c8:	2a000003 	bcs	500042dc <_up_owner_pri+0xdc>
500042cc:	e51b3010 	ldr	r3, [fp, #-16]
500042d0:	e5932030 	ldr	r2, [r3, #48]	; 0x30
500042d4:	e51b3014 	ldr	r3, [fp, #-20]
500042d8:	e5832010 	str	r2, [r3, #16]
500042dc:	e24bd004 	sub	sp, fp, #4
500042e0:	e8bd8800 	pop	{fp, pc}

500042e4 <_each_wait_list>:
500042e4:	e92d4800 	push	{fp, lr}
500042e8:	e28db004 	add	fp, sp, #4
500042ec:	e24dd008 	sub	sp, sp, #8
500042f0:	e50b0008 	str	r0, [fp, #-8]
500042f4:	e50b100c 	str	r1, [fp, #-12]
500042f8:	e51b3008 	ldr	r3, [fp, #-8]
500042fc:	e2833014 	add	r3, r3, #20
50004300:	e1a00003 	mov	r0, r3
50004304:	e51b100c 	ldr	r1, [fp, #-12]
50004308:	e3a02000 	mov	r2, #0
5000430c:	ebfff4ea 	bl	500016bc <dlist_each>
50004310:	e3a03000 	mov	r3, #0
50004314:	e1a00003 	mov	r0, r3
50004318:	e24bd004 	sub	sp, fp, #4
5000431c:	e8bd8800 	pop	{fp, pc}

50004320 <semM_show>:
50004320:	e92d4800 	push	{fp, lr}
50004324:	e28db004 	add	fp, sp, #4
50004328:	e24dd008 	sub	sp, sp, #8
5000432c:	e50b0008 	str	r0, [fp, #-8]
50004330:	e51b3008 	ldr	r3, [fp, #-8]
50004334:	e3070854 	movw	r0, #30804	; 0x7854
50004338:	e3450001 	movt	r0, #20481	; 0x5001
5000433c:	e30412e4 	movw	r1, #17124	; 0x42e4
50004340:	e3451000 	movt	r1, #20480	; 0x5000
50004344:	e1a02003 	mov	r2, r3
50004348:	ebfff4db 	bl	500016bc <dlist_each>
5000434c:	e24bd004 	sub	sp, fp, #4
50004350:	e8bd8800 	pop	{fp, pc}

50004354 <_update_wait_list>:
50004354:	e92d4800 	push	{fp, lr}
50004358:	e28db004 	add	fp, sp, #4
5000435c:	e24dd008 	sub	sp, sp, #8
50004360:	e50b0008 	str	r0, [fp, #-8]
50004364:	e50b100c 	str	r1, [fp, #-12]
50004368:	e51b3008 	ldr	r3, [fp, #-8]
5000436c:	e2832014 	add	r2, r3, #20
50004370:	e51b3008 	ldr	r3, [fp, #-8]
50004374:	e2833014 	add	r3, r3, #20
50004378:	e1a00002 	mov	r0, r2
5000437c:	e30314c0 	movw	r1, #13504	; 0x34c0
50004380:	e3451000 	movt	r1, #20480	; 0x5000
50004384:	e1a02003 	mov	r2, r3
50004388:	ebfff4cb 	bl	500016bc <dlist_each>
5000438c:	e3a03000 	mov	r3, #0
50004390:	e1a00003 	mov	r0, r3
50004394:	e24bd004 	sub	sp, fp, #4
50004398:	e8bd8800 	pop	{fp, pc}

5000439c <semM_decrease>:
5000439c:	e92d4800 	push	{fp, lr}
500043a0:	e28db004 	add	fp, sp, #4
500043a4:	e3070854 	movw	r0, #30804	; 0x7854
500043a8:	e3450001 	movt	r0, #20481	; 0x5001
500043ac:	e3041354 	movw	r1, #17236	; 0x4354
500043b0:	e3451000 	movt	r1, #20480	; 0x5000
500043b4:	e3a02000 	mov	r2, #0
500043b8:	ebfff4bf 	bl	500016bc <dlist_each>
500043bc:	e8bd8800 	pop	{fp, pc}

500043c0 <_show_semM_info>:
500043c0:	e92d4830 	push	{r4, r5, fp, lr}
500043c4:	e28db00c 	add	fp, sp, #12
500043c8:	e24dd010 	sub	sp, sp, #16
500043cc:	e50b0010 	str	r0, [fp, #-16]
500043d0:	e50b1014 	str	r1, [fp, #-20]
500043d4:	e51b3010 	ldr	r3, [fp, #-16]
500043d8:	e5935008 	ldr	r5, [r3, #8]
500043dc:	e51b3010 	ldr	r3, [fp, #-16]
500043e0:	e5934010 	ldr	r4, [r3, #16]
500043e4:	e51b3010 	ldr	r3, [fp, #-16]
500043e8:	e2833014 	add	r3, r3, #20
500043ec:	e1a00003 	mov	r0, r3
500043f0:	ebfff47d 	bl	500015ec <dlist_count>
500043f4:	e1a03000 	mov	r3, r0
500043f8:	e58d3000 	str	r3, [sp]
500043fc:	e3050410 	movw	r0, #21520	; 0x5410
50004400:	e3450001 	movt	r0, #20481	; 0x5001
50004404:	e51b1010 	ldr	r1, [fp, #-16]
50004408:	e1a02005 	mov	r2, r5
5000440c:	e1a03004 	mov	r3, r4
50004410:	eb0000a7 	bl	500046b4 <serial_printf>
50004414:	e3a03000 	mov	r3, #0
50004418:	e1a00003 	mov	r0, r3
5000441c:	e24bd00c 	sub	sp, fp, #12
50004420:	e8bd8830 	pop	{r4, r5, fp, pc}

50004424 <m>:
50004424:	e92d4800 	push	{fp, lr}
50004428:	e28db004 	add	fp, sp, #4
5000442c:	e3070854 	movw	r0, #30804	; 0x7854
50004430:	e3450001 	movt	r0, #20481	; 0x5001
50004434:	e30413c0 	movw	r1, #17344	; 0x43c0
50004438:	e3451000 	movt	r1, #20480	; 0x5000
5000443c:	e3a02000 	mov	r2, #0
50004440:	ebfff49d 	bl	500016bc <dlist_each>
50004444:	e3a03000 	mov	r3, #0
50004448:	e1a00003 	mov	r0, r3
5000444c:	e8bd8800 	pop	{fp, pc}

50004450 <serial_init>:
50004450:	e92d4800 	push	{fp, lr}
50004454:	e28db004 	add	fp, sp, #4
50004458:	eb001181 	bl	50008a64 <uart_init>
5000445c:	e3a03000 	mov	r3, #0
50004460:	e1a00003 	mov	r0, r3
50004464:	e8bd8800 	pop	{fp, pc}

50004468 <serial_getc>:
50004468:	e92d4800 	push	{fp, lr}
5000446c:	e28db004 	add	fp, sp, #4
50004470:	e24dd008 	sub	sp, sp, #8
50004474:	ea000001 	b	50004480 <serial_getc+0x18>
50004478:	e3a00001 	mov	r0, #1
5000447c:	ebfff36b 	bl	50001230 <delayQ_delay>
50004480:	eb0011a1 	bl	50008b0c <uart_tstc>
50004484:	e1a03000 	mov	r3, r0
50004488:	e3530000 	cmp	r3, #0
5000448c:	0afffff9 	beq	50004478 <serial_getc+0x10>
50004490:	eb0011a7 	bl	50008b34 <uart_getc>
50004494:	e1a03000 	mov	r3, r0
50004498:	e54b3005 	strb	r3, [fp, #-5]
5000449c:	e15b30d5 	ldrsb	r3, [fp, #-5]
500044a0:	e1a00003 	mov	r0, r3
500044a4:	e24bd004 	sub	sp, fp, #4
500044a8:	e8bd8800 	pop	{fp, pc}

500044ac <serial_putc>:
500044ac:	e92d4800 	push	{fp, lr}
500044b0:	e28db004 	add	fp, sp, #4
500044b4:	e24dd008 	sub	sp, sp, #8
500044b8:	e1a03000 	mov	r3, r0
500044bc:	e54b3005 	strb	r3, [fp, #-5]
500044c0:	e15b30d5 	ldrsb	r3, [fp, #-5]
500044c4:	e1a00003 	mov	r0, r3
500044c8:	eb00116c 	bl	50008a80 <uart_putc>
500044cc:	e1a03000 	mov	r3, r0
500044d0:	e1a00003 	mov	r0, r3
500044d4:	e24bd004 	sub	sp, fp, #4
500044d8:	e8bd8800 	pop	{fp, pc}

500044dc <serial_tstc>:
500044dc:	e92d4800 	push	{fp, lr}
500044e0:	e28db004 	add	fp, sp, #4
500044e4:	eb001188 	bl	50008b0c <uart_tstc>
500044e8:	e1a03000 	mov	r3, r0
500044ec:	e1a00003 	mov	r0, r3
500044f0:	e8bd8800 	pop	{fp, pc}

500044f4 <serial_puts>:
500044f4:	e92d4800 	push	{fp, lr}
500044f8:	e28db004 	add	fp, sp, #4
500044fc:	e24dd010 	sub	sp, sp, #16
50004500:	e50b0010 	str	r0, [fp, #-16]
50004504:	e3a03000 	mov	r3, #0
50004508:	e50b3008 	str	r3, [fp, #-8]
5000450c:	ea000009 	b	50004538 <serial_puts+0x44>
50004510:	e51b3010 	ldr	r3, [fp, #-16]
50004514:	e2832001 	add	r2, r3, #1
50004518:	e50b2010 	str	r2, [fp, #-16]
5000451c:	e5d33000 	ldrb	r3, [r3]
50004520:	e6af3073 	sxtb	r3, r3
50004524:	e1a00003 	mov	r0, r3
50004528:	ebffffdf 	bl	500044ac <serial_putc>
5000452c:	e51b3008 	ldr	r3, [fp, #-8]
50004530:	e2833001 	add	r3, r3, #1
50004534:	e50b3008 	str	r3, [fp, #-8]
50004538:	e51b3010 	ldr	r3, [fp, #-16]
5000453c:	e5d33000 	ldrb	r3, [r3]
50004540:	e3530000 	cmp	r3, #0
50004544:	1afffff1 	bne	50004510 <serial_puts+0x1c>
50004548:	e51b3008 	ldr	r3, [fp, #-8]
5000454c:	e1a00003 	mov	r0, r3
50004550:	e24bd004 	sub	sp, fp, #4
50004554:	e8bd8800 	pop	{fp, pc}

50004558 <serial_pend>:
50004558:	e92d4800 	push	{fp, lr}
5000455c:	e28db004 	add	fp, sp, #4
50004560:	e24dd008 	sub	sp, sp, #8
50004564:	e50b0008 	str	r0, [fp, #-8]
50004568:	ea000007 	b	5000458c <serial_pend+0x34>
5000456c:	eb001166 	bl	50008b0c <uart_tstc>
50004570:	e1a03000 	mov	r3, r0
50004574:	e3530000 	cmp	r3, #0
50004578:	0a000001 	beq	50004584 <serial_pend+0x2c>
5000457c:	e3a03001 	mov	r3, #1
50004580:	ea000008 	b	500045a8 <serial_pend+0x50>
50004584:	e3a00001 	mov	r0, #1
50004588:	ebfff328 	bl	50001230 <delayQ_delay>
5000458c:	e51b3008 	ldr	r3, [fp, #-8]
50004590:	e2432001 	sub	r2, r3, #1
50004594:	e50b2008 	str	r2, [fp, #-8]
50004598:	e3530000 	cmp	r3, #0
5000459c:	1afffff2 	bne	5000456c <serial_pend+0x14>
500045a0:	eb001159 	bl	50008b0c <uart_tstc>
500045a4:	e1a03000 	mov	r3, r0
500045a8:	e1a00003 	mov	r0, r3
500045ac:	e24bd004 	sub	sp, fp, #4
500045b0:	e8bd8800 	pop	{fp, pc}

500045b4 <serial_read>:
500045b4:	e92d4810 	push	{r4, fp, lr}
500045b8:	e28db008 	add	fp, sp, #8
500045bc:	e24dd014 	sub	sp, sp, #20
500045c0:	e50b0018 	str	r0, [fp, #-24]
500045c4:	e50b101c 	str	r1, [fp, #-28]
500045c8:	e3a03000 	mov	r3, #0
500045cc:	e50b3010 	str	r3, [fp, #-16]
500045d0:	e3e00000 	mvn	r0, #0
500045d4:	ebffffdf 	bl	50004558 <serial_pend>
500045d8:	ea000009 	b	50004604 <serial_read+0x50>
500045dc:	e51b4018 	ldr	r4, [fp, #-24]
500045e0:	e2843001 	add	r3, r4, #1
500045e4:	e50b3018 	str	r3, [fp, #-24]
500045e8:	eb001151 	bl	50008b34 <uart_getc>
500045ec:	e1a03000 	mov	r3, r0
500045f0:	e6ef3073 	uxtb	r3, r3
500045f4:	e5c43000 	strb	r3, [r4]
500045f8:	e51b3010 	ldr	r3, [fp, #-16]
500045fc:	e2833001 	add	r3, r3, #1
50004600:	e50b3010 	str	r3, [fp, #-16]
50004604:	eb001140 	bl	50008b0c <uart_tstc>
50004608:	e1a03000 	mov	r3, r0
5000460c:	e3530000 	cmp	r3, #0
50004610:	0a000004 	beq	50004628 <serial_read+0x74>
50004614:	e51b301c 	ldr	r3, [fp, #-28]
50004618:	e2432001 	sub	r2, r3, #1
5000461c:	e50b201c 	str	r2, [fp, #-28]
50004620:	e3530000 	cmp	r3, #0
50004624:	1affffec 	bne	500045dc <serial_read+0x28>
50004628:	e51b3010 	ldr	r3, [fp, #-16]
5000462c:	e1a00003 	mov	r0, r3
50004630:	e24bd008 	sub	sp, fp, #8
50004634:	e8bd8810 	pop	{r4, fp, pc}

50004638 <serial_write>:
50004638:	e92d4800 	push	{fp, lr}
5000463c:	e28db004 	add	fp, sp, #4
50004640:	e24dd018 	sub	sp, sp, #24
50004644:	e50b0010 	str	r0, [fp, #-16]
50004648:	e50b1014 	str	r1, [fp, #-20]
5000464c:	e50b2018 	str	r2, [fp, #-24]
50004650:	e51b3014 	ldr	r3, [fp, #-20]
50004654:	e51b2018 	ldr	r2, [fp, #-24]
50004658:	e0030392 	mul	r3, r2, r3
5000465c:	e50b300c 	str	r3, [fp, #-12]
50004660:	e3a03000 	mov	r3, #0
50004664:	e50b3008 	str	r3, [fp, #-8]
50004668:	ea000009 	b	50004694 <serial_write+0x5c>
5000466c:	e51b3008 	ldr	r3, [fp, #-8]
50004670:	e51b2010 	ldr	r2, [fp, #-16]
50004674:	e0823003 	add	r3, r2, r3
50004678:	e5d33000 	ldrb	r3, [r3]
5000467c:	e6af3073 	sxtb	r3, r3
50004680:	e1a00003 	mov	r0, r3
50004684:	ebffff88 	bl	500044ac <serial_putc>
50004688:	e51b3008 	ldr	r3, [fp, #-8]
5000468c:	e2833001 	add	r3, r3, #1
50004690:	e50b3008 	str	r3, [fp, #-8]
50004694:	e51b2008 	ldr	r2, [fp, #-8]
50004698:	e51b300c 	ldr	r3, [fp, #-12]
5000469c:	e1520003 	cmp	r2, r3
500046a0:	bafffff1 	blt	5000466c <serial_write+0x34>
500046a4:	e51b3008 	ldr	r3, [fp, #-8]
500046a8:	e1a00003 	mov	r0, r3
500046ac:	e24bd004 	sub	sp, fp, #4
500046b0:	e8bd8800 	pop	{fp, pc}

500046b4 <serial_printf>:
500046b4:	e92d000f 	push	{r0, r1, r2, r3}
500046b8:	e92d4800 	push	{fp, lr}
500046bc:	e28db004 	add	fp, sp, #4
500046c0:	e24dd030 	sub	sp, sp, #48	; 0x30
500046c4:	e28b3008 	add	r3, fp, #8
500046c8:	e50b3020 	str	r3, [fp, #-32]
500046cc:	e3a03000 	mov	r3, #0
500046d0:	e50b3018 	str	r3, [fp, #-24]
500046d4:	e51b3018 	ldr	r3, [fp, #-24]
500046d8:	e50b301c 	str	r3, [fp, #-28]
500046dc:	ea00012c 	b	50004b94 <serial_printf+0x4e0>
500046e0:	e59b3004 	ldr	r3, [fp, #4]
500046e4:	e2832001 	add	r2, r3, #1
500046e8:	e58b2004 	str	r2, [fp, #4]
500046ec:	e5d33000 	ldrb	r3, [r3]
500046f0:	e54b3005 	strb	r3, [fp, #-5]
500046f4:	e55b3005 	ldrb	r3, [fp, #-5]
500046f8:	e3530000 	cmp	r3, #0
500046fc:	1a000000 	bne	50004704 <serial_printf+0x50>
50004700:	ea000126 	b	50004ba0 <serial_printf+0x4ec>
50004704:	e55b3005 	ldrb	r3, [fp, #-5]
50004708:	e3530025 	cmp	r3, #37	; 0x25
5000470c:	0a00000b 	beq	50004740 <serial_printf+0x8c>
50004710:	e55b3005 	ldrb	r3, [fp, #-5]
50004714:	e6af3073 	sxtb	r3, r3
50004718:	e1a00003 	mov	r0, r3
5000471c:	ebffff62 	bl	500044ac <serial_putc>
50004720:	e50b001c 	str	r0, [fp, #-28]
50004724:	e51b301c 	ldr	r3, [fp, #-28]
50004728:	e3730001 	cmn	r3, #1
5000472c:	0a000002 	beq	5000473c <serial_printf+0x88>
50004730:	e3a03001 	mov	r3, #1
50004734:	e50b301c 	str	r3, [fp, #-28]
50004738:	ea000111 	b	50004b84 <serial_printf+0x4d0>
5000473c:	ea000110 	b	50004b84 <serial_printf+0x4d0>
50004740:	e3a03000 	mov	r3, #0
50004744:	e54b3006 	strb	r3, [fp, #-6]
50004748:	e3a03000 	mov	r3, #0
5000474c:	e50b3014 	str	r3, [fp, #-20]
50004750:	e59b3004 	ldr	r3, [fp, #4]
50004754:	e2832001 	add	r2, r3, #1
50004758:	e58b2004 	str	r2, [fp, #4]
5000475c:	e5d33000 	ldrb	r3, [r3]
50004760:	e54b3005 	strb	r3, [fp, #-5]
50004764:	e55b3005 	ldrb	r3, [fp, #-5]
50004768:	e3530025 	cmp	r3, #37	; 0x25
5000476c:	1a000005 	bne	50004788 <serial_printf+0xd4>
50004770:	e55b3005 	ldrb	r3, [fp, #-5]
50004774:	e6af3073 	sxtb	r3, r3
50004778:	e1a00003 	mov	r0, r3
5000477c:	ebffff4a 	bl	500044ac <serial_putc>
50004780:	e50b001c 	str	r0, [fp, #-28]
50004784:	ea0000fe 	b	50004b84 <serial_printf+0x4d0>
50004788:	e55b3005 	ldrb	r3, [fp, #-5]
5000478c:	e3530030 	cmp	r3, #48	; 0x30
50004790:	1a000006 	bne	500047b0 <serial_printf+0xfc>
50004794:	e3a03001 	mov	r3, #1
50004798:	e54b3006 	strb	r3, [fp, #-6]
5000479c:	e59b3004 	ldr	r3, [fp, #4]
500047a0:	e2832001 	add	r2, r3, #1
500047a4:	e58b2004 	str	r2, [fp, #4]
500047a8:	e5d33000 	ldrb	r3, [r3]
500047ac:	e54b3005 	strb	r3, [fp, #-5]
500047b0:	e55b3005 	ldrb	r3, [fp, #-5]
500047b4:	e3530020 	cmp	r3, #32
500047b8:	1a000004 	bne	500047d0 <serial_printf+0x11c>
500047bc:	e59b3004 	ldr	r3, [fp, #4]
500047c0:	e2832001 	add	r2, r3, #1
500047c4:	e58b2004 	str	r2, [fp, #4]
500047c8:	e5d33000 	ldrb	r3, [r3]
500047cc:	e54b3005 	strb	r3, [fp, #-5]
500047d0:	ea00000c 	b	50004808 <serial_printf+0x154>
500047d4:	e51b3014 	ldr	r3, [fp, #-20]
500047d8:	e1a03083 	lsl	r3, r3, #1
500047dc:	e1a02103 	lsl	r2, r3, #2
500047e0:	e0832002 	add	r2, r3, r2
500047e4:	e55b3005 	ldrb	r3, [fp, #-5]
500047e8:	e2433030 	sub	r3, r3, #48	; 0x30
500047ec:	e0823003 	add	r3, r2, r3
500047f0:	e50b3014 	str	r3, [fp, #-20]
500047f4:	e59b3004 	ldr	r3, [fp, #4]
500047f8:	e2832001 	add	r2, r3, #1
500047fc:	e58b2004 	str	r2, [fp, #4]
50004800:	e5d33000 	ldrb	r3, [r3]
50004804:	e54b3005 	strb	r3, [fp, #-5]
50004808:	e55b3005 	ldrb	r3, [fp, #-5]
5000480c:	e353002f 	cmp	r3, #47	; 0x2f
50004810:	9a000002 	bls	50004820 <serial_printf+0x16c>
50004814:	e55b3005 	ldrb	r3, [fp, #-5]
50004818:	e3530039 	cmp	r3, #57	; 0x39
5000481c:	9affffec 	bls	500047d4 <serial_printf+0x120>
50004820:	e55b3005 	ldrb	r3, [fp, #-5]
50004824:	e353006c 	cmp	r3, #108	; 0x6c
50004828:	1a000012 	bne	50004878 <serial_printf+0x1c4>
5000482c:	e55b3006 	ldrb	r3, [fp, #-6]
50004830:	e3833002 	orr	r3, r3, #2
50004834:	e54b3006 	strb	r3, [fp, #-6]
50004838:	e59b3004 	ldr	r3, [fp, #4]
5000483c:	e2832001 	add	r2, r3, #1
50004840:	e58b2004 	str	r2, [fp, #4]
50004844:	e5d33000 	ldrb	r3, [r3]
50004848:	e54b3005 	strb	r3, [fp, #-5]
5000484c:	e55b3005 	ldrb	r3, [fp, #-5]
50004850:	e353006c 	cmp	r3, #108	; 0x6c
50004854:	1a000007 	bne	50004878 <serial_printf+0x1c4>
50004858:	e55b3006 	ldrb	r3, [fp, #-6]
5000485c:	e3833008 	orr	r3, r3, #8
50004860:	e54b3006 	strb	r3, [fp, #-6]
50004864:	e59b3004 	ldr	r3, [fp, #4]
50004868:	e2832001 	add	r2, r3, #1
5000486c:	e58b2004 	str	r2, [fp, #4]
50004870:	e5d33000 	ldrb	r3, [r3]
50004874:	e54b3005 	strb	r3, [fp, #-5]
50004878:	e55b3005 	ldrb	r3, [fp, #-5]
5000487c:	e3530073 	cmp	r3, #115	; 0x73
50004880:	1a000007 	bne	500048a4 <serial_printf+0x1f0>
50004884:	e51b3020 	ldr	r3, [fp, #-32]
50004888:	e2832004 	add	r2, r3, #4
5000488c:	e50b2020 	str	r2, [fp, #-32]
50004890:	e5933000 	ldr	r3, [r3]
50004894:	e1a00003 	mov	r0, r3
50004898:	ebffff15 	bl	500044f4 <serial_puts>
5000489c:	e50b001c 	str	r0, [fp, #-28]
500048a0:	ea0000b7 	b	50004b84 <serial_printf+0x4d0>
500048a4:	e55b3005 	ldrb	r3, [fp, #-5]
500048a8:	e3530063 	cmp	r3, #99	; 0x63
500048ac:	1a00000f 	bne	500048f0 <serial_printf+0x23c>
500048b0:	e51b3020 	ldr	r3, [fp, #-32]
500048b4:	e2832004 	add	r2, r3, #4
500048b8:	e50b2020 	str	r2, [fp, #-32]
500048bc:	e5933000 	ldr	r3, [r3]
500048c0:	e6ef3073 	uxtb	r3, r3
500048c4:	e6af3073 	sxtb	r3, r3
500048c8:	e1a00003 	mov	r0, r3
500048cc:	ebfffef6 	bl	500044ac <serial_putc>
500048d0:	e50b001c 	str	r0, [fp, #-28]
500048d4:	e51b301c 	ldr	r3, [fp, #-28]
500048d8:	e3730001 	cmn	r3, #1
500048dc:	0a000002 	beq	500048ec <serial_printf+0x238>
500048e0:	e3a03001 	mov	r3, #1
500048e4:	e50b301c 	str	r3, [fp, #-28]
500048e8:	ea0000a5 	b	50004b84 <serial_printf+0x4d0>
500048ec:	ea0000a4 	b	50004b84 <serial_printf+0x4d0>
500048f0:	e3a03000 	mov	r3, #0
500048f4:	e54b3007 	strb	r3, [fp, #-7]
500048f8:	e55b3005 	ldrb	r3, [fp, #-5]
500048fc:	e3530064 	cmp	r3, #100	; 0x64
50004900:	1a000001 	bne	5000490c <serial_printf+0x258>
50004904:	e3a0300a 	mov	r3, #10
50004908:	e54b3007 	strb	r3, [fp, #-7]
5000490c:	e55b3005 	ldrb	r3, [fp, #-5]
50004910:	e3530075 	cmp	r3, #117	; 0x75
50004914:	1a000001 	bne	50004920 <serial_printf+0x26c>
50004918:	e3a0300a 	mov	r3, #10
5000491c:	e54b3007 	strb	r3, [fp, #-7]
50004920:	e55b3005 	ldrb	r3, [fp, #-5]
50004924:	e3530058 	cmp	r3, #88	; 0x58
50004928:	0a000005 	beq	50004944 <serial_printf+0x290>
5000492c:	e55b3005 	ldrb	r3, [fp, #-5]
50004930:	e3530078 	cmp	r3, #120	; 0x78
50004934:	0a000002 	beq	50004944 <serial_printf+0x290>
50004938:	e55b3005 	ldrb	r3, [fp, #-5]
5000493c:	e3530070 	cmp	r3, #112	; 0x70
50004940:	1a000001 	bne	5000494c <serial_printf+0x298>
50004944:	e3a03010 	mov	r3, #16
50004948:	e54b3007 	strb	r3, [fp, #-7]
5000494c:	e55b3007 	ldrb	r3, [fp, #-7]
50004950:	e3530000 	cmp	r3, #0
50004954:	1a000000 	bne	5000495c <serial_printf+0x2a8>
50004958:	ea000090 	b	50004ba0 <serial_printf+0x4ec>
5000495c:	e55b3006 	ldrb	r3, [fp, #-6]
50004960:	e2033008 	and	r3, r3, #8
50004964:	e3530000 	cmp	r3, #0
50004968:	0a000008 	beq	50004990 <serial_printf+0x2dc>
5000496c:	e51b3020 	ldr	r3, [fp, #-32]
50004970:	e2833007 	add	r3, r3, #7
50004974:	e3c33007 	bic	r3, r3, #7
50004978:	e2832008 	add	r2, r3, #8
5000497c:	e50b2020 	str	r2, [fp, #-32]
50004980:	e1c320d0 	ldrd	r2, [r3]
50004984:	e1a03002 	mov	r3, r2
50004988:	e50b300c 	str	r3, [fp, #-12]
5000498c:	ea000016 	b	500049ec <serial_printf+0x338>
50004990:	e55b3006 	ldrb	r3, [fp, #-6]
50004994:	e2033002 	and	r3, r3, #2
50004998:	e3530000 	cmp	r3, #0
5000499c:	0a000005 	beq	500049b8 <serial_printf+0x304>
500049a0:	e51b3020 	ldr	r3, [fp, #-32]
500049a4:	e2832004 	add	r2, r3, #4
500049a8:	e50b2020 	str	r2, [fp, #-32]
500049ac:	e5933000 	ldr	r3, [r3]
500049b0:	e50b300c 	str	r3, [fp, #-12]
500049b4:	ea00000c 	b	500049ec <serial_printf+0x338>
500049b8:	e55b3005 	ldrb	r3, [fp, #-5]
500049bc:	e3530064 	cmp	r3, #100	; 0x64
500049c0:	1a000004 	bne	500049d8 <serial_printf+0x324>
500049c4:	e51b3020 	ldr	r3, [fp, #-32]
500049c8:	e2832004 	add	r2, r3, #4
500049cc:	e50b2020 	str	r2, [fp, #-32]
500049d0:	e5933000 	ldr	r3, [r3]
500049d4:	ea000003 	b	500049e8 <serial_printf+0x334>
500049d8:	e51b3020 	ldr	r3, [fp, #-32]
500049dc:	e2832004 	add	r2, r3, #4
500049e0:	e50b2020 	str	r2, [fp, #-32]
500049e4:	e5933000 	ldr	r3, [r3]
500049e8:	e50b300c 	str	r3, [fp, #-12]
500049ec:	e55b3005 	ldrb	r3, [fp, #-5]
500049f0:	e3530064 	cmp	r3, #100	; 0x64
500049f4:	1a000008 	bne	50004a1c <serial_printf+0x368>
500049f8:	e51b300c 	ldr	r3, [fp, #-12]
500049fc:	e3530000 	cmp	r3, #0
50004a00:	aa000005 	bge	50004a1c <serial_printf+0x368>
50004a04:	e51b300c 	ldr	r3, [fp, #-12]
50004a08:	e2633000 	rsb	r3, r3, #0
50004a0c:	e50b300c 	str	r3, [fp, #-12]
50004a10:	e55b3006 	ldrb	r3, [fp, #-6]
50004a14:	e3833004 	orr	r3, r3, #4
50004a18:	e54b3006 	strb	r3, [fp, #-6]
50004a1c:	e3a0300f 	mov	r3, #15
50004a20:	e50b3010 	str	r3, [fp, #-16]
50004a24:	e24b2030 	sub	r2, fp, #48	; 0x30
50004a28:	e51b3010 	ldr	r3, [fp, #-16]
50004a2c:	e0823003 	add	r3, r2, r3
50004a30:	e3a02000 	mov	r2, #0
50004a34:	e5c32000 	strb	r2, [r3]
50004a38:	e55b3007 	ldrb	r3, [fp, #-7]
50004a3c:	e51b200c 	ldr	r2, [fp, #-12]
50004a40:	e1a00002 	mov	r0, r2
50004a44:	e1a01003 	mov	r1, r3
50004a48:	eb004052 	bl	50014b98 <__aeabi_uidivmod>
50004a4c:	e1a03001 	mov	r3, r1
50004a50:	e6ef3073 	uxtb	r3, r3
50004a54:	e2833030 	add	r3, r3, #48	; 0x30
50004a58:	e54b3005 	strb	r3, [fp, #-5]
50004a5c:	e55b3005 	ldrb	r3, [fp, #-5]
50004a60:	e3530039 	cmp	r3, #57	; 0x39
50004a64:	9a000002 	bls	50004a74 <serial_printf+0x3c0>
50004a68:	e55b3005 	ldrb	r3, [fp, #-5]
50004a6c:	e2833007 	add	r3, r3, #7
50004a70:	e54b3005 	strb	r3, [fp, #-5]
50004a74:	e51b3010 	ldr	r3, [fp, #-16]
50004a78:	e2433001 	sub	r3, r3, #1
50004a7c:	e50b3010 	str	r3, [fp, #-16]
50004a80:	e55b1005 	ldrb	r1, [fp, #-5]
50004a84:	e24b2030 	sub	r2, fp, #48	; 0x30
50004a88:	e51b3010 	ldr	r3, [fp, #-16]
50004a8c:	e0823003 	add	r3, r2, r3
50004a90:	e1a02001 	mov	r2, r1
50004a94:	e5c32000 	strb	r2, [r3]
50004a98:	e55b3007 	ldrb	r3, [fp, #-7]
50004a9c:	e51b000c 	ldr	r0, [fp, #-12]
50004aa0:	e1a01003 	mov	r1, r3
50004aa4:	eb003fc0 	bl	500149ac <__aeabi_uidiv>
50004aa8:	e1a03000 	mov	r3, r0
50004aac:	e50b300c 	str	r3, [fp, #-12]
50004ab0:	e51b3010 	ldr	r3, [fp, #-16]
50004ab4:	e3530000 	cmp	r3, #0
50004ab8:	0a000002 	beq	50004ac8 <serial_printf+0x414>
50004abc:	e51b300c 	ldr	r3, [fp, #-12]
50004ac0:	e3530000 	cmp	r3, #0
50004ac4:	1affffdb 	bne	50004a38 <serial_printf+0x384>
50004ac8:	e51b3010 	ldr	r3, [fp, #-16]
50004acc:	e3530000 	cmp	r3, #0
50004ad0:	0a00000b 	beq	50004b04 <serial_printf+0x450>
50004ad4:	e55b3006 	ldrb	r3, [fp, #-6]
50004ad8:	e2033004 	and	r3, r3, #4
50004adc:	e3530000 	cmp	r3, #0
50004ae0:	0a000007 	beq	50004b04 <serial_printf+0x450>
50004ae4:	e51b3010 	ldr	r3, [fp, #-16]
50004ae8:	e2433001 	sub	r3, r3, #1
50004aec:	e50b3010 	str	r3, [fp, #-16]
50004af0:	e24b2030 	sub	r2, fp, #48	; 0x30
50004af4:	e51b3010 	ldr	r3, [fp, #-16]
50004af8:	e0823003 	add	r3, r2, r3
50004afc:	e3a0202d 	mov	r2, #45	; 0x2d
50004b00:	e5c32000 	strb	r2, [r3]
50004b04:	e51b3014 	ldr	r3, [fp, #-20]
50004b08:	e263300f 	rsb	r3, r3, #15
50004b0c:	e50b3014 	str	r3, [fp, #-20]
50004b10:	ea00000e 	b	50004b50 <serial_printf+0x49c>
50004b14:	e51b3010 	ldr	r3, [fp, #-16]
50004b18:	e2433001 	sub	r3, r3, #1
50004b1c:	e50b3010 	str	r3, [fp, #-16]
50004b20:	e55b3006 	ldrb	r3, [fp, #-6]
50004b24:	e2033001 	and	r3, r3, #1
50004b28:	e3530000 	cmp	r3, #0
50004b2c:	0a000001 	beq	50004b38 <serial_printf+0x484>
50004b30:	e3a01030 	mov	r1, #48	; 0x30
50004b34:	ea000000 	b	50004b3c <serial_printf+0x488>
50004b38:	e3a01020 	mov	r1, #32
50004b3c:	e24b2030 	sub	r2, fp, #48	; 0x30
50004b40:	e51b3010 	ldr	r3, [fp, #-16]
50004b44:	e0823003 	add	r3, r2, r3
50004b48:	e1a02001 	mov	r2, r1
50004b4c:	e5c32000 	strb	r2, [r3]
50004b50:	e51b3010 	ldr	r3, [fp, #-16]
50004b54:	e3530000 	cmp	r3, #0
50004b58:	0a000003 	beq	50004b6c <serial_printf+0x4b8>
50004b5c:	e51b2010 	ldr	r2, [fp, #-16]
50004b60:	e51b3014 	ldr	r3, [fp, #-20]
50004b64:	e1520003 	cmp	r2, r3
50004b68:	caffffe9 	bgt	50004b14 <serial_printf+0x460>
50004b6c:	e24b2030 	sub	r2, fp, #48	; 0x30
50004b70:	e51b3010 	ldr	r3, [fp, #-16]
50004b74:	e0823003 	add	r3, r2, r3
50004b78:	e1a00003 	mov	r0, r3
50004b7c:	ebfffe5c 	bl	500044f4 <serial_puts>
50004b80:	e50b001c 	str	r0, [fp, #-28]
50004b84:	e51b2018 	ldr	r2, [fp, #-24]
50004b88:	e51b301c 	ldr	r3, [fp, #-28]
50004b8c:	e0823003 	add	r3, r2, r3
50004b90:	e50b3018 	str	r3, [fp, #-24]
50004b94:	e51b301c 	ldr	r3, [fp, #-28]
50004b98:	e3730001 	cmn	r3, #1
50004b9c:	1afffecf 	bne	500046e0 <serial_printf+0x2c>
50004ba0:	e51b301c 	ldr	r3, [fp, #-28]
50004ba4:	e3730001 	cmn	r3, #1
50004ba8:	1a000001 	bne	50004bb4 <serial_printf+0x500>
50004bac:	e51b301c 	ldr	r3, [fp, #-28]
50004bb0:	ea000000 	b	50004bb8 <serial_printf+0x504>
50004bb4:	e51b3018 	ldr	r3, [fp, #-24]
50004bb8:	e1a00003 	mov	r0, r3
50004bbc:	e24bd004 	sub	sp, fp, #4
50004bc0:	e8bd4800 	pop	{fp, lr}
50004bc4:	e28dd010 	add	sp, sp, #16
50004bc8:	e12fff1e 	bx	lr

50004bcc <strcpy>:
50004bcc:	e92d0810 	push	{r4, fp}
50004bd0:	e28db004 	add	fp, sp, #4
50004bd4:	e24dd008 	sub	sp, sp, #8
50004bd8:	e50b0008 	str	r0, [fp, #-8]
50004bdc:	e50b100c 	str	r1, [fp, #-12]
50004be0:	e51b4008 	ldr	r4, [fp, #-8]
50004be4:	e1a00000 	nop			; (mov r0, r0)
50004be8:	e1a03004 	mov	r3, r4
50004bec:	e2834001 	add	r4, r3, #1
50004bf0:	e51b200c 	ldr	r2, [fp, #-12]
50004bf4:	e2821001 	add	r1, r2, #1
50004bf8:	e50b100c 	str	r1, [fp, #-12]
50004bfc:	e5d22000 	ldrb	r2, [r2]
50004c00:	e5c32000 	strb	r2, [r3]
50004c04:	e5d33000 	ldrb	r3, [r3]
50004c08:	e3530000 	cmp	r3, #0
50004c0c:	1afffff5 	bne	50004be8 <strcpy+0x1c>
50004c10:	e51b3008 	ldr	r3, [fp, #-8]
50004c14:	e1a00003 	mov	r0, r3
50004c18:	e24bd004 	sub	sp, fp, #4
50004c1c:	e8bd0810 	pop	{r4, fp}
50004c20:	e12fff1e 	bx	lr

50004c24 <strncpy>:
50004c24:	e92d0810 	push	{r4, fp}
50004c28:	e28db004 	add	fp, sp, #4
50004c2c:	e24dd010 	sub	sp, sp, #16
50004c30:	e50b0008 	str	r0, [fp, #-8]
50004c34:	e50b100c 	str	r1, [fp, #-12]
50004c38:	e50b2010 	str	r2, [fp, #-16]
50004c3c:	e51b4008 	ldr	r4, [fp, #-8]
50004c40:	e51b3010 	ldr	r3, [fp, #-16]
50004c44:	e3530000 	cmp	r3, #0
50004c48:	0a00001d 	beq	50004cc4 <strncpy+0xa0>
50004c4c:	ea000007 	b	50004c70 <strncpy+0x4c>
50004c50:	e51b3010 	ldr	r3, [fp, #-16]
50004c54:	e2433001 	sub	r3, r3, #1
50004c58:	e50b3010 	str	r3, [fp, #-16]
50004c5c:	e51b3010 	ldr	r3, [fp, #-16]
50004c60:	e3530000 	cmp	r3, #0
50004c64:	1a000001 	bne	50004c70 <strncpy+0x4c>
50004c68:	e51b3008 	ldr	r3, [fp, #-8]
50004c6c:	ea000015 	b	50004cc8 <strncpy+0xa4>
50004c70:	e1a03004 	mov	r3, r4
50004c74:	e2834001 	add	r4, r3, #1
50004c78:	e51b200c 	ldr	r2, [fp, #-12]
50004c7c:	e2821001 	add	r1, r2, #1
50004c80:	e50b100c 	str	r1, [fp, #-12]
50004c84:	e5d22000 	ldrb	r2, [r2]
50004c88:	e5c32000 	strb	r2, [r3]
50004c8c:	e5d33000 	ldrb	r3, [r3]
50004c90:	e3530000 	cmp	r3, #0
50004c94:	1affffed 	bne	50004c50 <strncpy+0x2c>
50004c98:	ea000003 	b	50004cac <strncpy+0x88>
50004c9c:	e1a03004 	mov	r3, r4
50004ca0:	e2834001 	add	r4, r3, #1
50004ca4:	e3a02000 	mov	r2, #0
50004ca8:	e5c32000 	strb	r2, [r3]
50004cac:	e51b3010 	ldr	r3, [fp, #-16]
50004cb0:	e2433001 	sub	r3, r3, #1
50004cb4:	e50b3010 	str	r3, [fp, #-16]
50004cb8:	e51b3010 	ldr	r3, [fp, #-16]
50004cbc:	e3530000 	cmp	r3, #0
50004cc0:	1afffff5 	bne	50004c9c <strncpy+0x78>
50004cc4:	e51b3008 	ldr	r3, [fp, #-8]
50004cc8:	e1a00003 	mov	r0, r3
50004ccc:	e24bd004 	sub	sp, fp, #4
50004cd0:	e8bd0810 	pop	{r4, fp}
50004cd4:	e12fff1e 	bx	lr

50004cd8 <strlcpy>:
50004cd8:	e92d0810 	push	{r4, fp}
50004cdc:	e28db004 	add	fp, sp, #4
50004ce0:	e24dd010 	sub	sp, sp, #16
50004ce4:	e50b0008 	str	r0, [fp, #-8]
50004ce8:	e50b100c 	str	r1, [fp, #-12]
50004cec:	e50b2010 	str	r2, [fp, #-16]
50004cf0:	e51b400c 	ldr	r4, [fp, #-12]
50004cf4:	e51b3010 	ldr	r3, [fp, #-16]
50004cf8:	e3530000 	cmp	r3, #0
50004cfc:	0a000013 	beq	50004d50 <strlcpy+0x78>
50004d00:	ea000009 	b	50004d2c <strlcpy+0x54>
50004d04:	e51b3008 	ldr	r3, [fp, #-8]
50004d08:	e2832001 	add	r2, r3, #1
50004d0c:	e50b2008 	str	r2, [fp, #-8]
50004d10:	e1a02004 	mov	r2, r4
50004d14:	e2824001 	add	r4, r2, #1
50004d18:	e5d22000 	ldrb	r2, [r2]
50004d1c:	e5c32000 	strb	r2, [r3]
50004d20:	e51b3010 	ldr	r3, [fp, #-16]
50004d24:	e2433001 	sub	r3, r3, #1
50004d28:	e50b3010 	str	r3, [fp, #-16]
50004d2c:	e5d43000 	ldrb	r3, [r4]
50004d30:	e3530000 	cmp	r3, #0
50004d34:	0a000002 	beq	50004d44 <strlcpy+0x6c>
50004d38:	e51b3010 	ldr	r3, [fp, #-16]
50004d3c:	e3530001 	cmp	r3, #1
50004d40:	8affffef 	bhi	50004d04 <strlcpy+0x2c>
50004d44:	e51b3008 	ldr	r3, [fp, #-8]
50004d48:	e3a02000 	mov	r2, #0
50004d4c:	e5c32000 	strb	r2, [r3]
50004d50:	ea000000 	b	50004d58 <strlcpy+0x80>
50004d54:	e2844001 	add	r4, r4, #1
50004d58:	e5d43000 	ldrb	r3, [r4]
50004d5c:	e3530000 	cmp	r3, #0
50004d60:	1afffffb 	bne	50004d54 <strlcpy+0x7c>
50004d64:	e1a02004 	mov	r2, r4
50004d68:	e51b300c 	ldr	r3, [fp, #-12]
50004d6c:	e0633002 	rsb	r3, r3, r2
50004d70:	e1a00003 	mov	r0, r3
50004d74:	e24bd004 	sub	sp, fp, #4
50004d78:	e8bd0810 	pop	{r4, fp}
50004d7c:	e12fff1e 	bx	lr

50004d80 <strcmp>:
50004d80:	e52db004 	push	{fp}		; (str fp, [sp, #-4]!)
50004d84:	e28db000 	add	fp, sp, #0
50004d88:	e24dd00c 	sub	sp, sp, #12
50004d8c:	e50b0008 	str	r0, [fp, #-8]
50004d90:	e50b100c 	str	r1, [fp, #-12]
50004d94:	ea00000e 	b	50004dd4 <strcmp+0x54>
50004d98:	e51b3008 	ldr	r3, [fp, #-8]
50004d9c:	e5d32000 	ldrb	r2, [r3]
50004da0:	e51b300c 	ldr	r3, [fp, #-12]
50004da4:	e5d33000 	ldrb	r3, [r3]
50004da8:	e6af2072 	sxtb	r2, r2
50004dac:	e6af3073 	sxtb	r3, r3
50004db0:	e1520003 	cmp	r2, r3
50004db4:	0a000000 	beq	50004dbc <strcmp+0x3c>
50004db8:	ea00000d 	b	50004df4 <strcmp+0x74>
50004dbc:	e51b3008 	ldr	r3, [fp, #-8]
50004dc0:	e2833001 	add	r3, r3, #1
50004dc4:	e50b3008 	str	r3, [fp, #-8]
50004dc8:	e51b300c 	ldr	r3, [fp, #-12]
50004dcc:	e2833001 	add	r3, r3, #1
50004dd0:	e50b300c 	str	r3, [fp, #-12]
50004dd4:	e51b3008 	ldr	r3, [fp, #-8]
50004dd8:	e5d33000 	ldrb	r3, [r3]
50004ddc:	e3530000 	cmp	r3, #0
50004de0:	0a000003 	beq	50004df4 <strcmp+0x74>
50004de4:	e51b300c 	ldr	r3, [fp, #-12]
50004de8:	e5d33000 	ldrb	r3, [r3]
50004dec:	e3530000 	cmp	r3, #0
50004df0:	1affffe8 	bne	50004d98 <strcmp+0x18>
50004df4:	e51b3008 	ldr	r3, [fp, #-8]
50004df8:	e5d33000 	ldrb	r3, [r3]
50004dfc:	e6af2073 	sxtb	r2, r3
50004e00:	e51b300c 	ldr	r3, [fp, #-12]
50004e04:	e5d33000 	ldrb	r3, [r3]
50004e08:	e6af3073 	sxtb	r3, r3
50004e0c:	e0633002 	rsb	r3, r3, r2
50004e10:	e1a00003 	mov	r0, r3
50004e14:	e24bd000 	sub	sp, fp, #0
50004e18:	e49db004 	pop	{fp}		; (ldr fp, [sp], #4)
50004e1c:	e12fff1e 	bx	lr

50004e20 <strncmp>:
50004e20:	e52db004 	push	{fp}		; (str fp, [sp, #-4]!)
50004e24:	e28db000 	add	fp, sp, #0
50004e28:	e24dd014 	sub	sp, sp, #20
50004e2c:	e50b0008 	str	r0, [fp, #-8]
50004e30:	e50b100c 	str	r1, [fp, #-12]
50004e34:	e50b2010 	str	r2, [fp, #-16]
50004e38:	e51b3010 	ldr	r3, [fp, #-16]
50004e3c:	e3530000 	cmp	r3, #0
50004e40:	1a000001 	bne	50004e4c <strncmp+0x2c>
50004e44:	e3a03000 	mov	r3, #0
50004e48:	ea000023 	b	50004edc <strncmp+0xbc>
50004e4c:	ea00000c 	b	50004e84 <strncmp+0x64>
50004e50:	e51b3008 	ldr	r3, [fp, #-8]
50004e54:	e2433001 	sub	r3, r3, #1
50004e58:	e5d33000 	ldrb	r3, [r3]
50004e5c:	e3530000 	cmp	r3, #0
50004e60:	0a000005 	beq	50004e7c <strncmp+0x5c>
50004e64:	e51b3010 	ldr	r3, [fp, #-16]
50004e68:	e2433001 	sub	r3, r3, #1
50004e6c:	e50b3010 	str	r3, [fp, #-16]
50004e70:	e51b3010 	ldr	r3, [fp, #-16]
50004e74:	e3530000 	cmp	r3, #0
50004e78:	1a000001 	bne	50004e84 <strncmp+0x64>
50004e7c:	e3a03000 	mov	r3, #0
50004e80:	ea000015 	b	50004edc <strncmp+0xbc>
50004e84:	e51b3008 	ldr	r3, [fp, #-8]
50004e88:	e2832001 	add	r2, r3, #1
50004e8c:	e50b2008 	str	r2, [fp, #-8]
50004e90:	e5d31000 	ldrb	r1, [r3]
50004e94:	e51b300c 	ldr	r3, [fp, #-12]
50004e98:	e2832001 	add	r2, r3, #1
50004e9c:	e50b200c 	str	r2, [fp, #-12]
50004ea0:	e5d33000 	ldrb	r3, [r3]
50004ea4:	e6af2071 	sxtb	r2, r1
50004ea8:	e6af3073 	sxtb	r3, r3
50004eac:	e1520003 	cmp	r2, r3
50004eb0:	0affffe6 	beq	50004e50 <strncmp+0x30>
50004eb4:	e51b3008 	ldr	r3, [fp, #-8]
50004eb8:	e2433001 	sub	r3, r3, #1
50004ebc:	e5d33000 	ldrb	r3, [r3]
50004ec0:	e6ef3073 	uxtb	r3, r3
50004ec4:	e1a02003 	mov	r2, r3
50004ec8:	e51b300c 	ldr	r3, [fp, #-12]
50004ecc:	e2433001 	sub	r3, r3, #1
50004ed0:	e5d33000 	ldrb	r3, [r3]
50004ed4:	e6ef3073 	uxtb	r3, r3
50004ed8:	e0633002 	rsb	r3, r3, r2
50004edc:	e1a00003 	mov	r0, r3
50004ee0:	e24bd000 	sub	sp, fp, #0
50004ee4:	e49db004 	pop	{fp}		; (ldr fp, [sp], #4)
50004ee8:	e12fff1e 	bx	lr

50004eec <strncasecmp>:
50004eec:	e92d4810 	push	{r4, fp, lr}
50004ef0:	e28db008 	add	fp, sp, #8
50004ef4:	e24dd01c 	sub	sp, sp, #28
50004ef8:	e50b0018 	str	r0, [fp, #-24]
50004efc:	e50b101c 	str	r1, [fp, #-28]
50004f00:	e50b2020 	str	r2, [fp, #-32]
50004f04:	e3a03000 	mov	r3, #0
50004f08:	e50b3010 	str	r3, [fp, #-16]
50004f0c:	ea000008 	b	50004f34 <strncasecmp+0x48>
50004f10:	e51b3018 	ldr	r3, [fp, #-24]
50004f14:	e2833001 	add	r3, r3, #1
50004f18:	e50b3018 	str	r3, [fp, #-24]
50004f1c:	e51b301c 	ldr	r3, [fp, #-28]
50004f20:	e2833001 	add	r3, r3, #1
50004f24:	e50b301c 	str	r3, [fp, #-28]
50004f28:	e51b3020 	ldr	r3, [fp, #-32]
50004f2c:	e2433001 	sub	r3, r3, #1
50004f30:	e50b3020 	str	r3, [fp, #-32]
50004f34:	e51b3020 	ldr	r3, [fp, #-32]
50004f38:	e3530000 	cmp	r3, #0
50004f3c:	0a000014 	beq	50004f94 <strncasecmp+0xa8>
50004f40:	e51b3018 	ldr	r3, [fp, #-24]
50004f44:	e5d33000 	ldrb	r3, [r3]
50004f48:	e6ef3073 	uxtb	r3, r3
50004f4c:	e1a00003 	mov	r0, r3
50004f50:	eb0001ec 	bl	50005708 <tolower>
50004f54:	e1a04000 	mov	r4, r0
50004f58:	e51b301c 	ldr	r3, [fp, #-28]
50004f5c:	e5d33000 	ldrb	r3, [r3]
50004f60:	e6ef3073 	uxtb	r3, r3
50004f64:	e1a00003 	mov	r0, r3
50004f68:	eb0001e6 	bl	50005708 <tolower>
50004f6c:	e1a03000 	mov	r3, r0
50004f70:	e0633004 	rsb	r3, r3, r4
50004f74:	e50b3010 	str	r3, [fp, #-16]
50004f78:	e51b3010 	ldr	r3, [fp, #-16]
50004f7c:	e3530000 	cmp	r3, #0
50004f80:	1a000003 	bne	50004f94 <strncasecmp+0xa8>
50004f84:	e51b3018 	ldr	r3, [fp, #-24]
50004f88:	e5d33000 	ldrb	r3, [r3]
50004f8c:	e3530000 	cmp	r3, #0
50004f90:	1affffde 	bne	50004f10 <strncasecmp+0x24>
50004f94:	e51b3010 	ldr	r3, [fp, #-16]
50004f98:	e1a00003 	mov	r0, r3
50004f9c:	e24bd008 	sub	sp, fp, #8
50004fa0:	e8bd8810 	pop	{r4, fp, pc}

50004fa4 <strlen>:
50004fa4:	e92d0810 	push	{r4, fp}
50004fa8:	e28db004 	add	fp, sp, #4
50004fac:	e24dd008 	sub	sp, sp, #8
50004fb0:	e50b0008 	str	r0, [fp, #-8]
50004fb4:	e51b4008 	ldr	r4, [fp, #-8]
50004fb8:	ea000000 	b	50004fc0 <strlen+0x1c>
50004fbc:	e2844001 	add	r4, r4, #1
50004fc0:	e5d43000 	ldrb	r3, [r4]
50004fc4:	e3530000 	cmp	r3, #0
50004fc8:	1afffffb 	bne	50004fbc <strlen+0x18>
50004fcc:	e1a02004 	mov	r2, r4
50004fd0:	e51b3008 	ldr	r3, [fp, #-8]
50004fd4:	e0633002 	rsb	r3, r3, r2
50004fd8:	e1a00003 	mov	r0, r3
50004fdc:	e24bd004 	sub	sp, fp, #4
50004fe0:	e8bd0810 	pop	{r4, fp}
50004fe4:	e12fff1e 	bx	lr

50004fe8 <strcat>:
50004fe8:	e92d0810 	push	{r4, fp}
50004fec:	e28db004 	add	fp, sp, #4
50004ff0:	e24dd008 	sub	sp, sp, #8
50004ff4:	e50b0008 	str	r0, [fp, #-8]
50004ff8:	e50b100c 	str	r1, [fp, #-12]
50004ffc:	e51b4008 	ldr	r4, [fp, #-8]
50005000:	e1a00000 	nop			; (mov r0, r0)
50005004:	e1a03004 	mov	r3, r4
50005008:	e2834001 	add	r4, r3, #1
5000500c:	e5d33000 	ldrb	r3, [r3]
50005010:	e3530000 	cmp	r3, #0
50005014:	1afffffa 	bne	50005004 <strcat+0x1c>
50005018:	e2444001 	sub	r4, r4, #1
5000501c:	e1a00000 	nop			; (mov r0, r0)
50005020:	e1a03004 	mov	r3, r4
50005024:	e2834001 	add	r4, r3, #1
50005028:	e51b200c 	ldr	r2, [fp, #-12]
5000502c:	e2821001 	add	r1, r2, #1
50005030:	e50b100c 	str	r1, [fp, #-12]
50005034:	e5d22000 	ldrb	r2, [r2]
50005038:	e5c32000 	strb	r2, [r3]
5000503c:	e5d33000 	ldrb	r3, [r3]
50005040:	e3530000 	cmp	r3, #0
50005044:	1afffff5 	bne	50005020 <strcat+0x38>
50005048:	e51b3008 	ldr	r3, [fp, #-8]
5000504c:	e1a00003 	mov	r0, r3
50005050:	e24bd004 	sub	sp, fp, #4
50005054:	e8bd0810 	pop	{r4, fp}
50005058:	e12fff1e 	bx	lr

5000505c <strncat>:
5000505c:	e52db004 	push	{fp}		; (str fp, [sp, #-4]!)
50005060:	e28db000 	add	fp, sp, #0
50005064:	e24dd01c 	sub	sp, sp, #28
50005068:	e50b0010 	str	r0, [fp, #-16]
5000506c:	e50b1014 	str	r1, [fp, #-20]
50005070:	e50b2018 	str	r2, [fp, #-24]
50005074:	e51b3010 	ldr	r3, [fp, #-16]
50005078:	e50b3008 	str	r3, [fp, #-8]
5000507c:	e1a00000 	nop			; (mov r0, r0)
50005080:	e51b3008 	ldr	r3, [fp, #-8]
50005084:	e2832001 	add	r2, r3, #1
50005088:	e50b2008 	str	r2, [fp, #-8]
5000508c:	e5d33000 	ldrb	r3, [r3]
50005090:	e3530000 	cmp	r3, #0
50005094:	1afffff9 	bne	50005080 <strncat+0x24>
50005098:	e51b3008 	ldr	r3, [fp, #-8]
5000509c:	e2433001 	sub	r3, r3, #1
500050a0:	e50b3008 	str	r3, [fp, #-8]
500050a4:	ea000009 	b	500050d0 <strncat+0x74>
500050a8:	e51b3018 	ldr	r3, [fp, #-24]
500050ac:	e2433001 	sub	r3, r3, #1
500050b0:	e50b3018 	str	r3, [fp, #-24]
500050b4:	e51b3018 	ldr	r3, [fp, #-24]
500050b8:	e3530000 	cmp	r3, #0
500050bc:	1a000003 	bne	500050d0 <strncat+0x74>
500050c0:	e51b3008 	ldr	r3, [fp, #-8]
500050c4:	e3a02000 	mov	r2, #0
500050c8:	e5c32000 	strb	r2, [r3]
500050cc:	ea00000a 	b	500050fc <strncat+0xa0>
500050d0:	e51b3008 	ldr	r3, [fp, #-8]
500050d4:	e2832001 	add	r2, r3, #1
500050d8:	e50b2008 	str	r2, [fp, #-8]
500050dc:	e51b2014 	ldr	r2, [fp, #-20]
500050e0:	e2821001 	add	r1, r2, #1
500050e4:	e50b1014 	str	r1, [fp, #-20]
500050e8:	e5d22000 	ldrb	r2, [r2]
500050ec:	e5c32000 	strb	r2, [r3]
500050f0:	e5d33000 	ldrb	r3, [r3]
500050f4:	e3530000 	cmp	r3, #0
500050f8:	1affffea 	bne	500050a8 <strncat+0x4c>
500050fc:	e51b3010 	ldr	r3, [fp, #-16]
50005100:	e1a00003 	mov	r0, r3
50005104:	e24bd000 	sub	sp, fp, #0
50005108:	e49db004 	pop	{fp}		; (ldr fp, [sp], #4)
5000510c:	e12fff1e 	bx	lr

50005110 <strchr>:
50005110:	e52db004 	push	{fp}		; (str fp, [sp, #-4]!)
50005114:	e28db000 	add	fp, sp, #0
50005118:	e24dd00c 	sub	sp, sp, #12
5000511c:	e50b0008 	str	r0, [fp, #-8]
50005120:	e50b100c 	str	r1, [fp, #-12]
50005124:	ea000007 	b	50005148 <strchr+0x38>
50005128:	e51b3008 	ldr	r3, [fp, #-8]
5000512c:	e2832001 	add	r2, r3, #1
50005130:	e50b2008 	str	r2, [fp, #-8]
50005134:	e5d33000 	ldrb	r3, [r3]
50005138:	e3530000 	cmp	r3, #0
5000513c:	1a000001 	bne	50005148 <strchr+0x38>
50005140:	e3a03000 	mov	r3, #0
50005144:	ea000008 	b	5000516c <strchr+0x5c>
50005148:	e51b3008 	ldr	r3, [fp, #-8]
5000514c:	e5d32000 	ldrb	r2, [r3]
50005150:	e51b300c 	ldr	r3, [fp, #-12]
50005154:	e6ef3073 	uxtb	r3, r3
50005158:	e6af2072 	sxtb	r2, r2
5000515c:	e6af3073 	sxtb	r3, r3
50005160:	e1520003 	cmp	r2, r3
50005164:	1affffef 	bne	50005128 <strchr+0x18>
50005168:	e51b3008 	ldr	r3, [fp, #-8]
5000516c:	e1a00003 	mov	r0, r3
50005170:	e24bd000 	sub	sp, fp, #0
50005174:	e49db004 	pop	{fp}		; (ldr fp, [sp], #4)
50005178:	e12fff1e 	bx	lr

5000517c <strrchr>:
5000517c:	e52db004 	push	{fp}		; (str fp, [sp, #-4]!)
50005180:	e28db000 	add	fp, sp, #0
50005184:	e24dd014 	sub	sp, sp, #20
50005188:	e50b0010 	str	r0, [fp, #-16]
5000518c:	e50b1014 	str	r1, [fp, #-20]
50005190:	e3a03000 	mov	r3, #0
50005194:	e50b3008 	str	r3, [fp, #-8]
50005198:	e51b3010 	ldr	r3, [fp, #-16]
5000519c:	e5d32000 	ldrb	r2, [r3]
500051a0:	e51b3014 	ldr	r3, [fp, #-20]
500051a4:	e6ef3073 	uxtb	r3, r3
500051a8:	e6af2072 	sxtb	r2, r2
500051ac:	e6af3073 	sxtb	r3, r3
500051b0:	e1520003 	cmp	r2, r3
500051b4:	1a000001 	bne	500051c0 <strrchr+0x44>
500051b8:	e51b3010 	ldr	r3, [fp, #-16]
500051bc:	e50b3008 	str	r3, [fp, #-8]
500051c0:	e51b3010 	ldr	r3, [fp, #-16]
500051c4:	e2832001 	add	r2, r3, #1
500051c8:	e50b2010 	str	r2, [fp, #-16]
500051cc:	e5d33000 	ldrb	r3, [r3]
500051d0:	e3530000 	cmp	r3, #0
500051d4:	1affffef 	bne	50005198 <strrchr+0x1c>
500051d8:	e51b3008 	ldr	r3, [fp, #-8]
500051dc:	e1a00003 	mov	r0, r3
500051e0:	e24bd000 	sub	sp, fp, #0
500051e4:	e49db004 	pop	{fp}		; (ldr fp, [sp], #4)
500051e8:	e12fff1e 	bx	lr

500051ec <memchr>:
500051ec:	e52db004 	push	{fp}		; (str fp, [sp, #-4]!)
500051f0:	e28db000 	add	fp, sp, #0
500051f4:	e24dd01c 	sub	sp, sp, #28
500051f8:	e50b0010 	str	r0, [fp, #-16]
500051fc:	e50b1014 	str	r1, [fp, #-20]
50005200:	e50b2018 	str	r2, [fp, #-24]
50005204:	e51b3010 	ldr	r3, [fp, #-16]
50005208:	e50b3008 	str	r3, [fp, #-8]
5000520c:	e51b3018 	ldr	r3, [fp, #-24]
50005210:	e3530000 	cmp	r3, #0
50005214:	0a000010 	beq	5000525c <memchr+0x70>
50005218:	e51b3008 	ldr	r3, [fp, #-8]
5000521c:	e2832001 	add	r2, r3, #1
50005220:	e50b2008 	str	r2, [fp, #-8]
50005224:	e5d32000 	ldrb	r2, [r3]
50005228:	e51b3014 	ldr	r3, [fp, #-20]
5000522c:	e6ef3073 	uxtb	r3, r3
50005230:	e1520003 	cmp	r2, r3
50005234:	1a000002 	bne	50005244 <memchr+0x58>
50005238:	e51b3008 	ldr	r3, [fp, #-8]
5000523c:	e2433001 	sub	r3, r3, #1
50005240:	ea000006 	b	50005260 <memchr+0x74>
50005244:	e51b3018 	ldr	r3, [fp, #-24]
50005248:	e2433001 	sub	r3, r3, #1
5000524c:	e50b3018 	str	r3, [fp, #-24]
50005250:	e51b3018 	ldr	r3, [fp, #-24]
50005254:	e3530000 	cmp	r3, #0
50005258:	1affffee 	bne	50005218 <memchr+0x2c>
5000525c:	e3a03000 	mov	r3, #0
50005260:	e1a00003 	mov	r0, r3
50005264:	e24bd000 	sub	sp, fp, #0
50005268:	e49db004 	pop	{fp}		; (ldr fp, [sp], #4)
5000526c:	e12fff1e 	bx	lr

50005270 <memrchr>:
50005270:	e92d0810 	push	{r4, fp}
50005274:	e28db004 	add	fp, sp, #4
50005278:	e24dd010 	sub	sp, sp, #16
5000527c:	e50b0008 	str	r0, [fp, #-8]
50005280:	e50b100c 	str	r1, [fp, #-12]
50005284:	e50b2010 	str	r2, [fp, #-16]
50005288:	e51b4008 	ldr	r4, [fp, #-8]
5000528c:	e51b3010 	ldr	r3, [fp, #-16]
50005290:	e2433001 	sub	r3, r3, #1
50005294:	e0844003 	add	r4, r4, r3
50005298:	ea000007 	b	500052bc <memrchr+0x4c>
5000529c:	e5d43000 	ldrb	r3, [r4]
500052a0:	e6af2073 	sxtb	r2, r3
500052a4:	e51b300c 	ldr	r3, [fp, #-12]
500052a8:	e1520003 	cmp	r2, r3
500052ac:	1a000001 	bne	500052b8 <memrchr+0x48>
500052b0:	e1a03004 	mov	r3, r4
500052b4:	ea000004 	b	500052cc <memrchr+0x5c>
500052b8:	e2444001 	sub	r4, r4, #1
500052bc:	e51b3008 	ldr	r3, [fp, #-8]
500052c0:	e1540003 	cmp	r4, r3
500052c4:	2afffff4 	bcs	5000529c <memrchr+0x2c>
500052c8:	e3a03000 	mov	r3, #0
500052cc:	e1a00003 	mov	r0, r3
500052d0:	e24bd004 	sub	sp, fp, #4
500052d4:	e8bd0810 	pop	{r4, fp}
500052d8:	e12fff1e 	bx	lr

500052dc <bcopy>:
500052dc:	e92d0870 	push	{r4, r5, r6, fp}
500052e0:	e28db00c 	add	fp, sp, #12
500052e4:	e24dd018 	sub	sp, sp, #24
500052e8:	e50b0018 	str	r0, [fp, #-24]
500052ec:	e50b101c 	str	r1, [fp, #-28]
500052f0:	e50b2020 	str	r2, [fp, #-32]
500052f4:	e51b201c 	ldr	r2, [fp, #-28]
500052f8:	e51b3018 	ldr	r3, [fp, #-24]
500052fc:	e0633002 	rsb	r3, r3, r2
50005300:	e50b3010 	str	r3, [fp, #-16]
50005304:	e51b3010 	ldr	r3, [fp, #-16]
50005308:	e3530000 	cmp	r3, #0
5000530c:	da000003 	ble	50005320 <bcopy+0x44>
50005310:	e51b2010 	ldr	r2, [fp, #-16]
50005314:	e51b3020 	ldr	r3, [fp, #-32]
50005318:	e1520003 	cmp	r2, r3
5000531c:	ba000032 	blt	500053ec <bcopy+0x110>
50005320:	e51b3020 	ldr	r3, [fp, #-32]
50005324:	e51b201c 	ldr	r2, [fp, #-28]
50005328:	e0826003 	add	r6, r2, r3
5000532c:	e51b3020 	ldr	r3, [fp, #-32]
50005330:	e3530009 	cmp	r3, #9
50005334:	da00001f 	ble	500053b8 <bcopy+0xdc>
50005338:	e51b201c 	ldr	r2, [fp, #-28]
5000533c:	e51b3018 	ldr	r3, [fp, #-24]
50005340:	e0233002 	eor	r3, r3, r2
50005344:	e2033003 	and	r3, r3, #3
50005348:	e3530000 	cmp	r3, #0
5000534c:	1a000019 	bne	500053b8 <bcopy+0xdc>
50005350:	ea000007 	b	50005374 <bcopy+0x98>
50005354:	e51b301c 	ldr	r3, [fp, #-28]
50005358:	e2832001 	add	r2, r3, #1
5000535c:	e50b201c 	str	r2, [fp, #-28]
50005360:	e51b2018 	ldr	r2, [fp, #-24]
50005364:	e2821001 	add	r1, r2, #1
50005368:	e50b1018 	str	r1, [fp, #-24]
5000536c:	e5d22000 	ldrb	r2, [r2]
50005370:	e5c32000 	strb	r2, [r3]
50005374:	e51b301c 	ldr	r3, [fp, #-28]
50005378:	e2033003 	and	r3, r3, #3
5000537c:	e3530000 	cmp	r3, #0
50005380:	1afffff3 	bne	50005354 <bcopy+0x78>
50005384:	e51b5018 	ldr	r5, [fp, #-24]
50005388:	e51b401c 	ldr	r4, [fp, #-28]
5000538c:	e1a03004 	mov	r3, r4
50005390:	e2834004 	add	r4, r3, #4
50005394:	e1a02005 	mov	r2, r5
50005398:	e2825004 	add	r5, r2, #4
5000539c:	e5922000 	ldr	r2, [r2]
500053a0:	e5832000 	str	r2, [r3]
500053a4:	e2843004 	add	r3, r4, #4
500053a8:	e1530006 	cmp	r3, r6
500053ac:	9afffff6 	bls	5000538c <bcopy+0xb0>
500053b0:	e50b401c 	str	r4, [fp, #-28]
500053b4:	e50b5018 	str	r5, [fp, #-24]
500053b8:	ea000007 	b	500053dc <bcopy+0x100>
500053bc:	e51b301c 	ldr	r3, [fp, #-28]
500053c0:	e2832001 	add	r2, r3, #1
500053c4:	e50b201c 	str	r2, [fp, #-28]
500053c8:	e51b2018 	ldr	r2, [fp, #-24]
500053cc:	e2821001 	add	r1, r2, #1
500053d0:	e50b1018 	str	r1, [fp, #-24]
500053d4:	e5d22000 	ldrb	r2, [r2]
500053d8:	e5c32000 	strb	r2, [r3]
500053dc:	e51b301c 	ldr	r3, [fp, #-28]
500053e0:	e1530006 	cmp	r3, r6
500053e4:	3afffff4 	bcc	500053bc <bcopy+0xe0>
500053e8:	ea000039 	b	500054d4 <bcopy+0x1f8>
500053ec:	e51b601c 	ldr	r6, [fp, #-28]
500053f0:	e51b3020 	ldr	r3, [fp, #-32]
500053f4:	e51b201c 	ldr	r2, [fp, #-28]
500053f8:	e0823003 	add	r3, r2, r3
500053fc:	e50b301c 	str	r3, [fp, #-28]
50005400:	e51b3020 	ldr	r3, [fp, #-32]
50005404:	e51b2018 	ldr	r2, [fp, #-24]
50005408:	e0823003 	add	r3, r2, r3
5000540c:	e50b3018 	str	r3, [fp, #-24]
50005410:	e51b3020 	ldr	r3, [fp, #-32]
50005414:	e3530009 	cmp	r3, #9
50005418:	da00001f 	ble	5000549c <bcopy+0x1c0>
5000541c:	e51b201c 	ldr	r2, [fp, #-28]
50005420:	e51b3018 	ldr	r3, [fp, #-24]
50005424:	e0233002 	eor	r3, r3, r2
50005428:	e2033003 	and	r3, r3, #3
5000542c:	e3530000 	cmp	r3, #0
50005430:	1a000019 	bne	5000549c <bcopy+0x1c0>
50005434:	ea000009 	b	50005460 <bcopy+0x184>
50005438:	e51b301c 	ldr	r3, [fp, #-28]
5000543c:	e2433001 	sub	r3, r3, #1
50005440:	e50b301c 	str	r3, [fp, #-28]
50005444:	e51b3018 	ldr	r3, [fp, #-24]
50005448:	e2433001 	sub	r3, r3, #1
5000544c:	e50b3018 	str	r3, [fp, #-24]
50005450:	e51b3018 	ldr	r3, [fp, #-24]
50005454:	e5d32000 	ldrb	r2, [r3]
50005458:	e51b301c 	ldr	r3, [fp, #-28]
5000545c:	e5c32000 	strb	r2, [r3]
50005460:	e51b301c 	ldr	r3, [fp, #-28]
50005464:	e2033003 	and	r3, r3, #3
50005468:	e3530000 	cmp	r3, #0
5000546c:	1afffff1 	bne	50005438 <bcopy+0x15c>
50005470:	e51b5018 	ldr	r5, [fp, #-24]
50005474:	e51b401c 	ldr	r4, [fp, #-28]
50005478:	e2444004 	sub	r4, r4, #4
5000547c:	e2455004 	sub	r5, r5, #4
50005480:	e5953000 	ldr	r3, [r5]
50005484:	e5843000 	str	r3, [r4]
50005488:	e2443004 	sub	r3, r4, #4
5000548c:	e1530006 	cmp	r3, r6
50005490:	2afffff8 	bcs	50005478 <bcopy+0x19c>
50005494:	e50b401c 	str	r4, [fp, #-28]
50005498:	e50b5018 	str	r5, [fp, #-24]
5000549c:	ea000009 	b	500054c8 <bcopy+0x1ec>
500054a0:	e51b301c 	ldr	r3, [fp, #-28]
500054a4:	e2433001 	sub	r3, r3, #1
500054a8:	e50b301c 	str	r3, [fp, #-28]
500054ac:	e51b3018 	ldr	r3, [fp, #-24]
500054b0:	e2433001 	sub	r3, r3, #1
500054b4:	e50b3018 	str	r3, [fp, #-24]
500054b8:	e51b3018 	ldr	r3, [fp, #-24]
500054bc:	e5d32000 	ldrb	r2, [r3]
500054c0:	e51b301c 	ldr	r3, [fp, #-28]
500054c4:	e5c32000 	strb	r2, [r3]
500054c8:	e51b301c 	ldr	r3, [fp, #-28]
500054cc:	e1530006 	cmp	r3, r6
500054d0:	8afffff2 	bhi	500054a0 <bcopy+0x1c4>
500054d4:	e24bd00c 	sub	sp, fp, #12
500054d8:	e8bd0870 	pop	{r4, r5, r6, fp}
500054dc:	e12fff1e 	bx	lr

500054e0 <memcpy>:
500054e0:	e92d4800 	push	{fp, lr}
500054e4:	e28db004 	add	fp, sp, #4
500054e8:	e24dd010 	sub	sp, sp, #16
500054ec:	e50b0008 	str	r0, [fp, #-8]
500054f0:	e50b100c 	str	r1, [fp, #-12]
500054f4:	e50b2010 	str	r2, [fp, #-16]
500054f8:	e51b3010 	ldr	r3, [fp, #-16]
500054fc:	e51b000c 	ldr	r0, [fp, #-12]
50005500:	e51b1008 	ldr	r1, [fp, #-8]
50005504:	e1a02003 	mov	r2, r3
50005508:	ebffff73 	bl	500052dc <bcopy>
5000550c:	e51b3008 	ldr	r3, [fp, #-8]
50005510:	e1a00003 	mov	r0, r3
50005514:	e24bd004 	sub	sp, fp, #4
50005518:	e8bd8800 	pop	{fp, pc}

5000551c <memmove>:
5000551c:	e92d4800 	push	{fp, lr}
50005520:	e28db004 	add	fp, sp, #4
50005524:	e24dd010 	sub	sp, sp, #16
50005528:	e50b0008 	str	r0, [fp, #-8]
5000552c:	e50b100c 	str	r1, [fp, #-12]
50005530:	e50b2010 	str	r2, [fp, #-16]
50005534:	e51b3010 	ldr	r3, [fp, #-16]
50005538:	e51b000c 	ldr	r0, [fp, #-12]
5000553c:	e51b1008 	ldr	r1, [fp, #-8]
50005540:	e1a02003 	mov	r2, r3
50005544:	ebffff64 	bl	500052dc <bcopy>
50005548:	e51b3008 	ldr	r3, [fp, #-8]
5000554c:	e1a00003 	mov	r0, r3
50005550:	e24bd004 	sub	sp, fp, #4
50005554:	e8bd8800 	pop	{fp, pc}

50005558 <bfill>:
50005558:	e92d0870 	push	{r4, r5, r6, fp}
5000555c:	e28db00c 	add	fp, sp, #12
50005560:	e24dd010 	sub	sp, sp, #16
50005564:	e1a03000 	mov	r3, r0
50005568:	e50b1018 	str	r1, [fp, #-24]
5000556c:	e51b1018 	ldr	r1, [fp, #-24]
50005570:	e0831001 	add	r1, r3, r1
50005574:	e50b1010 	str	r1, [fp, #-16]
50005578:	e51b1018 	ldr	r1, [fp, #-24]
5000557c:	e3510009 	cmp	r1, #9
50005580:	ca000000 	bgt	50005588 <bfill+0x30>
50005584:	ea000017 	b	500055e8 <bfill+0x90>
50005588:	e1a00c02 	lsl	r0, r2, #24
5000558c:	e1a01802 	lsl	r1, r2, #16
50005590:	e1800001 	orr	r0, r0, r1
50005594:	e1a01402 	lsl	r1, r2, #8
50005598:	e1801001 	orr	r1, r0, r1
5000559c:	e1816002 	orr	r6, r1, r2
500055a0:	ea000003 	b	500055b4 <bfill+0x5c>
500055a4:	e1a01003 	mov	r1, r3
500055a8:	e2813001 	add	r3, r1, #1
500055ac:	e6ef0072 	uxtb	r0, r2
500055b0:	e5c10000 	strb	r0, [r1]
500055b4:	e1a01003 	mov	r1, r3
500055b8:	e2011003 	and	r1, r1, #3
500055bc:	e3510000 	cmp	r1, #0
500055c0:	1afffff7 	bne	500055a4 <bfill+0x4c>
500055c4:	e51b1010 	ldr	r1, [fp, #-16]
500055c8:	e2415004 	sub	r5, r1, #4
500055cc:	e1a04003 	mov	r4, r3
500055d0:	e1a03004 	mov	r3, r4
500055d4:	e2834004 	add	r4, r3, #4
500055d8:	e5836000 	str	r6, [r3]
500055dc:	e1540005 	cmp	r4, r5
500055e0:	3afffffa 	bcc	500055d0 <bfill+0x78>
500055e4:	e2443004 	sub	r3, r4, #4
500055e8:	ea000003 	b	500055fc <bfill+0xa4>
500055ec:	e1a01003 	mov	r1, r3
500055f0:	e2813001 	add	r3, r1, #1
500055f4:	e6ef0072 	uxtb	r0, r2
500055f8:	e5c10000 	strb	r0, [r1]
500055fc:	e51b1010 	ldr	r1, [fp, #-16]
50005600:	e1530001 	cmp	r3, r1
50005604:	3afffff8 	bcc	500055ec <bfill+0x94>
50005608:	e24bd00c 	sub	sp, fp, #12
5000560c:	e8bd0870 	pop	{r4, r5, r6, fp}
50005610:	e12fff1e 	bx	lr

50005614 <memset>:
50005614:	e92d4800 	push	{fp, lr}
50005618:	e28db004 	add	fp, sp, #4
5000561c:	e24dd010 	sub	sp, sp, #16
50005620:	e50b0008 	str	r0, [fp, #-8]
50005624:	e50b100c 	str	r1, [fp, #-12]
50005628:	e50b2010 	str	r2, [fp, #-16]
5000562c:	e51b3010 	ldr	r3, [fp, #-16]
50005630:	e51b0008 	ldr	r0, [fp, #-8]
50005634:	e1a01003 	mov	r1, r3
50005638:	e51b200c 	ldr	r2, [fp, #-12]
5000563c:	ebffffc5 	bl	50005558 <bfill>
50005640:	e51b3008 	ldr	r3, [fp, #-8]
50005644:	e1a00003 	mov	r0, r3
50005648:	e24bd004 	sub	sp, fp, #4
5000564c:	e8bd8800 	pop	{fp, pc}

50005650 <memcmp>:
50005650:	e52db004 	push	{fp}		; (str fp, [sp, #-4]!)
50005654:	e28db000 	add	fp, sp, #0
50005658:	e24dd01c 	sub	sp, sp, #28
5000565c:	e50b0010 	str	r0, [fp, #-16]
50005660:	e50b1014 	str	r1, [fp, #-20]
50005664:	e50b2018 	str	r2, [fp, #-24]
50005668:	e51b3010 	ldr	r3, [fp, #-16]
5000566c:	e50b3008 	str	r3, [fp, #-8]
50005670:	e51b3014 	ldr	r3, [fp, #-20]
50005674:	e50b300c 	str	r3, [fp, #-12]
50005678:	e51b3018 	ldr	r3, [fp, #-24]
5000567c:	e3530000 	cmp	r3, #0
50005680:	1a000001 	bne	5000568c <memcmp+0x3c>
50005684:	e3a03000 	mov	r3, #0
50005688:	ea00001a 	b	500056f8 <memcmp+0xa8>
5000568c:	ea000007 	b	500056b0 <memcmp+0x60>
50005690:	e51b3018 	ldr	r3, [fp, #-24]
50005694:	e2433001 	sub	r3, r3, #1
50005698:	e50b3018 	str	r3, [fp, #-24]
5000569c:	e51b3018 	ldr	r3, [fp, #-24]
500056a0:	e3530000 	cmp	r3, #0
500056a4:	1a000001 	bne	500056b0 <memcmp+0x60>
500056a8:	e3a03000 	mov	r3, #0
500056ac:	ea000011 	b	500056f8 <memcmp+0xa8>
500056b0:	e51b3008 	ldr	r3, [fp, #-8]
500056b4:	e2832001 	add	r2, r3, #1
500056b8:	e50b2008 	str	r2, [fp, #-8]
500056bc:	e5d32000 	ldrb	r2, [r3]
500056c0:	e51b300c 	ldr	r3, [fp, #-12]
500056c4:	e2831001 	add	r1, r3, #1
500056c8:	e50b100c 	str	r1, [fp, #-12]
500056cc:	e5d33000 	ldrb	r3, [r3]
500056d0:	e1520003 	cmp	r2, r3
500056d4:	0affffed 	beq	50005690 <memcmp+0x40>
500056d8:	e51b3008 	ldr	r3, [fp, #-8]
500056dc:	e2433001 	sub	r3, r3, #1
500056e0:	e5d33000 	ldrb	r3, [r3]
500056e4:	e1a02003 	mov	r2, r3
500056e8:	e51b300c 	ldr	r3, [fp, #-12]
500056ec:	e2433001 	sub	r3, r3, #1
500056f0:	e5d33000 	ldrb	r3, [r3]
500056f4:	e0633002 	rsb	r3, r3, r2
500056f8:	e1a00003 	mov	r0, r3
500056fc:	e24bd000 	sub	sp, fp, #0
50005700:	e49db004 	pop	{fp}		; (ldr fp, [sp], #4)
50005704:	e12fff1e 	bx	lr

50005708 <tolower>:
50005708:	e52db004 	push	{fp}		; (str fp, [sp, #-4]!)
5000570c:	e28db000 	add	fp, sp, #0
50005710:	e24dd00c 	sub	sp, sp, #12
50005714:	e50b0008 	str	r0, [fp, #-8]
50005718:	e51b3008 	ldr	r3, [fp, #-8]
5000571c:	e3530040 	cmp	r3, #64	; 0x40
50005720:	da000005 	ble	5000573c <tolower+0x34>
50005724:	e51b3008 	ldr	r3, [fp, #-8]
50005728:	e353005a 	cmp	r3, #90	; 0x5a
5000572c:	ca000002 	bgt	5000573c <tolower+0x34>
50005730:	e51b3008 	ldr	r3, [fp, #-8]
50005734:	e3833020 	orr	r3, r3, #32
50005738:	e50b3008 	str	r3, [fp, #-8]
5000573c:	e51b3008 	ldr	r3, [fp, #-8]
50005740:	e1a00003 	mov	r0, r3
50005744:	e24bd000 	sub	sp, fp, #0
50005748:	e49db004 	pop	{fp}		; (ldr fp, [sp], #4)
5000574c:	e12fff1e 	bx	lr

50005750 <toupper>:
50005750:	e52db004 	push	{fp}		; (str fp, [sp, #-4]!)
50005754:	e28db000 	add	fp, sp, #0
50005758:	e24dd00c 	sub	sp, sp, #12
5000575c:	e50b0008 	str	r0, [fp, #-8]
50005760:	e51b3008 	ldr	r3, [fp, #-8]
50005764:	e3530060 	cmp	r3, #96	; 0x60
50005768:	da000005 	ble	50005784 <toupper+0x34>
5000576c:	e51b3008 	ldr	r3, [fp, #-8]
50005770:	e353007a 	cmp	r3, #122	; 0x7a
50005774:	ca000002 	bgt	50005784 <toupper+0x34>
50005778:	e51b3008 	ldr	r3, [fp, #-8]
5000577c:	e2433020 	sub	r3, r3, #32
50005780:	e50b3008 	str	r3, [fp, #-8]
50005784:	e51b3008 	ldr	r3, [fp, #-8]
50005788:	e1a00003 	mov	r0, r3
5000578c:	e24bd000 	sub	sp, fp, #0
50005790:	e49db004 	pop	{fp}		; (ldr fp, [sp], #4)
50005794:	e12fff1e 	bx	lr

50005798 <abs>:
50005798:	e52db004 	push	{fp}		; (str fp, [sp, #-4]!)
5000579c:	e28db000 	add	fp, sp, #0
500057a0:	e24dd00c 	sub	sp, sp, #12
500057a4:	e50b0008 	str	r0, [fp, #-8]
500057a8:	e51b3008 	ldr	r3, [fp, #-8]
500057ac:	e3530000 	cmp	r3, #0
500057b0:	b2633000 	rsblt	r3, r3, #0
500057b4:	e1a00003 	mov	r0, r3
500057b8:	e24bd000 	sub	sp, fp, #0
500057bc:	e49db004 	pop	{fp}		; (ldr fp, [sp], #4)
500057c0:	e12fff1e 	bx	lr

500057c4 <_Stoul>:
500057c4:	e92d4800 	push	{fp, lr}
500057c8:	e28db004 	add	fp, sp, #4
500057cc:	e24dd038 	sub	sp, sp, #56	; 0x38
500057d0:	e50b0030 	str	r0, [fp, #-48]	; 0x30
500057d4:	e50b1034 	str	r1, [fp, #-52]	; 0x34
500057d8:	e50b2038 	str	r2, [fp, #-56]	; 0x38
500057dc:	e51b3030 	ldr	r3, [fp, #-48]	; 0x30
500057e0:	e50b3008 	str	r3, [fp, #-8]
500057e4:	ea000002 	b	500057f4 <_Stoul+0x30>
500057e8:	e51b3008 	ldr	r3, [fp, #-8]
500057ec:	e2833001 	add	r3, r3, #1
500057f0:	e50b3008 	str	r3, [fp, #-8]
500057f4:	e51b3008 	ldr	r3, [fp, #-8]
500057f8:	e5d33000 	ldrb	r3, [r3]
500057fc:	e6af3073 	sxtb	r3, r3
50005800:	e1a00003 	mov	r0, r3
50005804:	eb000264 	bl	5000619c <isspace>
50005808:	e1a03000 	mov	r3, r0
5000580c:	e3530000 	cmp	r3, #0
50005810:	1afffff4 	bne	500057e8 <_Stoul+0x24>
50005814:	e51b3008 	ldr	r3, [fp, #-8]
50005818:	e5d33000 	ldrb	r3, [r3]
5000581c:	e6af3073 	sxtb	r3, r3
50005820:	e353002d 	cmp	r3, #45	; 0x2d
50005824:	0a000004 	beq	5000583c <_Stoul+0x78>
50005828:	e51b3008 	ldr	r3, [fp, #-8]
5000582c:	e5d33000 	ldrb	r3, [r3]
50005830:	e6af3073 	sxtb	r3, r3
50005834:	e353002b 	cmp	r3, #43	; 0x2b
50005838:	1a000004 	bne	50005850 <_Stoul+0x8c>
5000583c:	e51b3008 	ldr	r3, [fp, #-8]
50005840:	e2832001 	add	r2, r3, #1
50005844:	e50b2008 	str	r2, [fp, #-8]
50005848:	e5d33000 	ldrb	r3, [r3]
5000584c:	ea000000 	b	50005854 <_Stoul+0x90>
50005850:	e3a0302b 	mov	r3, #43	; 0x2b
50005854:	e54b3015 	strb	r3, [fp, #-21]
50005858:	e51b3038 	ldr	r3, [fp, #-56]	; 0x38
5000585c:	e3530000 	cmp	r3, #0
50005860:	ba000005 	blt	5000587c <_Stoul+0xb8>
50005864:	e51b3038 	ldr	r3, [fp, #-56]	; 0x38
50005868:	e3530001 	cmp	r3, #1
5000586c:	0a000002 	beq	5000587c <_Stoul+0xb8>
50005870:	e51b3038 	ldr	r3, [fp, #-56]	; 0x38
50005874:	e3530024 	cmp	r3, #36	; 0x24
50005878:	da000007 	ble	5000589c <_Stoul+0xd8>
5000587c:	e51b3034 	ldr	r3, [fp, #-52]	; 0x34
50005880:	e3530000 	cmp	r3, #0
50005884:	0a000002 	beq	50005894 <_Stoul+0xd0>
50005888:	e51b3034 	ldr	r3, [fp, #-52]	; 0x34
5000588c:	e51b2008 	ldr	r2, [fp, #-8]
50005890:	e5832000 	str	r2, [r3]
50005894:	e3a03000 	mov	r3, #0
50005898:	ea0000a8 	b	50005b40 <_Stoul+0x37c>
5000589c:	e51b3038 	ldr	r3, [fp, #-56]	; 0x38
500058a0:	e3530000 	cmp	r3, #0
500058a4:	0a000017 	beq	50005908 <_Stoul+0x144>
500058a8:	e51b3038 	ldr	r3, [fp, #-56]	; 0x38
500058ac:	e3530010 	cmp	r3, #16
500058b0:	1a000030 	bne	50005978 <_Stoul+0x1b4>
500058b4:	e51b3008 	ldr	r3, [fp, #-8]
500058b8:	e5d33000 	ldrb	r3, [r3]
500058bc:	e6af3073 	sxtb	r3, r3
500058c0:	e3530030 	cmp	r3, #48	; 0x30
500058c4:	1a00002b 	bne	50005978 <_Stoul+0x1b4>
500058c8:	e51b3008 	ldr	r3, [fp, #-8]
500058cc:	e2833001 	add	r3, r3, #1
500058d0:	e5d33000 	ldrb	r3, [r3]
500058d4:	e6af3073 	sxtb	r3, r3
500058d8:	e3530078 	cmp	r3, #120	; 0x78
500058dc:	0a000005 	beq	500058f8 <_Stoul+0x134>
500058e0:	e51b3008 	ldr	r3, [fp, #-8]
500058e4:	e2833001 	add	r3, r3, #1
500058e8:	e5d33000 	ldrb	r3, [r3]
500058ec:	e6af3073 	sxtb	r3, r3
500058f0:	e3530058 	cmp	r3, #88	; 0x58
500058f4:	1a00001f 	bne	50005978 <_Stoul+0x1b4>
500058f8:	e51b3008 	ldr	r3, [fp, #-8]
500058fc:	e2833002 	add	r3, r3, #2
50005900:	e50b3008 	str	r3, [fp, #-8]
50005904:	ea00001b 	b	50005978 <_Stoul+0x1b4>
50005908:	e51b3008 	ldr	r3, [fp, #-8]
5000590c:	e5d33000 	ldrb	r3, [r3]
50005910:	e6af3073 	sxtb	r3, r3
50005914:	e3530030 	cmp	r3, #48	; 0x30
50005918:	0a000002 	beq	50005928 <_Stoul+0x164>
5000591c:	e3a0300a 	mov	r3, #10
50005920:	e50b3038 	str	r3, [fp, #-56]	; 0x38
50005924:	ea000013 	b	50005978 <_Stoul+0x1b4>
50005928:	e51b3008 	ldr	r3, [fp, #-8]
5000592c:	e2833001 	add	r3, r3, #1
50005930:	e5d33000 	ldrb	r3, [r3]
50005934:	e6af3073 	sxtb	r3, r3
50005938:	e3530078 	cmp	r3, #120	; 0x78
5000593c:	0a000005 	beq	50005958 <_Stoul+0x194>
50005940:	e51b3008 	ldr	r3, [fp, #-8]
50005944:	e2833001 	add	r3, r3, #1
50005948:	e5d33000 	ldrb	r3, [r3]
5000594c:	e6af3073 	sxtb	r3, r3
50005950:	e3530058 	cmp	r3, #88	; 0x58
50005954:	1a000005 	bne	50005970 <_Stoul+0x1ac>
50005958:	e3a03010 	mov	r3, #16
5000595c:	e50b3038 	str	r3, [fp, #-56]	; 0x38
50005960:	e51b3008 	ldr	r3, [fp, #-8]
50005964:	e2833002 	add	r3, r3, #2
50005968:	e50b3008 	str	r3, [fp, #-8]
5000596c:	ea000001 	b	50005978 <_Stoul+0x1b4>
50005970:	e3a03008 	mov	r3, #8
50005974:	e50b3038 	str	r3, [fp, #-56]	; 0x38
50005978:	e51b3008 	ldr	r3, [fp, #-8]
5000597c:	e50b301c 	str	r3, [fp, #-28]
50005980:	ea000002 	b	50005990 <_Stoul+0x1cc>
50005984:	e51b3008 	ldr	r3, [fp, #-8]
50005988:	e2833001 	add	r3, r3, #1
5000598c:	e50b3008 	str	r3, [fp, #-8]
50005990:	e51b3008 	ldr	r3, [fp, #-8]
50005994:	e5d33000 	ldrb	r3, [r3]
50005998:	e6af3073 	sxtb	r3, r3
5000599c:	e3530030 	cmp	r3, #48	; 0x30
500059a0:	0afffff7 	beq	50005984 <_Stoul+0x1c0>
500059a4:	e3a03000 	mov	r3, #0
500059a8:	e50b3010 	str	r3, [fp, #-16]
500059ac:	e51b3008 	ldr	r3, [fp, #-8]
500059b0:	e50b3020 	str	r3, [fp, #-32]
500059b4:	ea00000f 	b	500059f8 <_Stoul+0x234>
500059b8:	e51b3010 	ldr	r3, [fp, #-16]
500059bc:	e50b3014 	str	r3, [fp, #-20]
500059c0:	e51b2024 	ldr	r2, [fp, #-36]	; 0x24
500059c4:	e305344c 	movw	r3, #21580	; 0x544c
500059c8:	e3453001 	movt	r3, #20481	; 0x5001
500059cc:	e0633002 	rsb	r3, r3, r2
500059d0:	e54b3009 	strb	r3, [fp, #-9]
500059d4:	e51b3038 	ldr	r3, [fp, #-56]	; 0x38
500059d8:	e51b2010 	ldr	r2, [fp, #-16]
500059dc:	e0020392 	mul	r2, r2, r3
500059e0:	e15b30d9 	ldrsb	r3, [fp, #-9]
500059e4:	e0823003 	add	r3, r2, r3
500059e8:	e50b3010 	str	r3, [fp, #-16]
500059ec:	e51b3008 	ldr	r3, [fp, #-8]
500059f0:	e2833001 	add	r3, r3, #1
500059f4:	e50b3008 	str	r3, [fp, #-8]
500059f8:	e51b3008 	ldr	r3, [fp, #-8]
500059fc:	e5d33000 	ldrb	r3, [r3]
50005a00:	e6af3073 	sxtb	r3, r3
50005a04:	e1a00003 	mov	r0, r3
50005a08:	ebffff3e 	bl	50005708 <tolower>
50005a0c:	e1a02000 	mov	r2, r0
50005a10:	e51b3038 	ldr	r3, [fp, #-56]	; 0x38
50005a14:	e305044c 	movw	r0, #21580	; 0x544c
50005a18:	e3450001 	movt	r0, #20481	; 0x5001
50005a1c:	e1a01002 	mov	r1, r2
50005a20:	e1a02003 	mov	r2, r3
50005a24:	ebfffdf0 	bl	500051ec <memchr>
50005a28:	e50b0024 	str	r0, [fp, #-36]	; 0x24
50005a2c:	e51b3024 	ldr	r3, [fp, #-36]	; 0x24
50005a30:	e3530000 	cmp	r3, #0
50005a34:	1affffdf 	bne	500059b8 <_Stoul+0x1f4>
50005a38:	e51b201c 	ldr	r2, [fp, #-28]
50005a3c:	e51b3008 	ldr	r3, [fp, #-8]
50005a40:	e1520003 	cmp	r2, r3
50005a44:	1a000007 	bne	50005a68 <_Stoul+0x2a4>
50005a48:	e51b3034 	ldr	r3, [fp, #-52]	; 0x34
50005a4c:	e3530000 	cmp	r3, #0
50005a50:	0a000002 	beq	50005a60 <_Stoul+0x29c>
50005a54:	e51b3034 	ldr	r3, [fp, #-52]	; 0x34
50005a58:	e51b2008 	ldr	r2, [fp, #-8]
50005a5c:	e5832000 	str	r2, [r3]
50005a60:	e3a03000 	mov	r3, #0
50005a64:	ea000035 	b	50005b40 <_Stoul+0x37c>
50005a68:	e51b2008 	ldr	r2, [fp, #-8]
50005a6c:	e51b3020 	ldr	r3, [fp, #-32]
50005a70:	e0632002 	rsb	r2, r3, r2
50005a74:	e3053474 	movw	r3, #21620	; 0x5474
50005a78:	e3453001 	movt	r3, #20481	; 0x5001
50005a7c:	e51b1038 	ldr	r1, [fp, #-56]	; 0x38
50005a80:	e0833001 	add	r3, r3, r1
50005a84:	e5d33000 	ldrb	r3, [r3]
50005a88:	e6af3073 	sxtb	r3, r3
50005a8c:	e0633002 	rsb	r3, r3, r2
50005a90:	e50b3028 	str	r3, [fp, #-40]	; 0x28
50005a94:	e51b3028 	ldr	r3, [fp, #-40]	; 0x28
50005a98:	e3530000 	cmp	r3, #0
50005a9c:	ba00001a 	blt	50005b0c <_Stoul+0x348>
50005aa0:	e51b3028 	ldr	r3, [fp, #-40]	; 0x28
50005aa4:	e3530000 	cmp	r3, #0
50005aa8:	ca000011 	bgt	50005af4 <_Stoul+0x330>
50005aac:	e15b30d9 	ldrsb	r3, [fp, #-9]
50005ab0:	e51b2010 	ldr	r2, [fp, #-16]
50005ab4:	e0632002 	rsb	r2, r3, r2
50005ab8:	e51b3010 	ldr	r3, [fp, #-16]
50005abc:	e1520003 	cmp	r2, r3
50005ac0:	8a00000b 	bhi	50005af4 <_Stoul+0x330>
50005ac4:	e15b30d9 	ldrsb	r3, [fp, #-9]
50005ac8:	e51b2010 	ldr	r2, [fp, #-16]
50005acc:	e0632002 	rsb	r2, r3, r2
50005ad0:	e51b3038 	ldr	r3, [fp, #-56]	; 0x38
50005ad4:	e1a00002 	mov	r0, r2
50005ad8:	e1a01003 	mov	r1, r3
50005adc:	eb003bb2 	bl	500149ac <__aeabi_uidiv>
50005ae0:	e1a03000 	mov	r3, r0
50005ae4:	e1a02003 	mov	r2, r3
50005ae8:	e51b3014 	ldr	r3, [fp, #-20]
50005aec:	e1520003 	cmp	r2, r3
50005af0:	0a000005 	beq	50005b0c <_Stoul+0x348>
50005af4:	e30d3728 	movw	r3, #55080	; 0xd728
50005af8:	e3453001 	movt	r3, #20481	; 0x5001
50005afc:	e3a02022 	mov	r2, #34	; 0x22
50005b00:	e5832000 	str	r2, [r3]
50005b04:	e3e03000 	mvn	r3, #0
50005b08:	e50b3010 	str	r3, [fp, #-16]
50005b0c:	e15b31d5 	ldrsb	r3, [fp, #-21]	; 0xffffffeb
50005b10:	e353002d 	cmp	r3, #45	; 0x2d
50005b14:	1a000002 	bne	50005b24 <_Stoul+0x360>
50005b18:	e51b3010 	ldr	r3, [fp, #-16]
50005b1c:	e2633000 	rsb	r3, r3, #0
50005b20:	e50b3010 	str	r3, [fp, #-16]
50005b24:	e51b3034 	ldr	r3, [fp, #-52]	; 0x34
50005b28:	e3530000 	cmp	r3, #0
50005b2c:	0a000002 	beq	50005b3c <_Stoul+0x378>
50005b30:	e51b3034 	ldr	r3, [fp, #-52]	; 0x34
50005b34:	e51b2008 	ldr	r2, [fp, #-8]
50005b38:	e5832000 	str	r2, [r3]
50005b3c:	e51b3010 	ldr	r3, [fp, #-16]
50005b40:	e1a00003 	mov	r0, r3
50005b44:	e24bd004 	sub	sp, fp, #4
50005b48:	e8bd8800 	pop	{fp, pc}

50005b4c <atoi>:
50005b4c:	e92d4800 	push	{fp, lr}
50005b50:	e28db004 	add	fp, sp, #4
50005b54:	e24dd008 	sub	sp, sp, #8
50005b58:	e50b0008 	str	r0, [fp, #-8]
50005b5c:	e51b0008 	ldr	r0, [fp, #-8]
50005b60:	e3a01000 	mov	r1, #0
50005b64:	e3a02000 	mov	r2, #0
50005b68:	ebffff15 	bl	500057c4 <_Stoul>
50005b6c:	e1a03000 	mov	r3, r0
50005b70:	e1a00003 	mov	r0, r3
50005b74:	e24bd004 	sub	sp, fp, #4
50005b78:	e8bd8800 	pop	{fp, pc}

50005b7c <strspn>:
50005b7c:	e52db004 	push	{fp}		; (str fp, [sp, #-4]!)
50005b80:	e28db000 	add	fp, sp, #0
50005b84:	e24dd01c 	sub	sp, sp, #28
50005b88:	e50b0018 	str	r0, [fp, #-24]
50005b8c:	e50b101c 	str	r1, [fp, #-28]
50005b90:	e51b3018 	ldr	r3, [fp, #-24]
50005b94:	e2833001 	add	r3, r3, #1
50005b98:	e50b300c 	str	r3, [fp, #-12]
50005b9c:	ea000012 	b	50005bec <strspn+0x70>
50005ba0:	e51b301c 	ldr	r3, [fp, #-28]
50005ba4:	e50b3008 	str	r3, [fp, #-8]
50005ba8:	ea000006 	b	50005bc8 <strspn+0x4c>
50005bac:	e15b30de 	ldrsb	r3, [fp, #-14]
50005bb0:	e3530000 	cmp	r3, #0
50005bb4:	1a000003 	bne	50005bc8 <strspn+0x4c>
50005bb8:	e51b2018 	ldr	r2, [fp, #-24]
50005bbc:	e51b300c 	ldr	r3, [fp, #-12]
50005bc0:	e0633002 	rsb	r3, r3, r2
50005bc4:	ea000013 	b	50005c18 <strspn+0x9c>
50005bc8:	e51b3008 	ldr	r3, [fp, #-8]
50005bcc:	e2832001 	add	r2, r3, #1
50005bd0:	e50b2008 	str	r2, [fp, #-8]
50005bd4:	e5d33000 	ldrb	r3, [r3]
50005bd8:	e54b300e 	strb	r3, [fp, #-14]
50005bdc:	e15b20de 	ldrsb	r2, [fp, #-14]
50005be0:	e15b30dd 	ldrsb	r3, [fp, #-13]
50005be4:	e1520003 	cmp	r2, r3
50005be8:	1affffef 	bne	50005bac <strspn+0x30>
50005bec:	e51b3018 	ldr	r3, [fp, #-24]
50005bf0:	e2832001 	add	r2, r3, #1
50005bf4:	e50b2018 	str	r2, [fp, #-24]
50005bf8:	e5d33000 	ldrb	r3, [r3]
50005bfc:	e54b300d 	strb	r3, [fp, #-13]
50005c00:	e15b30dd 	ldrsb	r3, [fp, #-13]
50005c04:	e3530000 	cmp	r3, #0
50005c08:	1affffe4 	bne	50005ba0 <strspn+0x24>
50005c0c:	e51b2018 	ldr	r2, [fp, #-24]
50005c10:	e51b300c 	ldr	r3, [fp, #-12]
50005c14:	e0633002 	rsb	r3, r3, r2
50005c18:	e1a00003 	mov	r0, r3
50005c1c:	e24bd000 	sub	sp, fp, #0
50005c20:	e49db004 	pop	{fp}		; (ldr fp, [sp], #4)
50005c24:	e12fff1e 	bx	lr

50005c28 <strcspn>:
50005c28:	e52db004 	push	{fp}		; (str fp, [sp, #-4]!)
50005c2c:	e28db000 	add	fp, sp, #0
50005c30:	e24dd01c 	sub	sp, sp, #28
50005c34:	e50b0018 	str	r0, [fp, #-24]
50005c38:	e50b101c 	str	r1, [fp, #-28]
50005c3c:	e51b3018 	ldr	r3, [fp, #-24]
50005c40:	e2833001 	add	r3, r3, #1
50005c44:	e50b300c 	str	r3, [fp, #-12]
50005c48:	ea000012 	b	50005c98 <strcspn+0x70>
50005c4c:	e51b301c 	ldr	r3, [fp, #-28]
50005c50:	e50b3008 	str	r3, [fp, #-8]
50005c54:	ea000007 	b	50005c78 <strcspn+0x50>
50005c58:	e15b20dd 	ldrsb	r2, [fp, #-13]
50005c5c:	e15b30de 	ldrsb	r3, [fp, #-14]
50005c60:	e1520003 	cmp	r2, r3
50005c64:	1a000003 	bne	50005c78 <strcspn+0x50>
50005c68:	e51b2018 	ldr	r2, [fp, #-24]
50005c6c:	e51b300c 	ldr	r3, [fp, #-12]
50005c70:	e0633002 	rsb	r3, r3, r2
50005c74:	ea000012 	b	50005cc4 <strcspn+0x9c>
50005c78:	e51b3008 	ldr	r3, [fp, #-8]
50005c7c:	e2832001 	add	r2, r3, #1
50005c80:	e50b2008 	str	r2, [fp, #-8]
50005c84:	e5d33000 	ldrb	r3, [r3]
50005c88:	e54b300e 	strb	r3, [fp, #-14]
50005c8c:	e15b30de 	ldrsb	r3, [fp, #-14]
50005c90:	e3530000 	cmp	r3, #0
50005c94:	1affffef 	bne	50005c58 <strcspn+0x30>
50005c98:	e51b3018 	ldr	r3, [fp, #-24]
50005c9c:	e2832001 	add	r2, r3, #1
50005ca0:	e50b2018 	str	r2, [fp, #-24]
50005ca4:	e5d33000 	ldrb	r3, [r3]
50005ca8:	e54b300d 	strb	r3, [fp, #-13]
50005cac:	e15b30dd 	ldrsb	r3, [fp, #-13]
50005cb0:	e3530000 	cmp	r3, #0
50005cb4:	1affffe4 	bne	50005c4c <strcspn+0x24>
50005cb8:	e51b2018 	ldr	r2, [fp, #-24]
50005cbc:	e51b300c 	ldr	r3, [fp, #-12]
50005cc0:	e0633002 	rsb	r3, r3, r2
50005cc4:	e1a00003 	mov	r0, r3
50005cc8:	e24bd000 	sub	sp, fp, #0
50005ccc:	e49db004 	pop	{fp}		; (ldr fp, [sp], #4)
50005cd0:	e12fff1e 	bx	lr

50005cd4 <strpbrk>:
50005cd4:	e52db004 	push	{fp}		; (str fp, [sp, #-4]!)
50005cd8:	e28db000 	add	fp, sp, #0
50005cdc:	e24dd01c 	sub	sp, sp, #28
50005ce0:	e50b0018 	str	r0, [fp, #-24]
50005ce4:	e50b101c 	str	r1, [fp, #-28]
50005ce8:	ea000012 	b	50005d38 <strpbrk+0x64>
50005cec:	e51b301c 	ldr	r3, [fp, #-28]
50005cf0:	e50b3008 	str	r3, [fp, #-8]
50005cf4:	ea000006 	b	50005d14 <strpbrk+0x40>
50005cf8:	e51b2010 	ldr	r2, [fp, #-16]
50005cfc:	e51b300c 	ldr	r3, [fp, #-12]
50005d00:	e1520003 	cmp	r2, r3
50005d04:	1a000002 	bne	50005d14 <strpbrk+0x40>
50005d08:	e51b3018 	ldr	r3, [fp, #-24]
50005d0c:	e2433001 	sub	r3, r3, #1
50005d10:	ea000012 	b	50005d60 <strpbrk+0x8c>
50005d14:	e51b3008 	ldr	r3, [fp, #-8]
50005d18:	e2832001 	add	r2, r3, #1
50005d1c:	e50b2008 	str	r2, [fp, #-8]
50005d20:	e5d33000 	ldrb	r3, [r3]
50005d24:	e6af3073 	sxtb	r3, r3
50005d28:	e50b3010 	str	r3, [fp, #-16]
50005d2c:	e51b3010 	ldr	r3, [fp, #-16]
50005d30:	e3530000 	cmp	r3, #0
50005d34:	1affffef 	bne	50005cf8 <strpbrk+0x24>
50005d38:	e51b3018 	ldr	r3, [fp, #-24]
50005d3c:	e2832001 	add	r2, r3, #1
50005d40:	e50b2018 	str	r2, [fp, #-24]
50005d44:	e5d33000 	ldrb	r3, [r3]
50005d48:	e6af3073 	sxtb	r3, r3
50005d4c:	e50b300c 	str	r3, [fp, #-12]
50005d50:	e51b300c 	ldr	r3, [fp, #-12]
50005d54:	e3530000 	cmp	r3, #0
50005d58:	1affffe3 	bne	50005cec <strpbrk+0x18>
50005d5c:	e3a03000 	mov	r3, #0
50005d60:	e1a00003 	mov	r0, r3
50005d64:	e24bd000 	sub	sp, fp, #0
50005d68:	e49db004 	pop	{fp}		; (ldr fp, [sp], #4)
50005d6c:	e12fff1e 	bx	lr

50005d70 <strtok_r>:
50005d70:	e92d4800 	push	{fp, lr}
50005d74:	e28db004 	add	fp, sp, #4
50005d78:	e24dd010 	sub	sp, sp, #16
50005d7c:	e50b0008 	str	r0, [fp, #-8]
50005d80:	e50b100c 	str	r1, [fp, #-12]
50005d84:	e50b2010 	str	r2, [fp, #-16]
50005d88:	e51b3008 	ldr	r3, [fp, #-8]
50005d8c:	e3530000 	cmp	r3, #0
50005d90:	1a000007 	bne	50005db4 <strtok_r+0x44>
50005d94:	e51b3010 	ldr	r3, [fp, #-16]
50005d98:	e5933000 	ldr	r3, [r3]
50005d9c:	e50b3008 	str	r3, [fp, #-8]
50005da0:	e51b3008 	ldr	r3, [fp, #-8]
50005da4:	e3530000 	cmp	r3, #0
50005da8:	1a000001 	bne	50005db4 <strtok_r+0x44>
50005dac:	e3a03000 	mov	r3, #0
50005db0:	ea000022 	b	50005e40 <strtok_r+0xd0>
50005db4:	e51b0008 	ldr	r0, [fp, #-8]
50005db8:	e51b100c 	ldr	r1, [fp, #-12]
50005dbc:	ebffff6e 	bl	50005b7c <strspn>
50005dc0:	e1a02000 	mov	r2, r0
50005dc4:	e51b3008 	ldr	r3, [fp, #-8]
50005dc8:	e0833002 	add	r3, r3, r2
50005dcc:	e50b3008 	str	r3, [fp, #-8]
50005dd0:	e51b3008 	ldr	r3, [fp, #-8]
50005dd4:	e5d33000 	ldrb	r3, [r3]
50005dd8:	e3530000 	cmp	r3, #0
50005ddc:	1a000005 	bne	50005df8 <strtok_r+0x88>
50005de0:	e51b3010 	ldr	r3, [fp, #-16]
50005de4:	e3a02000 	mov	r2, #0
50005de8:	e5832000 	str	r2, [r3]
50005dec:	e51b3010 	ldr	r3, [fp, #-16]
50005df0:	e5933000 	ldr	r3, [r3]
50005df4:	ea000011 	b	50005e40 <strtok_r+0xd0>
50005df8:	e51b0008 	ldr	r0, [fp, #-8]
50005dfc:	e51b100c 	ldr	r1, [fp, #-12]
50005e00:	ebffffb3 	bl	50005cd4 <strpbrk>
50005e04:	e1a02000 	mov	r2, r0
50005e08:	e51b3010 	ldr	r3, [fp, #-16]
50005e0c:	e5832000 	str	r2, [r3]
50005e10:	e51b3010 	ldr	r3, [fp, #-16]
50005e14:	e5933000 	ldr	r3, [r3]
50005e18:	e3530000 	cmp	r3, #0
50005e1c:	0a000006 	beq	50005e3c <strtok_r+0xcc>
50005e20:	e51b3010 	ldr	r3, [fp, #-16]
50005e24:	e5933000 	ldr	r3, [r3]
50005e28:	e2831001 	add	r1, r3, #1
50005e2c:	e51b2010 	ldr	r2, [fp, #-16]
50005e30:	e5821000 	str	r1, [r2]
50005e34:	e3a02000 	mov	r2, #0
50005e38:	e5c32000 	strb	r2, [r3]
50005e3c:	e51b3008 	ldr	r3, [fp, #-8]
50005e40:	e1a00003 	mov	r0, r3
50005e44:	e24bd004 	sub	sp, fp, #4
50005e48:	e8bd8800 	pop	{fp, pc}

50005e4c <strtok>:
50005e4c:	e92d4800 	push	{fp, lr}
50005e50:	e28db004 	add	fp, sp, #4
50005e54:	e24dd008 	sub	sp, sp, #8
50005e58:	e50b0008 	str	r0, [fp, #-8]
50005e5c:	e50b100c 	str	r1, [fp, #-12]
50005e60:	e51b0008 	ldr	r0, [fp, #-8]
50005e64:	e51b100c 	ldr	r1, [fp, #-12]
50005e68:	e307285c 	movw	r2, #30812	; 0x785c
50005e6c:	e3452001 	movt	r2, #20481	; 0x5001
50005e70:	ebffffbe 	bl	50005d70 <strtok_r>
50005e74:	e1a03000 	mov	r3, r0
50005e78:	e1a00003 	mov	r0, r3
50005e7c:	e24bd004 	sub	sp, fp, #4
50005e80:	e8bd8800 	pop	{fp, pc}

50005e84 <isalnum>:
50005e84:	e52db004 	push	{fp}		; (str fp, [sp, #-4]!)
50005e88:	e28db000 	add	fp, sp, #0
50005e8c:	e24dd00c 	sub	sp, sp, #12
50005e90:	e50b0008 	str	r0, [fp, #-8]
50005e94:	e51b3008 	ldr	r3, [fp, #-8]
50005e98:	e3730001 	cmn	r3, #1
50005e9c:	0a000009 	beq	50005ec8 <isalnum+0x44>
50005ea0:	e3073290 	movw	r3, #29328	; 0x7290
50005ea4:	e3453001 	movt	r3, #20481	; 0x5001
50005ea8:	e5932000 	ldr	r2, [r3]
50005eac:	e51b3008 	ldr	r3, [fp, #-8]
50005eb0:	e6ef3073 	uxtb	r3, r3
50005eb4:	e2833001 	add	r3, r3, #1
50005eb8:	e0823003 	add	r3, r2, r3
50005ebc:	e5d33000 	ldrb	r3, [r3]
50005ec0:	e2033007 	and	r3, r3, #7
50005ec4:	ea000000 	b	50005ecc <isalnum+0x48>
50005ec8:	e3a03000 	mov	r3, #0
50005ecc:	e1a00003 	mov	r0, r3
50005ed0:	e24bd000 	sub	sp, fp, #0
50005ed4:	e49db004 	pop	{fp}		; (ldr fp, [sp], #4)
50005ed8:	e12fff1e 	bx	lr

50005edc <isalpha>:
50005edc:	e52db004 	push	{fp}		; (str fp, [sp, #-4]!)
50005ee0:	e28db000 	add	fp, sp, #0
50005ee4:	e24dd00c 	sub	sp, sp, #12
50005ee8:	e50b0008 	str	r0, [fp, #-8]
50005eec:	e51b3008 	ldr	r3, [fp, #-8]
50005ef0:	e3730001 	cmn	r3, #1
50005ef4:	0a000009 	beq	50005f20 <isalpha+0x44>
50005ef8:	e3073290 	movw	r3, #29328	; 0x7290
50005efc:	e3453001 	movt	r3, #20481	; 0x5001
50005f00:	e5932000 	ldr	r2, [r3]
50005f04:	e51b3008 	ldr	r3, [fp, #-8]
50005f08:	e6ef3073 	uxtb	r3, r3
50005f0c:	e2833001 	add	r3, r3, #1
50005f10:	e0823003 	add	r3, r2, r3
50005f14:	e5d33000 	ldrb	r3, [r3]
50005f18:	e2033003 	and	r3, r3, #3
50005f1c:	ea000000 	b	50005f24 <isalpha+0x48>
50005f20:	e3a03000 	mov	r3, #0
50005f24:	e1a00003 	mov	r0, r3
50005f28:	e24bd000 	sub	sp, fp, #0
50005f2c:	e49db004 	pop	{fp}		; (ldr fp, [sp], #4)
50005f30:	e12fff1e 	bx	lr

50005f34 <iscntrl>:
50005f34:	e52db004 	push	{fp}		; (str fp, [sp, #-4]!)
50005f38:	e28db000 	add	fp, sp, #0
50005f3c:	e24dd00c 	sub	sp, sp, #12
50005f40:	e50b0008 	str	r0, [fp, #-8]
50005f44:	e51b3008 	ldr	r3, [fp, #-8]
50005f48:	e3730001 	cmn	r3, #1
50005f4c:	0a000009 	beq	50005f78 <iscntrl+0x44>
50005f50:	e3073290 	movw	r3, #29328	; 0x7290
50005f54:	e3453001 	movt	r3, #20481	; 0x5001
50005f58:	e5932000 	ldr	r2, [r3]
50005f5c:	e51b3008 	ldr	r3, [fp, #-8]
50005f60:	e6ef3073 	uxtb	r3, r3
50005f64:	e2833001 	add	r3, r3, #1
50005f68:	e0823003 	add	r3, r2, r3
50005f6c:	e5d33000 	ldrb	r3, [r3]
50005f70:	e2033020 	and	r3, r3, #32
50005f74:	ea000000 	b	50005f7c <iscntrl+0x48>
50005f78:	e3a03000 	mov	r3, #0
50005f7c:	e1a00003 	mov	r0, r3
50005f80:	e24bd000 	sub	sp, fp, #0
50005f84:	e49db004 	pop	{fp}		; (ldr fp, [sp], #4)
50005f88:	e12fff1e 	bx	lr

50005f8c <isdigit>:
50005f8c:	e52db004 	push	{fp}		; (str fp, [sp, #-4]!)
50005f90:	e28db000 	add	fp, sp, #0
50005f94:	e24dd00c 	sub	sp, sp, #12
50005f98:	e50b0008 	str	r0, [fp, #-8]
50005f9c:	e51b3008 	ldr	r3, [fp, #-8]
50005fa0:	e3730001 	cmn	r3, #1
50005fa4:	0a000009 	beq	50005fd0 <isdigit+0x44>
50005fa8:	e3073290 	movw	r3, #29328	; 0x7290
50005fac:	e3453001 	movt	r3, #20481	; 0x5001
50005fb0:	e5932000 	ldr	r2, [r3]
50005fb4:	e51b3008 	ldr	r3, [fp, #-8]
50005fb8:	e6ef3073 	uxtb	r3, r3
50005fbc:	e2833001 	add	r3, r3, #1
50005fc0:	e0823003 	add	r3, r2, r3
50005fc4:	e5d33000 	ldrb	r3, [r3]
50005fc8:	e2033004 	and	r3, r3, #4
50005fcc:	ea000000 	b	50005fd4 <isdigit+0x48>
50005fd0:	e3a03000 	mov	r3, #0
50005fd4:	e1a00003 	mov	r0, r3
50005fd8:	e24bd000 	sub	sp, fp, #0
50005fdc:	e49db004 	pop	{fp}		; (ldr fp, [sp], #4)
50005fe0:	e12fff1e 	bx	lr

50005fe4 <isgraph>:
50005fe4:	e52db004 	push	{fp}		; (str fp, [sp, #-4]!)
50005fe8:	e28db000 	add	fp, sp, #0
50005fec:	e24dd00c 	sub	sp, sp, #12
50005ff0:	e50b0008 	str	r0, [fp, #-8]
50005ff4:	e51b3008 	ldr	r3, [fp, #-8]
50005ff8:	e3730001 	cmn	r3, #1
50005ffc:	0a000009 	beq	50006028 <isgraph+0x44>
50006000:	e3073290 	movw	r3, #29328	; 0x7290
50006004:	e3453001 	movt	r3, #20481	; 0x5001
50006008:	e5932000 	ldr	r2, [r3]
5000600c:	e51b3008 	ldr	r3, [fp, #-8]
50006010:	e6ef3073 	uxtb	r3, r3
50006014:	e2833001 	add	r3, r3, #1
50006018:	e0823003 	add	r3, r2, r3
5000601c:	e5d33000 	ldrb	r3, [r3]
50006020:	e2033017 	and	r3, r3, #23
50006024:	ea000000 	b	5000602c <isgraph+0x48>
50006028:	e3a03000 	mov	r3, #0
5000602c:	e1a00003 	mov	r0, r3
50006030:	e24bd000 	sub	sp, fp, #0
50006034:	e49db004 	pop	{fp}		; (ldr fp, [sp], #4)
50006038:	e12fff1e 	bx	lr

5000603c <islower>:
5000603c:	e52db004 	push	{fp}		; (str fp, [sp, #-4]!)
50006040:	e28db000 	add	fp, sp, #0
50006044:	e24dd00c 	sub	sp, sp, #12
50006048:	e50b0008 	str	r0, [fp, #-8]
5000604c:	e51b3008 	ldr	r3, [fp, #-8]
50006050:	e3730001 	cmn	r3, #1
50006054:	0a000009 	beq	50006080 <islower+0x44>
50006058:	e3073290 	movw	r3, #29328	; 0x7290
5000605c:	e3453001 	movt	r3, #20481	; 0x5001
50006060:	e5932000 	ldr	r2, [r3]
50006064:	e51b3008 	ldr	r3, [fp, #-8]
50006068:	e6ef3073 	uxtb	r3, r3
5000606c:	e2833001 	add	r3, r3, #1
50006070:	e0823003 	add	r3, r2, r3
50006074:	e5d33000 	ldrb	r3, [r3]
50006078:	e2033002 	and	r3, r3, #2
5000607c:	ea000000 	b	50006084 <islower+0x48>
50006080:	e3a03000 	mov	r3, #0
50006084:	e1a00003 	mov	r0, r3
50006088:	e24bd000 	sub	sp, fp, #0
5000608c:	e49db004 	pop	{fp}		; (ldr fp, [sp], #4)
50006090:	e12fff1e 	bx	lr

50006094 <isupper>:
50006094:	e52db004 	push	{fp}		; (str fp, [sp, #-4]!)
50006098:	e28db000 	add	fp, sp, #0
5000609c:	e24dd00c 	sub	sp, sp, #12
500060a0:	e50b0008 	str	r0, [fp, #-8]
500060a4:	e51b3008 	ldr	r3, [fp, #-8]
500060a8:	e3730001 	cmn	r3, #1
500060ac:	0a000009 	beq	500060d8 <isupper+0x44>
500060b0:	e3073290 	movw	r3, #29328	; 0x7290
500060b4:	e3453001 	movt	r3, #20481	; 0x5001
500060b8:	e5932000 	ldr	r2, [r3]
500060bc:	e51b3008 	ldr	r3, [fp, #-8]
500060c0:	e6ef3073 	uxtb	r3, r3
500060c4:	e2833001 	add	r3, r3, #1
500060c8:	e0823003 	add	r3, r2, r3
500060cc:	e5d33000 	ldrb	r3, [r3]
500060d0:	e2033001 	and	r3, r3, #1
500060d4:	ea000000 	b	500060dc <isupper+0x48>
500060d8:	e3a03000 	mov	r3, #0
500060dc:	e1a00003 	mov	r0, r3
500060e0:	e24bd000 	sub	sp, fp, #0
500060e4:	e49db004 	pop	{fp}		; (ldr fp, [sp], #4)
500060e8:	e12fff1e 	bx	lr

500060ec <isprint>:
500060ec:	e52db004 	push	{fp}		; (str fp, [sp, #-4]!)
500060f0:	e28db000 	add	fp, sp, #0
500060f4:	e24dd00c 	sub	sp, sp, #12
500060f8:	e50b0008 	str	r0, [fp, #-8]
500060fc:	e51b3008 	ldr	r3, [fp, #-8]
50006100:	e3730001 	cmn	r3, #1
50006104:	0a000009 	beq	50006130 <isprint+0x44>
50006108:	e3073290 	movw	r3, #29328	; 0x7290
5000610c:	e3453001 	movt	r3, #20481	; 0x5001
50006110:	e5932000 	ldr	r2, [r3]
50006114:	e51b3008 	ldr	r3, [fp, #-8]
50006118:	e6ef3073 	uxtb	r3, r3
5000611c:	e2833001 	add	r3, r3, #1
50006120:	e0823003 	add	r3, r2, r3
50006124:	e5d33000 	ldrb	r3, [r3]
50006128:	e2033097 	and	r3, r3, #151	; 0x97
5000612c:	ea000000 	b	50006134 <isprint+0x48>
50006130:	e3a03000 	mov	r3, #0
50006134:	e1a00003 	mov	r0, r3
50006138:	e24bd000 	sub	sp, fp, #0
5000613c:	e49db004 	pop	{fp}		; (ldr fp, [sp], #4)
50006140:	e12fff1e 	bx	lr

50006144 <ispunct>:
50006144:	e52db004 	push	{fp}		; (str fp, [sp, #-4]!)
50006148:	e28db000 	add	fp, sp, #0
5000614c:	e24dd00c 	sub	sp, sp, #12
50006150:	e50b0008 	str	r0, [fp, #-8]
50006154:	e51b3008 	ldr	r3, [fp, #-8]
50006158:	e3730001 	cmn	r3, #1
5000615c:	0a000009 	beq	50006188 <ispunct+0x44>
50006160:	e3073290 	movw	r3, #29328	; 0x7290
50006164:	e3453001 	movt	r3, #20481	; 0x5001
50006168:	e5932000 	ldr	r2, [r3]
5000616c:	e51b3008 	ldr	r3, [fp, #-8]
50006170:	e6ef3073 	uxtb	r3, r3
50006174:	e2833001 	add	r3, r3, #1
50006178:	e0823003 	add	r3, r2, r3
5000617c:	e5d33000 	ldrb	r3, [r3]
50006180:	e2033010 	and	r3, r3, #16
50006184:	ea000000 	b	5000618c <ispunct+0x48>
50006188:	e3a03000 	mov	r3, #0
5000618c:	e1a00003 	mov	r0, r3
50006190:	e24bd000 	sub	sp, fp, #0
50006194:	e49db004 	pop	{fp}		; (ldr fp, [sp], #4)
50006198:	e12fff1e 	bx	lr

5000619c <isspace>:
5000619c:	e52db004 	push	{fp}		; (str fp, [sp, #-4]!)
500061a0:	e28db000 	add	fp, sp, #0
500061a4:	e24dd00c 	sub	sp, sp, #12
500061a8:	e50b0008 	str	r0, [fp, #-8]
500061ac:	e51b3008 	ldr	r3, [fp, #-8]
500061b0:	e3730001 	cmn	r3, #1
500061b4:	0a000009 	beq	500061e0 <isspace+0x44>
500061b8:	e3073290 	movw	r3, #29328	; 0x7290
500061bc:	e3453001 	movt	r3, #20481	; 0x5001
500061c0:	e5932000 	ldr	r2, [r3]
500061c4:	e51b3008 	ldr	r3, [fp, #-8]
500061c8:	e6ef3073 	uxtb	r3, r3
500061cc:	e2833001 	add	r3, r3, #1
500061d0:	e0823003 	add	r3, r2, r3
500061d4:	e5d33000 	ldrb	r3, [r3]
500061d8:	e2033008 	and	r3, r3, #8
500061dc:	ea000000 	b	500061e4 <isspace+0x48>
500061e0:	e3a03000 	mov	r3, #0
500061e4:	e1a00003 	mov	r0, r3
500061e8:	e24bd000 	sub	sp, fp, #0
500061ec:	e49db004 	pop	{fp}		; (ldr fp, [sp], #4)
500061f0:	e12fff1e 	bx	lr

500061f4 <isxdigit>:
500061f4:	e52db004 	push	{fp}		; (str fp, [sp, #-4]!)
500061f8:	e28db000 	add	fp, sp, #0
500061fc:	e24dd00c 	sub	sp, sp, #12
50006200:	e50b0008 	str	r0, [fp, #-8]
50006204:	e51b3008 	ldr	r3, [fp, #-8]
50006208:	e3730001 	cmn	r3, #1
5000620c:	0a000009 	beq	50006238 <isxdigit+0x44>
50006210:	e3073290 	movw	r3, #29328	; 0x7290
50006214:	e3453001 	movt	r3, #20481	; 0x5001
50006218:	e5932000 	ldr	r2, [r3]
5000621c:	e51b3008 	ldr	r3, [fp, #-8]
50006220:	e6ef3073 	uxtb	r3, r3
50006224:	e2833001 	add	r3, r3, #1
50006228:	e0823003 	add	r3, r2, r3
5000622c:	e5d33000 	ldrb	r3, [r3]
50006230:	e2033044 	and	r3, r3, #68	; 0x44
50006234:	ea000000 	b	5000623c <isxdigit+0x48>
50006238:	e3a03000 	mov	r3, #0
5000623c:	e1a00003 	mov	r0, r3
50006240:	e24bd000 	sub	sp, fp, #0
50006244:	e49db004 	pop	{fp}		; (ldr fp, [sp], #4)
50006248:	e12fff1e 	bx	lr

5000624c <isascii>:
5000624c:	e52db004 	push	{fp}		; (str fp, [sp, #-4]!)
50006250:	e28db000 	add	fp, sp, #0
50006254:	e24dd00c 	sub	sp, sp, #12
50006258:	e50b0008 	str	r0, [fp, #-8]
5000625c:	e51b3008 	ldr	r3, [fp, #-8]
50006260:	e3530000 	cmp	r3, #0
50006264:	ba000004 	blt	5000627c <isascii+0x30>
50006268:	e51b3008 	ldr	r3, [fp, #-8]
5000626c:	e353007f 	cmp	r3, #127	; 0x7f
50006270:	ca000001 	bgt	5000627c <isascii+0x30>
50006274:	e3a03001 	mov	r3, #1
50006278:	ea000000 	b	50006280 <isascii+0x34>
5000627c:	e3a03000 	mov	r3, #0
50006280:	e1a00003 	mov	r0, r3
50006284:	e24bd000 	sub	sp, fp, #0
50006288:	e49db004 	pop	{fp}		; (ldr fp, [sp], #4)
5000628c:	e12fff1e 	bx	lr

50006290 <toascii>:
50006290:	e52db004 	push	{fp}		; (str fp, [sp, #-4]!)
50006294:	e28db000 	add	fp, sp, #0
50006298:	e24dd00c 	sub	sp, sp, #12
5000629c:	e50b0008 	str	r0, [fp, #-8]
500062a0:	e51b3008 	ldr	r3, [fp, #-8]
500062a4:	e203307f 	and	r3, r3, #127	; 0x7f
500062a8:	e1a00003 	mov	r0, r3
500062ac:	e24bd000 	sub	sp, fp, #0
500062b0:	e49db004 	pop	{fp}		; (ldr fp, [sp], #4)
500062b4:	e12fff1e 	bx	lr

500062b8 <isblank>:
500062b8:	e52db004 	push	{fp}		; (str fp, [sp, #-4]!)
500062bc:	e28db000 	add	fp, sp, #0
500062c0:	e24dd00c 	sub	sp, sp, #12
500062c4:	e50b0008 	str	r0, [fp, #-8]
500062c8:	e51b3008 	ldr	r3, [fp, #-8]
500062cc:	e3530020 	cmp	r3, #32
500062d0:	0a000002 	beq	500062e0 <isblank+0x28>
500062d4:	e51b3008 	ldr	r3, [fp, #-8]
500062d8:	e3530009 	cmp	r3, #9
500062dc:	1a000001 	bne	500062e8 <isblank+0x30>
500062e0:	e3a03001 	mov	r3, #1
500062e4:	ea000000 	b	500062ec <isblank+0x34>
500062e8:	e3a03000 	mov	r3, #0
500062ec:	e1a00003 	mov	r0, r3
500062f0:	e24bd000 	sub	sp, fp, #0
500062f4:	e49db004 	pop	{fp}		; (ldr fp, [sp], #4)
500062f8:	e12fff1e 	bx	lr

500062fc <srand>:
500062fc:	e52db004 	push	{fp}		; (str fp, [sp, #-4]!)
50006300:	e28db000 	add	fp, sp, #0
50006304:	e24dd00c 	sub	sp, sp, #12
50006308:	e50b0008 	str	r0, [fp, #-8]
5000630c:	e51b2008 	ldr	r2, [fp, #-8]
50006310:	e3073294 	movw	r3, #29332	; 0x7294
50006314:	e3453001 	movt	r3, #20481	; 0x5001
50006318:	e5832000 	str	r2, [r3]
5000631c:	e24bd000 	sub	sp, fp, #0
50006320:	e49db004 	pop	{fp}		; (ldr fp, [sp], #4)
50006324:	e12fff1e 	bx	lr

50006328 <rand>:
50006328:	e52db004 	push	{fp}		; (str fp, [sp, #-4]!)
5000632c:	e28db000 	add	fp, sp, #0
50006330:	e3073294 	movw	r3, #29332	; 0x7294
50006334:	e3453001 	movt	r3, #20481	; 0x5001
50006338:	e5932000 	ldr	r2, [r3]
5000633c:	e30433fd 	movw	r3, #17405	; 0x43fd
50006340:	e3403003 	movt	r3, #3
50006344:	e0020293 	mul	r2, r3, r2
50006348:	e3093ec3 	movw	r3, #40643	; 0x9ec3
5000634c:	e3403026 	movt	r3, #38	; 0x26
50006350:	e0823003 	add	r3, r2, r3
50006354:	e3072294 	movw	r2, #29332	; 0x7294
50006358:	e3452001 	movt	r2, #20481	; 0x5001
5000635c:	e5823000 	str	r3, [r2]
50006360:	e3073294 	movw	r3, #29332	; 0x7294
50006364:	e3453001 	movt	r3, #20481	; 0x5001
50006368:	e5933000 	ldr	r3, [r3]
5000636c:	e1a03843 	asr	r3, r3, #16
50006370:	e7ee3053 	ubfx	r3, r3, #0, #15
50006374:	e1a00003 	mov	r0, r3
50006378:	e24bd000 	sub	sp, fp, #0
5000637c:	e49db004 	pop	{fp}		; (ldr fp, [sp], #4)
50006380:	e12fff1e 	bx	lr

50006384 <sscanf>:
50006384:	e92d000e 	push	{r1, r2, r3}
50006388:	e92d4800 	push	{fp, lr}
5000638c:	e28db004 	add	fp, sp, #4
50006390:	e24dd014 	sub	sp, sp, #20
50006394:	e50b0014 	str	r0, [fp, #-20]
50006398:	e28b3008 	add	r3, fp, #8
5000639c:	e50b3010 	str	r3, [fp, #-16]
500063a0:	e51b3010 	ldr	r3, [fp, #-16]
500063a4:	e2832004 	add	r2, r3, #4
500063a8:	e50b2010 	str	r2, [fp, #-16]
500063ac:	e5933000 	ldr	r3, [r3]
500063b0:	e50b300c 	str	r3, [fp, #-12]
500063b4:	e59b0004 	ldr	r0, [fp, #4]
500063b8:	e30515a0 	movw	r1, #21920	; 0x55a0
500063bc:	e3451001 	movt	r1, #20481	; 0x5001
500063c0:	ebfffa6e 	bl	50004d80 <strcmp>
500063c4:	e1a03000 	mov	r3, r0
500063c8:	e3530000 	cmp	r3, #0
500063cc:	0a00000d 	beq	50006408 <sscanf+0x84>
500063d0:	e59b0004 	ldr	r0, [fp, #4]
500063d4:	e30515a4 	movw	r1, #21924	; 0x55a4
500063d8:	e3451001 	movt	r1, #20481	; 0x5001
500063dc:	ebfffa67 	bl	50004d80 <strcmp>
500063e0:	e1a03000 	mov	r3, r0
500063e4:	e3530000 	cmp	r3, #0
500063e8:	0a000006 	beq	50006408 <sscanf+0x84>
500063ec:	e59b0004 	ldr	r0, [fp, #4]
500063f0:	e30515ac 	movw	r1, #21932	; 0x55ac
500063f4:	e3451001 	movt	r1, #20481	; 0x5001
500063f8:	ebfffa60 	bl	50004d80 <strcmp>
500063fc:	e1a03000 	mov	r3, r0
50006400:	e3530000 	cmp	r3, #0
50006404:	1a000005 	bne	50006420 <sscanf+0x9c>
50006408:	e51b0014 	ldr	r0, [fp, #-20]
5000640c:	ebfffdce 	bl	50005b4c <atoi>
50006410:	e1a02000 	mov	r2, r0
50006414:	e51b300c 	ldr	r3, [fp, #-12]
50006418:	e5832000 	str	r2, [r3]
5000641c:	ea000002 	b	5000642c <sscanf+0xa8>
50006420:	e51b300c 	ldr	r3, [fp, #-12]
50006424:	e3a02000 	mov	r2, #0
50006428:	e5832000 	str	r2, [r3]
5000642c:	e3a03000 	mov	r3, #0
50006430:	e1a00003 	mov	r0, r3
50006434:	e24bd004 	sub	sp, fp, #4
50006438:	e8bd4800 	pop	{fp, lr}
5000643c:	e28dd00c 	add	sp, sp, #12
50006440:	e12fff1e 	bx	lr

50006444 <df_sputc>:
50006444:	e52db004 	push	{fp}		; (str fp, [sp, #-4]!)
50006448:	e28db000 	add	fp, sp, #0
5000644c:	e24dd014 	sub	sp, sp, #20
50006450:	e50b0008 	str	r0, [fp, #-8]
50006454:	e50b100c 	str	r1, [fp, #-12]
50006458:	e1a03002 	mov	r3, r2
5000645c:	e54b300d 	strb	r3, [fp, #-13]
50006460:	e51b300c 	ldr	r3, [fp, #-12]
50006464:	e5933000 	ldr	r3, [r3]
50006468:	e1a02003 	mov	r2, r3
5000646c:	e51b3008 	ldr	r3, [fp, #-8]
50006470:	e0833002 	add	r3, r3, r2
50006474:	e55b200d 	ldrb	r2, [fp, #-13]
50006478:	e5c32000 	strb	r2, [r3]
5000647c:	e51b300c 	ldr	r3, [fp, #-12]
50006480:	e5933000 	ldr	r3, [r3]
50006484:	e2832001 	add	r2, r3, #1
50006488:	e51b300c 	ldr	r3, [fp, #-12]
5000648c:	e5832000 	str	r2, [r3]
50006490:	e3a03001 	mov	r3, #1
50006494:	e1a00003 	mov	r0, r3
50006498:	e24bd000 	sub	sp, fp, #0
5000649c:	e49db004 	pop	{fp}		; (ldr fp, [sp], #4)
500064a0:	e12fff1e 	bx	lr

500064a4 <df_sputs>:
500064a4:	e52db004 	push	{fp}		; (str fp, [sp, #-4]!)
500064a8:	e28db000 	add	fp, sp, #0
500064ac:	e24dd01c 	sub	sp, sp, #28
500064b0:	e50b0010 	str	r0, [fp, #-16]
500064b4:	e50b1014 	str	r1, [fp, #-20]
500064b8:	e50b2018 	str	r2, [fp, #-24]
500064bc:	e3a03000 	mov	r3, #0
500064c0:	e50b3008 	str	r3, [fp, #-8]
500064c4:	e51b3018 	ldr	r3, [fp, #-24]
500064c8:	e3530000 	cmp	r3, #0
500064cc:	1a000001 	bne	500064d8 <df_sputs+0x34>
500064d0:	e3a03000 	mov	r3, #0
500064d4:	ea000019 	b	50006540 <df_sputs+0x9c>
500064d8:	ea000011 	b	50006524 <df_sputs+0x80>
500064dc:	e51b3014 	ldr	r3, [fp, #-20]
500064e0:	e5933000 	ldr	r3, [r3]
500064e4:	e1a02003 	mov	r2, r3
500064e8:	e51b3010 	ldr	r3, [fp, #-16]
500064ec:	e0833002 	add	r3, r3, r2
500064f0:	e51b2008 	ldr	r2, [fp, #-8]
500064f4:	e51b1018 	ldr	r1, [fp, #-24]
500064f8:	e0812002 	add	r2, r1, r2
500064fc:	e5d22000 	ldrb	r2, [r2]
50006500:	e5c32000 	strb	r2, [r3]
50006504:	e51b3014 	ldr	r3, [fp, #-20]
50006508:	e5933000 	ldr	r3, [r3]
5000650c:	e2832001 	add	r2, r3, #1
50006510:	e51b3014 	ldr	r3, [fp, #-20]
50006514:	e5832000 	str	r2, [r3]
50006518:	e51b3008 	ldr	r3, [fp, #-8]
5000651c:	e2833001 	add	r3, r3, #1
50006520:	e50b3008 	str	r3, [fp, #-8]
50006524:	e51b3008 	ldr	r3, [fp, #-8]
50006528:	e51b2018 	ldr	r2, [fp, #-24]
5000652c:	e0823003 	add	r3, r2, r3
50006530:	e5d33000 	ldrb	r3, [r3]
50006534:	e3530000 	cmp	r3, #0
50006538:	1affffe7 	bne	500064dc <df_sputs+0x38>
5000653c:	e51b3008 	ldr	r3, [fp, #-8]
50006540:	e1a00003 	mov	r0, r3
50006544:	e24bd000 	sub	sp, fp, #0
50006548:	e49db004 	pop	{fp}		; (ldr fp, [sp], #4)
5000654c:	e12fff1e 	bx	lr

50006550 <sprintf>:
50006550:	e92d000e 	push	{r1, r2, r3}
50006554:	e92d4800 	push	{fp, lr}
50006558:	e28db004 	add	fp, sp, #4
5000655c:	e24dd03c 	sub	sp, sp, #60	; 0x3c
50006560:	e50b003c 	str	r0, [fp, #-60]	; 0x3c
50006564:	e3a03000 	mov	r3, #0
50006568:	e50b3038 	str	r3, [fp, #-56]	; 0x38
5000656c:	e28b3008 	add	r3, fp, #8
50006570:	e50b3024 	str	r3, [fp, #-36]	; 0x24
50006574:	e3a03000 	mov	r3, #0
50006578:	e50b301c 	str	r3, [fp, #-28]
5000657c:	e51b301c 	ldr	r3, [fp, #-28]
50006580:	e50b3020 	str	r3, [fp, #-32]
50006584:	ea00013b 	b	50006a78 <sprintf+0x528>
50006588:	e59b3004 	ldr	r3, [fp, #4]
5000658c:	e2832001 	add	r2, r3, #1
50006590:	e58b2004 	str	r2, [fp, #4]
50006594:	e5d33000 	ldrb	r3, [r3]
50006598:	e54b3009 	strb	r3, [fp, #-9]
5000659c:	e55b3009 	ldrb	r3, [fp, #-9]
500065a0:	e3530000 	cmp	r3, #0
500065a4:	1a000000 	bne	500065ac <sprintf+0x5c>
500065a8:	ea000135 	b	50006a84 <sprintf+0x534>
500065ac:	e55b3009 	ldrb	r3, [fp, #-9]
500065b0:	e3530025 	cmp	r3, #37	; 0x25
500065b4:	0a00000e 	beq	500065f4 <sprintf+0xa4>
500065b8:	e55b3009 	ldrb	r3, [fp, #-9]
500065bc:	e24b2038 	sub	r2, fp, #56	; 0x38
500065c0:	e6af3073 	sxtb	r3, r3
500065c4:	e51b003c 	ldr	r0, [fp, #-60]	; 0x3c
500065c8:	e1a01002 	mov	r1, r2
500065cc:	e1a02003 	mov	r2, r3
500065d0:	ebffff9b 	bl	50006444 <df_sputc>
500065d4:	e50b0020 	str	r0, [fp, #-32]
500065d8:	e51b3020 	ldr	r3, [fp, #-32]
500065dc:	e3730001 	cmn	r3, #1
500065e0:	0a000002 	beq	500065f0 <sprintf+0xa0>
500065e4:	e3a03001 	mov	r3, #1
500065e8:	e50b3020 	str	r3, [fp, #-32]
500065ec:	ea00011d 	b	50006a68 <sprintf+0x518>
500065f0:	ea00011c 	b	50006a68 <sprintf+0x518>
500065f4:	e3a03000 	mov	r3, #0
500065f8:	e54b300a 	strb	r3, [fp, #-10]
500065fc:	e3a03000 	mov	r3, #0
50006600:	e50b3018 	str	r3, [fp, #-24]
50006604:	e59b3004 	ldr	r3, [fp, #4]
50006608:	e2832001 	add	r2, r3, #1
5000660c:	e58b2004 	str	r2, [fp, #4]
50006610:	e5d33000 	ldrb	r3, [r3]
50006614:	e54b3009 	strb	r3, [fp, #-9]
50006618:	e55b3009 	ldrb	r3, [fp, #-9]
5000661c:	e3530025 	cmp	r3, #37	; 0x25
50006620:	1a000008 	bne	50006648 <sprintf+0xf8>
50006624:	e55b3009 	ldrb	r3, [fp, #-9]
50006628:	e24b2038 	sub	r2, fp, #56	; 0x38
5000662c:	e6af3073 	sxtb	r3, r3
50006630:	e51b003c 	ldr	r0, [fp, #-60]	; 0x3c
50006634:	e1a01002 	mov	r1, r2
50006638:	e1a02003 	mov	r2, r3
5000663c:	ebffff80 	bl	50006444 <df_sputc>
50006640:	e50b0020 	str	r0, [fp, #-32]
50006644:	ea000107 	b	50006a68 <sprintf+0x518>
50006648:	e55b3009 	ldrb	r3, [fp, #-9]
5000664c:	e3530030 	cmp	r3, #48	; 0x30
50006650:	1a000006 	bne	50006670 <sprintf+0x120>
50006654:	e3a03001 	mov	r3, #1
50006658:	e54b300a 	strb	r3, [fp, #-10]
5000665c:	e59b3004 	ldr	r3, [fp, #4]
50006660:	e2832001 	add	r2, r3, #1
50006664:	e58b2004 	str	r2, [fp, #4]
50006668:	e5d33000 	ldrb	r3, [r3]
5000666c:	e54b3009 	strb	r3, [fp, #-9]
50006670:	e55b3009 	ldrb	r3, [fp, #-9]
50006674:	e3530020 	cmp	r3, #32
50006678:	1a000004 	bne	50006690 <sprintf+0x140>
5000667c:	e59b3004 	ldr	r3, [fp, #4]
50006680:	e2832001 	add	r2, r3, #1
50006684:	e58b2004 	str	r2, [fp, #4]
50006688:	e5d33000 	ldrb	r3, [r3]
5000668c:	e54b3009 	strb	r3, [fp, #-9]
50006690:	ea00000c 	b	500066c8 <sprintf+0x178>
50006694:	e51b3018 	ldr	r3, [fp, #-24]
50006698:	e1a03083 	lsl	r3, r3, #1
5000669c:	e1a02103 	lsl	r2, r3, #2
500066a0:	e0832002 	add	r2, r3, r2
500066a4:	e55b3009 	ldrb	r3, [fp, #-9]
500066a8:	e2433030 	sub	r3, r3, #48	; 0x30
500066ac:	e0823003 	add	r3, r2, r3
500066b0:	e50b3018 	str	r3, [fp, #-24]
500066b4:	e59b3004 	ldr	r3, [fp, #4]
500066b8:	e2832001 	add	r2, r3, #1
500066bc:	e58b2004 	str	r2, [fp, #4]
500066c0:	e5d33000 	ldrb	r3, [r3]
500066c4:	e54b3009 	strb	r3, [fp, #-9]
500066c8:	e55b3009 	ldrb	r3, [fp, #-9]
500066cc:	e353002f 	cmp	r3, #47	; 0x2f
500066d0:	9a000002 	bls	500066e0 <sprintf+0x190>
500066d4:	e55b3009 	ldrb	r3, [fp, #-9]
500066d8:	e3530039 	cmp	r3, #57	; 0x39
500066dc:	9affffec 	bls	50006694 <sprintf+0x144>
500066e0:	e55b3009 	ldrb	r3, [fp, #-9]
500066e4:	e353006c 	cmp	r3, #108	; 0x6c
500066e8:	1a000012 	bne	50006738 <sprintf+0x1e8>
500066ec:	e55b300a 	ldrb	r3, [fp, #-10]
500066f0:	e3833002 	orr	r3, r3, #2
500066f4:	e54b300a 	strb	r3, [fp, #-10]
500066f8:	e59b3004 	ldr	r3, [fp, #4]
500066fc:	e2832001 	add	r2, r3, #1
50006700:	e58b2004 	str	r2, [fp, #4]
50006704:	e5d33000 	ldrb	r3, [r3]
50006708:	e54b3009 	strb	r3, [fp, #-9]
5000670c:	e55b3009 	ldrb	r3, [fp, #-9]
50006710:	e353006c 	cmp	r3, #108	; 0x6c
50006714:	1a000007 	bne	50006738 <sprintf+0x1e8>
50006718:	e55b300a 	ldrb	r3, [fp, #-10]
5000671c:	e3833008 	orr	r3, r3, #8
50006720:	e54b300a 	strb	r3, [fp, #-10]
50006724:	e59b3004 	ldr	r3, [fp, #4]
50006728:	e2832001 	add	r2, r3, #1
5000672c:	e58b2004 	str	r2, [fp, #4]
50006730:	e5d33000 	ldrb	r3, [r3]
50006734:	e54b3009 	strb	r3, [fp, #-9]
50006738:	e55b3009 	ldrb	r3, [fp, #-9]
5000673c:	e3530073 	cmp	r3, #115	; 0x73
50006740:	1a00000a 	bne	50006770 <sprintf+0x220>
50006744:	e51b3024 	ldr	r3, [fp, #-36]	; 0x24
50006748:	e2832004 	add	r2, r3, #4
5000674c:	e50b2024 	str	r2, [fp, #-36]	; 0x24
50006750:	e5933000 	ldr	r3, [r3]
50006754:	e24b2038 	sub	r2, fp, #56	; 0x38
50006758:	e51b003c 	ldr	r0, [fp, #-60]	; 0x3c
5000675c:	e1a01002 	mov	r1, r2
50006760:	e1a02003 	mov	r2, r3
50006764:	ebffff4e 	bl	500064a4 <df_sputs>
50006768:	e50b0020 	str	r0, [fp, #-32]
5000676c:	ea0000bd 	b	50006a68 <sprintf+0x518>
50006770:	e55b3009 	ldrb	r3, [fp, #-9]
50006774:	e3530063 	cmp	r3, #99	; 0x63
50006778:	1a000012 	bne	500067c8 <sprintf+0x278>
5000677c:	e51b3024 	ldr	r3, [fp, #-36]	; 0x24
50006780:	e2832004 	add	r2, r3, #4
50006784:	e50b2024 	str	r2, [fp, #-36]	; 0x24
50006788:	e5933000 	ldr	r3, [r3]
5000678c:	e6ef3073 	uxtb	r3, r3
50006790:	e24b2038 	sub	r2, fp, #56	; 0x38
50006794:	e6af3073 	sxtb	r3, r3
50006798:	e51b003c 	ldr	r0, [fp, #-60]	; 0x3c
5000679c:	e1a01002 	mov	r1, r2
500067a0:	e1a02003 	mov	r2, r3
500067a4:	ebffff26 	bl	50006444 <df_sputc>
500067a8:	e50b0020 	str	r0, [fp, #-32]
500067ac:	e51b3020 	ldr	r3, [fp, #-32]
500067b0:	e3730001 	cmn	r3, #1
500067b4:	0a000002 	beq	500067c4 <sprintf+0x274>
500067b8:	e3a03001 	mov	r3, #1
500067bc:	e50b3020 	str	r3, [fp, #-32]
500067c0:	ea0000a8 	b	50006a68 <sprintf+0x518>
500067c4:	ea0000a7 	b	50006a68 <sprintf+0x518>
500067c8:	e3a03000 	mov	r3, #0
500067cc:	e54b300b 	strb	r3, [fp, #-11]
500067d0:	e55b3009 	ldrb	r3, [fp, #-9]
500067d4:	e3530064 	cmp	r3, #100	; 0x64
500067d8:	1a000001 	bne	500067e4 <sprintf+0x294>
500067dc:	e3a0300a 	mov	r3, #10
500067e0:	e54b300b 	strb	r3, [fp, #-11]
500067e4:	e55b3009 	ldrb	r3, [fp, #-9]
500067e8:	e3530075 	cmp	r3, #117	; 0x75
500067ec:	1a000001 	bne	500067f8 <sprintf+0x2a8>
500067f0:	e3a0300a 	mov	r3, #10
500067f4:	e54b300b 	strb	r3, [fp, #-11]
500067f8:	e55b3009 	ldrb	r3, [fp, #-9]
500067fc:	e3530058 	cmp	r3, #88	; 0x58
50006800:	0a000005 	beq	5000681c <sprintf+0x2cc>
50006804:	e55b3009 	ldrb	r3, [fp, #-9]
50006808:	e3530078 	cmp	r3, #120	; 0x78
5000680c:	0a000002 	beq	5000681c <sprintf+0x2cc>
50006810:	e55b3009 	ldrb	r3, [fp, #-9]
50006814:	e3530070 	cmp	r3, #112	; 0x70
50006818:	1a000001 	bne	50006824 <sprintf+0x2d4>
5000681c:	e3a03010 	mov	r3, #16
50006820:	e54b300b 	strb	r3, [fp, #-11]
50006824:	e55b300b 	ldrb	r3, [fp, #-11]
50006828:	e3530000 	cmp	r3, #0
5000682c:	1a000000 	bne	50006834 <sprintf+0x2e4>
50006830:	ea000093 	b	50006a84 <sprintf+0x534>
50006834:	e55b300a 	ldrb	r3, [fp, #-10]
50006838:	e2033008 	and	r3, r3, #8
5000683c:	e3530000 	cmp	r3, #0
50006840:	0a000008 	beq	50006868 <sprintf+0x318>
50006844:	e51b3024 	ldr	r3, [fp, #-36]	; 0x24
50006848:	e2833007 	add	r3, r3, #7
5000684c:	e3c33007 	bic	r3, r3, #7
50006850:	e2832008 	add	r2, r3, #8
50006854:	e50b2024 	str	r2, [fp, #-36]	; 0x24
50006858:	e1c320d0 	ldrd	r2, [r3]
5000685c:	e1a03002 	mov	r3, r2
50006860:	e50b3010 	str	r3, [fp, #-16]
50006864:	ea000016 	b	500068c4 <sprintf+0x374>
50006868:	e55b300a 	ldrb	r3, [fp, #-10]
5000686c:	e2033002 	and	r3, r3, #2
50006870:	e3530000 	cmp	r3, #0
50006874:	0a000005 	beq	50006890 <sprintf+0x340>
50006878:	e51b3024 	ldr	r3, [fp, #-36]	; 0x24
5000687c:	e2832004 	add	r2, r3, #4
50006880:	e50b2024 	str	r2, [fp, #-36]	; 0x24
50006884:	e5933000 	ldr	r3, [r3]
50006888:	e50b3010 	str	r3, [fp, #-16]
5000688c:	ea00000c 	b	500068c4 <sprintf+0x374>
50006890:	e55b3009 	ldrb	r3, [fp, #-9]
50006894:	e3530064 	cmp	r3, #100	; 0x64
50006898:	1a000004 	bne	500068b0 <sprintf+0x360>
5000689c:	e51b3024 	ldr	r3, [fp, #-36]	; 0x24
500068a0:	e2832004 	add	r2, r3, #4
500068a4:	e50b2024 	str	r2, [fp, #-36]	; 0x24
500068a8:	e5933000 	ldr	r3, [r3]
500068ac:	ea000003 	b	500068c0 <sprintf+0x370>
500068b0:	e51b3024 	ldr	r3, [fp, #-36]	; 0x24
500068b4:	e2832004 	add	r2, r3, #4
500068b8:	e50b2024 	str	r2, [fp, #-36]	; 0x24
500068bc:	e5933000 	ldr	r3, [r3]
500068c0:	e50b3010 	str	r3, [fp, #-16]
500068c4:	e55b3009 	ldrb	r3, [fp, #-9]
500068c8:	e3530064 	cmp	r3, #100	; 0x64
500068cc:	1a000008 	bne	500068f4 <sprintf+0x3a4>
500068d0:	e51b3010 	ldr	r3, [fp, #-16]
500068d4:	e3530000 	cmp	r3, #0
500068d8:	aa000005 	bge	500068f4 <sprintf+0x3a4>
500068dc:	e51b3010 	ldr	r3, [fp, #-16]
500068e0:	e2633000 	rsb	r3, r3, #0
500068e4:	e50b3010 	str	r3, [fp, #-16]
500068e8:	e55b300a 	ldrb	r3, [fp, #-10]
500068ec:	e3833004 	orr	r3, r3, #4
500068f0:	e54b300a 	strb	r3, [fp, #-10]
500068f4:	e3a0300f 	mov	r3, #15
500068f8:	e50b3014 	str	r3, [fp, #-20]
500068fc:	e24b2034 	sub	r2, fp, #52	; 0x34
50006900:	e51b3014 	ldr	r3, [fp, #-20]
50006904:	e0823003 	add	r3, r2, r3
50006908:	e3a02000 	mov	r2, #0
5000690c:	e5c32000 	strb	r2, [r3]
50006910:	e55b300b 	ldrb	r3, [fp, #-11]
50006914:	e51b2010 	ldr	r2, [fp, #-16]
50006918:	e1a00002 	mov	r0, r2
5000691c:	e1a01003 	mov	r1, r3
50006920:	eb00389c 	bl	50014b98 <__aeabi_uidivmod>
50006924:	e1a03001 	mov	r3, r1
50006928:	e6ef3073 	uxtb	r3, r3
5000692c:	e2833030 	add	r3, r3, #48	; 0x30
50006930:	e54b3009 	strb	r3, [fp, #-9]
50006934:	e55b3009 	ldrb	r3, [fp, #-9]
50006938:	e3530039 	cmp	r3, #57	; 0x39
5000693c:	9a000002 	bls	5000694c <sprintf+0x3fc>
50006940:	e55b3009 	ldrb	r3, [fp, #-9]
50006944:	e2833007 	add	r3, r3, #7
50006948:	e54b3009 	strb	r3, [fp, #-9]
5000694c:	e51b3014 	ldr	r3, [fp, #-20]
50006950:	e2433001 	sub	r3, r3, #1
50006954:	e50b3014 	str	r3, [fp, #-20]
50006958:	e55b1009 	ldrb	r1, [fp, #-9]
5000695c:	e24b2034 	sub	r2, fp, #52	; 0x34
50006960:	e51b3014 	ldr	r3, [fp, #-20]
50006964:	e0823003 	add	r3, r2, r3
50006968:	e1a02001 	mov	r2, r1
5000696c:	e5c32000 	strb	r2, [r3]
50006970:	e55b300b 	ldrb	r3, [fp, #-11]
50006974:	e51b0010 	ldr	r0, [fp, #-16]
50006978:	e1a01003 	mov	r1, r3
5000697c:	eb00380a 	bl	500149ac <__aeabi_uidiv>
50006980:	e1a03000 	mov	r3, r0
50006984:	e50b3010 	str	r3, [fp, #-16]
50006988:	e51b3014 	ldr	r3, [fp, #-20]
5000698c:	e3530000 	cmp	r3, #0
50006990:	0a000002 	beq	500069a0 <sprintf+0x450>
50006994:	e51b3010 	ldr	r3, [fp, #-16]
50006998:	e3530000 	cmp	r3, #0
5000699c:	1affffdb 	bne	50006910 <sprintf+0x3c0>
500069a0:	e51b3014 	ldr	r3, [fp, #-20]
500069a4:	e3530000 	cmp	r3, #0
500069a8:	0a00000b 	beq	500069dc <sprintf+0x48c>
500069ac:	e55b300a 	ldrb	r3, [fp, #-10]
500069b0:	e2033004 	and	r3, r3, #4
500069b4:	e3530000 	cmp	r3, #0
500069b8:	0a000007 	beq	500069dc <sprintf+0x48c>
500069bc:	e51b3014 	ldr	r3, [fp, #-20]
500069c0:	e2433001 	sub	r3, r3, #1
500069c4:	e50b3014 	str	r3, [fp, #-20]
500069c8:	e24b2034 	sub	r2, fp, #52	; 0x34
500069cc:	e51b3014 	ldr	r3, [fp, #-20]
500069d0:	e0823003 	add	r3, r2, r3
500069d4:	e3a0202d 	mov	r2, #45	; 0x2d
500069d8:	e5c32000 	strb	r2, [r3]
500069dc:	e51b3018 	ldr	r3, [fp, #-24]
500069e0:	e263300f 	rsb	r3, r3, #15
500069e4:	e50b3018 	str	r3, [fp, #-24]
500069e8:	ea00000e 	b	50006a28 <sprintf+0x4d8>
500069ec:	e51b3014 	ldr	r3, [fp, #-20]
500069f0:	e2433001 	sub	r3, r3, #1
500069f4:	e50b3014 	str	r3, [fp, #-20]
500069f8:	e55b300a 	ldrb	r3, [fp, #-10]
500069fc:	e2033001 	and	r3, r3, #1
50006a00:	e3530000 	cmp	r3, #0
50006a04:	0a000001 	beq	50006a10 <sprintf+0x4c0>
50006a08:	e3a01030 	mov	r1, #48	; 0x30
50006a0c:	ea000000 	b	50006a14 <sprintf+0x4c4>
50006a10:	e3a01020 	mov	r1, #32
50006a14:	e24b2034 	sub	r2, fp, #52	; 0x34
50006a18:	e51b3014 	ldr	r3, [fp, #-20]
50006a1c:	e0823003 	add	r3, r2, r3
50006a20:	e1a02001 	mov	r2, r1
50006a24:	e5c32000 	strb	r2, [r3]
50006a28:	e51b3014 	ldr	r3, [fp, #-20]
50006a2c:	e3530000 	cmp	r3, #0
50006a30:	0a000003 	beq	50006a44 <sprintf+0x4f4>
50006a34:	e51b2014 	ldr	r2, [fp, #-20]
50006a38:	e51b3018 	ldr	r3, [fp, #-24]
50006a3c:	e1520003 	cmp	r2, r3
50006a40:	caffffe9 	bgt	500069ec <sprintf+0x49c>
50006a44:	e24b2034 	sub	r2, fp, #52	; 0x34
50006a48:	e51b3014 	ldr	r3, [fp, #-20]
50006a4c:	e0823003 	add	r3, r2, r3
50006a50:	e24b2038 	sub	r2, fp, #56	; 0x38
50006a54:	e51b003c 	ldr	r0, [fp, #-60]	; 0x3c
50006a58:	e1a01002 	mov	r1, r2
50006a5c:	e1a02003 	mov	r2, r3
50006a60:	ebfffe8f 	bl	500064a4 <df_sputs>
50006a64:	e50b0020 	str	r0, [fp, #-32]
50006a68:	e51b201c 	ldr	r2, [fp, #-28]
50006a6c:	e51b3020 	ldr	r3, [fp, #-32]
50006a70:	e0823003 	add	r3, r2, r3
50006a74:	e50b301c 	str	r3, [fp, #-28]
50006a78:	e51b3020 	ldr	r3, [fp, #-32]
50006a7c:	e3730001 	cmn	r3, #1
50006a80:	1afffec0 	bne	50006588 <sprintf+0x38>
50006a84:	e51b3038 	ldr	r3, [fp, #-56]	; 0x38
50006a88:	e1a02003 	mov	r2, r3
50006a8c:	e51b303c 	ldr	r3, [fp, #-60]	; 0x3c
50006a90:	e0833002 	add	r3, r3, r2
50006a94:	e3a02000 	mov	r2, #0
50006a98:	e5c32000 	strb	r2, [r3]
50006a9c:	e51b3020 	ldr	r3, [fp, #-32]
50006aa0:	e3730001 	cmn	r3, #1
50006aa4:	1a000001 	bne	50006ab0 <sprintf+0x560>
50006aa8:	e51b3020 	ldr	r3, [fp, #-32]
50006aac:	ea000000 	b	50006ab4 <sprintf+0x564>
50006ab0:	e51b301c 	ldr	r3, [fp, #-28]
50006ab4:	e1a00003 	mov	r0, r3
50006ab8:	e24bd004 	sub	sp, fp, #4
50006abc:	e8bd4800 	pop	{fp, lr}
50006ac0:	e28dd00c 	add	sp, sp, #12
50006ac4:	e12fff1e 	bx	lr

50006ac8 <kernel_version>:
50006ac8:	e52db004 	push	{fp}		; (str fp, [sp, #-4]!)
50006acc:	e28db000 	add	fp, sp, #0
50006ad0:	e30535b4 	movw	r3, #21940	; 0x55b4
50006ad4:	e3453001 	movt	r3, #20481	; 0x5001
50006ad8:	e1a00003 	mov	r0, r3
50006adc:	e24bd000 	sub	sp, fp, #0
50006ae0:	e49db004 	pop	{fp}		; (ldr fp, [sp], #4)
50006ae4:	e12fff1e 	bx	lr

50006ae8 <banner>:
50006ae8:	e92d4800 	push	{fp, lr}
50006aec:	e28db004 	add	fp, sp, #4
50006af0:	e24dd050 	sub	sp, sp, #80	; 0x50
50006af4:	e30538f0 	movw	r3, #22768	; 0x58f0
50006af8:	e3453001 	movt	r3, #20481	; 0x5001
50006afc:	e24b2050 	sub	r2, fp, #80	; 0x50
50006b00:	e1a01003 	mov	r1, r3
50006b04:	e3a03048 	mov	r3, #72	; 0x48
50006b08:	e1a00002 	mov	r0, r2
50006b0c:	e1a02003 	mov	r2, r3
50006b10:	ebfffa72 	bl	500054e0 <memcpy>
50006b14:	e3a03000 	mov	r3, #0
50006b18:	e50b3008 	str	r3, [fp, #-8]
50006b1c:	ea00000b 	b	50006b50 <banner+0x68>
50006b20:	e51b3008 	ldr	r3, [fp, #-8]
50006b24:	e1a03103 	lsl	r3, r3, #2
50006b28:	e24b2004 	sub	r2, fp, #4
50006b2c:	e0823003 	add	r3, r2, r3
50006b30:	e513304c 	ldr	r3, [r3, #-76]	; 0x4c
50006b34:	e30505c8 	movw	r0, #21960	; 0x55c8
50006b38:	e3450001 	movt	r0, #20481	; 0x5001
50006b3c:	e1a01003 	mov	r1, r3
50006b40:	ebfff6db 	bl	500046b4 <serial_printf>
50006b44:	e51b3008 	ldr	r3, [fp, #-8]
50006b48:	e2833001 	add	r3, r3, #1
50006b4c:	e50b3008 	str	r3, [fp, #-8]
50006b50:	e51b3008 	ldr	r3, [fp, #-8]
50006b54:	e3530011 	cmp	r3, #17
50006b58:	dafffff0 	ble	50006b20 <banner+0x38>
50006b5c:	e30505d0 	movw	r0, #21968	; 0x55d0
50006b60:	e3450001 	movt	r0, #20481	; 0x5001
50006b64:	e30515dc 	movw	r1, #21980	; 0x55dc
50006b68:	e3451001 	movt	r1, #20481	; 0x5001
50006b6c:	e30525f4 	movw	r2, #22004	; 0x55f4
50006b70:	e3452001 	movt	r2, #20481	; 0x5001
50006b74:	e30535fc 	movw	r3, #22012	; 0x55fc
50006b78:	e3453001 	movt	r3, #20481	; 0x5001
50006b7c:	ebfff6cc 	bl	500046b4 <serial_printf>
50006b80:	ebffffd0 	bl	50006ac8 <kernel_version>
50006b84:	e1a03000 	mov	r3, r0
50006b88:	e3050604 	movw	r0, #22020	; 0x5604
50006b8c:	e3450001 	movt	r0, #20481	; 0x5001
50006b90:	e305160c 	movw	r1, #22028	; 0x560c
50006b94:	e3451001 	movt	r1, #20481	; 0x5001
50006b98:	e1a02003 	mov	r2, r3
50006b9c:	ebfff6c4 	bl	500046b4 <serial_printf>
50006ba0:	e30505c8 	movw	r0, #21960	; 0x55c8
50006ba4:	e3450001 	movt	r0, #20481	; 0x5001
50006ba8:	e305162c 	movw	r1, #22060	; 0x562c
50006bac:	e3451001 	movt	r1, #20481	; 0x5001
50006bb0:	ebfff6bf 	bl	500046b4 <serial_printf>
50006bb4:	e3050664 	movw	r0, #22116	; 0x5664
50006bb8:	e3450001 	movt	r0, #20481	; 0x5001
50006bbc:	ebfff6bc 	bl	500046b4 <serial_printf>
50006bc0:	e24bd004 	sub	sp, fp, #4
50006bc4:	e8bd8800 	pop	{fp, pc}

50006bc8 <T_shell>:
50006bc8:	e92d4800 	push	{fp, lr}
50006bcc:	e28db004 	add	fp, sp, #4
50006bd0:	e24ddb01 	sub	sp, sp, #1024	; 0x400
50006bd4:	e24dd008 	sub	sp, sp, #8
50006bd8:	e3a03000 	mov	r3, #0
50006bdc:	e50b3008 	str	r3, [fp, #-8]
50006be0:	ebffffc0 	bl	50006ae8 <banner>
50006be4:	eb0002ee 	bl	500077a4 <_shell_cmd_init>
50006be8:	eb00225f 	bl	5000f56c <tetris_cmd_init>
50006bec:	eb002d78 	bl	500121d4 <snake_cmd_init>
50006bf0:	eb001236 	bl	5000b4d0 <lian_cmd_init>
50006bf4:	eb000a1e 	bl	50009474 <date_cmd_init>
50006bf8:	eb0007d6 	bl	50008b58 <cal_cmd_init>
50006bfc:	e3050938 	movw	r0, #22840	; 0x5938
50006c00:	e3450001 	movt	r0, #20481	; 0x5001
50006c04:	ebfff63a 	bl	500044f4 <serial_puts>
50006c08:	e24b3b01 	sub	r3, fp, #1024	; 0x400
50006c0c:	e2433004 	sub	r3, r3, #4
50006c10:	e2433004 	sub	r3, r3, #4
50006c14:	e1a00003 	mov	r0, r3
50006c18:	eb00006d 	bl	50006dd4 <_get_cmd_line>
50006c1c:	e24b3b01 	sub	r3, fp, #1024	; 0x400
50006c20:	e2433004 	sub	r3, r3, #4
50006c24:	e2433004 	sub	r3, r3, #4
50006c28:	e1a00003 	mov	r0, r3
50006c2c:	eb000017 	bl	50006c90 <_del_front_space>
50006c30:	e50b0008 	str	r0, [fp, #-8]
50006c34:	e51b3008 	ldr	r3, [fp, #-8]
50006c38:	e5d33000 	ldrb	r3, [r3]
50006c3c:	e3530000 	cmp	r3, #0
50006c40:	1a000003 	bne	50006c54 <T_shell+0x8c>
50006c44:	e3050940 	movw	r0, #22848	; 0x5940
50006c48:	e3450001 	movt	r0, #20481	; 0x5001
50006c4c:	ebfff628 	bl	500044f4 <serial_puts>
50006c50:	ea00000b 	b	50006c84 <T_shell+0xbc>
50006c54:	e51b0008 	ldr	r0, [fp, #-8]
50006c58:	ebffe82f 	bl	50000d1c <cmd_do>
50006c5c:	e1a03000 	mov	r3, r0
50006c60:	e3730001 	cmn	r3, #1
50006c64:	1a000003 	bne	50006c78 <T_shell+0xb0>
50006c68:	e3050944 	movw	r0, #22852	; 0x5944
50006c6c:	e3450001 	movt	r0, #20481	; 0x5001
50006c70:	ebfff61f 	bl	500044f4 <serial_puts>
50006c74:	ea000003 	b	50006c88 <T_shell+0xc0>
50006c78:	e3050938 	movw	r0, #22840	; 0x5938
50006c7c:	e3450001 	movt	r0, #20481	; 0x5001
50006c80:	ebfff61b 	bl	500044f4 <serial_puts>
50006c84:	eaffffdf 	b	50006c08 <T_shell+0x40>
50006c88:	e24bd004 	sub	sp, fp, #4
50006c8c:	e8bd8800 	pop	{fp, pc}

50006c90 <_del_front_space>:
50006c90:	e92d4800 	push	{fp, lr}
50006c94:	e28db004 	add	fp, sp, #4
50006c98:	e24dd008 	sub	sp, sp, #8
50006c9c:	e50b0008 	str	r0, [fp, #-8]
50006ca0:	ea000002 	b	50006cb0 <_del_front_space+0x20>
50006ca4:	e51b3008 	ldr	r3, [fp, #-8]
50006ca8:	e2833001 	add	r3, r3, #1
50006cac:	e50b3008 	str	r3, [fp, #-8]
50006cb0:	e51b3008 	ldr	r3, [fp, #-8]
50006cb4:	e5d33000 	ldrb	r3, [r3]
50006cb8:	e6af3073 	sxtb	r3, r3
50006cbc:	e1a00003 	mov	r0, r3
50006cc0:	ebfffd35 	bl	5000619c <isspace>
50006cc4:	e1a03000 	mov	r3, r0
50006cc8:	e3530000 	cmp	r3, #0
50006ccc:	1afffff4 	bne	50006ca4 <_del_front_space+0x14>
50006cd0:	e51b3008 	ldr	r3, [fp, #-8]
50006cd4:	e1a00003 	mov	r0, r3
50006cd8:	e24bd004 	sub	sp, fp, #4
50006cdc:	e8bd8800 	pop	{fp, pc}

50006ce0 <_get_last_cmd_len>:
50006ce0:	e92d4800 	push	{fp, lr}
50006ce4:	e28db004 	add	fp, sp, #4
50006ce8:	e24dd010 	sub	sp, sp, #16
50006cec:	e50b0010 	str	r0, [fp, #-16]
50006cf0:	e51b0010 	ldr	r0, [fp, #-16]
50006cf4:	ebfff8aa 	bl	50004fa4 <strlen>
50006cf8:	e1a03000 	mov	r3, r0
50006cfc:	e50b3008 	str	r3, [fp, #-8]
50006d00:	e51b3008 	ldr	r3, [fp, #-8]
50006d04:	e51b0010 	ldr	r0, [fp, #-16]
50006d08:	e3a01020 	mov	r1, #32
50006d0c:	e1a02003 	mov	r2, r3
50006d10:	ebfff956 	bl	50005270 <memrchr>
50006d14:	e50b000c 	str	r0, [fp, #-12]
50006d18:	e51b300c 	ldr	r3, [fp, #-12]
50006d1c:	e3530000 	cmp	r3, #0
50006d20:	1a000001 	bne	50006d2c <_get_last_cmd_len+0x4c>
50006d24:	e51b3008 	ldr	r3, [fp, #-8]
50006d28:	ea000005 	b	50006d44 <_get_last_cmd_len+0x64>
50006d2c:	e51b200c 	ldr	r2, [fp, #-12]
50006d30:	e51b3010 	ldr	r3, [fp, #-16]
50006d34:	e0633002 	rsb	r3, r3, r2
50006d38:	e1e02003 	mvn	r2, r3
50006d3c:	e51b3008 	ldr	r3, [fp, #-8]
50006d40:	e0823003 	add	r3, r2, r3
50006d44:	e1a00003 	mov	r0, r3
50006d48:	e24bd004 	sub	sp, fp, #4
50006d4c:	e8bd8800 	pop	{fp, pc}

50006d50 <_load_history>:
50006d50:	e92d4800 	push	{fp, lr}
50006d54:	e28db004 	add	fp, sp, #4
50006d58:	e24dd010 	sub	sp, sp, #16
50006d5c:	e50b0008 	str	r0, [fp, #-8]
50006d60:	e50b100c 	str	r1, [fp, #-12]
50006d64:	e50b2010 	str	r2, [fp, #-16]
50006d68:	e51b3010 	ldr	r3, [fp, #-16]
50006d6c:	e3530000 	cmp	r3, #0
50006d70:	0a000013 	beq	50006dc4 <_load_history+0x74>
50006d74:	ea000002 	b	50006d84 <_load_history+0x34>
50006d78:	e3050954 	movw	r0, #22868	; 0x5954
50006d7c:	e3450001 	movt	r0, #20481	; 0x5001
50006d80:	ebfff5db 	bl	500044f4 <serial_puts>
50006d84:	e51b300c 	ldr	r3, [fp, #-12]
50006d88:	e2432001 	sub	r2, r3, #1
50006d8c:	e50b200c 	str	r2, [fp, #-12]
50006d90:	e3530000 	cmp	r3, #0
50006d94:	1afffff7 	bne	50006d78 <_load_history+0x28>
50006d98:	e51b3010 	ldr	r3, [fp, #-16]
50006d9c:	e2833008 	add	r3, r3, #8
50006da0:	e51b0008 	ldr	r0, [fp, #-8]
50006da4:	e1a01003 	mov	r1, r3
50006da8:	ebfff787 	bl	50004bcc <strcpy>
50006dac:	e51b0008 	ldr	r0, [fp, #-8]
50006db0:	ebfff5cf 	bl	500044f4 <serial_puts>
50006db4:	e51b0008 	ldr	r0, [fp, #-8]
50006db8:	ebfff879 	bl	50004fa4 <strlen>
50006dbc:	e1a03000 	mov	r3, r0
50006dc0:	e50b300c 	str	r3, [fp, #-12]
50006dc4:	e51b300c 	ldr	r3, [fp, #-12]
50006dc8:	e1a00003 	mov	r0, r3
50006dcc:	e24bd004 	sub	sp, fp, #4
50006dd0:	e8bd8800 	pop	{fp, pc}

50006dd4 <_get_cmd_line>:
50006dd4:	e92d4800 	push	{fp, lr}
50006dd8:	e28db004 	add	fp, sp, #4
50006ddc:	e24ddf4a 	sub	sp, sp, #296	; 0x128
50006de0:	e50b0128 	str	r0, [fp, #-296]	; 0x128
50006de4:	e3a03000 	mov	r3, #0
50006de8:	e50b3008 	str	r3, [fp, #-8]
50006dec:	e3a03000 	mov	r3, #0
50006df0:	e50b3120 	str	r3, [fp, #-288]	; 0x120
50006df4:	e24b3f47 	sub	r3, fp, #284	; 0x11c
50006df8:	e3a020fc 	mov	r2, #252	; 0xfc
50006dfc:	e1a00003 	mov	r0, r3
50006e00:	e3a01000 	mov	r1, #0
50006e04:	ebfffa02 	bl	50005614 <memset>
50006e08:	e3a03000 	mov	r3, #0
50006e0c:	e50b300c 	str	r3, [fp, #-12]
50006e10:	e3a03000 	mov	r3, #0
50006e14:	e50b3010 	str	r3, [fp, #-16]
50006e18:	e3a03000 	mov	r3, #0
50006e1c:	e50b3014 	str	r3, [fp, #-20]
50006e20:	ea0000a7 	b	500070c4 <_get_cmd_line+0x2f0>
50006e24:	ebfff58f 	bl	50004468 <serial_getc>
50006e28:	e50b0018 	str	r0, [fp, #-24]
50006e2c:	e51b3018 	ldr	r3, [fp, #-24]
50006e30:	e3530009 	cmp	r3, #9
50006e34:	0a000019 	beq	50006ea0 <_get_cmd_line+0xcc>
50006e38:	e51b300c 	ldr	r3, [fp, #-12]
50006e3c:	e3530000 	cmp	r3, #0
50006e40:	0a000016 	beq	50006ea0 <_get_cmd_line+0xcc>
50006e44:	e51b0128 	ldr	r0, [fp, #-296]	; 0x128
50006e48:	ebfff855 	bl	50004fa4 <strlen>
50006e4c:	e1a03000 	mov	r3, r0
50006e50:	e50b301c 	str	r3, [fp, #-28]
50006e54:	e51b0128 	ldr	r0, [fp, #-296]	; 0x128
50006e58:	ebffffa0 	bl	50006ce0 <_get_last_cmd_len>
50006e5c:	e50b0020 	str	r0, [fp, #-32]
50006e60:	e51b201c 	ldr	r2, [fp, #-28]
50006e64:	e51b3020 	ldr	r3, [fp, #-32]
50006e68:	e0633002 	rsb	r3, r3, r2
50006e6c:	e1a02003 	mov	r2, r3
50006e70:	e51b3128 	ldr	r3, [fp, #-296]	; 0x128
50006e74:	e0832002 	add	r2, r3, r2
50006e78:	e24b3e12 	sub	r3, fp, #288	; 0x120
50006e7c:	e1a00002 	mov	r0, r2
50006e80:	e1a01003 	mov	r1, r3
50006e84:	ebfff750 	bl	50004bcc <strcpy>
50006e88:	e51b0128 	ldr	r0, [fp, #-296]	; 0x128
50006e8c:	ebfff844 	bl	50004fa4 <strlen>
50006e90:	e1a03000 	mov	r3, r0
50006e94:	e50b3008 	str	r3, [fp, #-8]
50006e98:	e3a03000 	mov	r3, #0
50006e9c:	e50b300c 	str	r3, [fp, #-12]
50006ea0:	e51b3018 	ldr	r3, [fp, #-24]
50006ea4:	e2433008 	sub	r3, r3, #8
50006ea8:	e3530013 	cmp	r3, #19
50006eac:	979ff103 	ldrls	pc, [pc, r3, lsl #2]
50006eb0:	ea000074 	b	50007088 <_get_cmd_line+0x2b4>
50006eb4:	50006f24 	.word	0x50006f24
50006eb8:	50006f4c 	.word	0x50006f4c
50006ebc:	50007088 	.word	0x50007088
50006ec0:	50007088 	.word	0x50007088
50006ec4:	50007088 	.word	0x50007088
50006ec8:	50006f04 	.word	0x50006f04
50006ecc:	50007088 	.word	0x50007088
50006ed0:	50007088 	.word	0x50007088
50006ed4:	50007088 	.word	0x50007088
50006ed8:	50007088 	.word	0x50007088
50006edc:	50007088 	.word	0x50007088
50006ee0:	50007088 	.word	0x50007088
50006ee4:	50007088 	.word	0x50007088
50006ee8:	50007088 	.word	0x50007088
50006eec:	50007088 	.word	0x50007088
50006ef0:	50007088 	.word	0x50007088
50006ef4:	50007088 	.word	0x50007088
50006ef8:	50007088 	.word	0x50007088
50006efc:	50007088 	.word	0x50007088
50006f00:	50006fb0 	.word	0x50006fb0
50006f04:	e51b3008 	ldr	r3, [fp, #-8]
50006f08:	e51b2128 	ldr	r2, [fp, #-296]	; 0x128
50006f0c:	e0823003 	add	r3, r2, r3
50006f10:	e3a02000 	mov	r2, #0
50006f14:	e5c32000 	strb	r2, [r3]
50006f18:	e3a0000a 	mov	r0, #10
50006f1c:	ebfff562 	bl	500044ac <serial_putc>
50006f20:	ea000075 	b	500070fc <_get_cmd_line+0x328>
50006f24:	e51b3008 	ldr	r3, [fp, #-8]
50006f28:	e3530000 	cmp	r3, #0
50006f2c:	da000005 	ble	50006f48 <_get_cmd_line+0x174>
50006f30:	e3050954 	movw	r0, #22868	; 0x5954
50006f34:	e3450001 	movt	r0, #20481	; 0x5001
50006f38:	ebfff56d 	bl	500044f4 <serial_puts>
50006f3c:	e51b3008 	ldr	r3, [fp, #-8]
50006f40:	e2433001 	sub	r3, r3, #1
50006f44:	e50b3008 	str	r3, [fp, #-8]
50006f48:	ea00005d 	b	500070c4 <_get_cmd_line+0x2f0>
50006f4c:	e3a03001 	mov	r3, #1
50006f50:	e50b300c 	str	r3, [fp, #-12]
50006f54:	e51b3008 	ldr	r3, [fp, #-8]
50006f58:	e51b2128 	ldr	r2, [fp, #-296]	; 0x128
50006f5c:	e0823003 	add	r3, r2, r3
50006f60:	e3a02000 	mov	r2, #0
50006f64:	e5c32000 	strb	r2, [r3]
50006f68:	ea000002 	b	50006f78 <_get_cmd_line+0x1a4>
50006f6c:	e3050954 	movw	r0, #22868	; 0x5954
50006f70:	e3450001 	movt	r0, #20481	; 0x5001
50006f74:	ebfff55e 	bl	500044f4 <serial_puts>
50006f78:	e51b3008 	ldr	r3, [fp, #-8]
50006f7c:	e2432001 	sub	r2, r3, #1
50006f80:	e50b2008 	str	r2, [fp, #-8]
50006f84:	e3530000 	cmp	r3, #0
50006f88:	1afffff7 	bne	50006f6c <_get_cmd_line+0x198>
50006f8c:	e24b3e12 	sub	r3, fp, #288	; 0x120
50006f90:	e51b0128 	ldr	r0, [fp, #-296]	; 0x128
50006f94:	e1a01003 	mov	r1, r3
50006f98:	ebffe7c4 	bl	50000eb0 <cmd_tab>
50006f9c:	e50b0008 	str	r0, [fp, #-8]
50006fa0:	e24b3e12 	sub	r3, fp, #288	; 0x120
50006fa4:	e1a00003 	mov	r0, r3
50006fa8:	ebfff551 	bl	500044f4 <serial_puts>
50006fac:	ea000044 	b	500070c4 <_get_cmd_line+0x2f0>
50006fb0:	ebfff549 	bl	500044dc <serial_tstc>
50006fb4:	e1a03000 	mov	r3, r0
50006fb8:	e3530000 	cmp	r3, #0
50006fbc:	0a000030 	beq	50007084 <_get_cmd_line+0x2b0>
50006fc0:	ebfff528 	bl	50004468 <serial_getc>
50006fc4:	e1a03000 	mov	r3, r0
50006fc8:	e353005b 	cmp	r3, #91	; 0x5b
50006fcc:	1a00002c 	bne	50007084 <_get_cmd_line+0x2b0>
50006fd0:	ebfff541 	bl	500044dc <serial_tstc>
50006fd4:	e1a03000 	mov	r3, r0
50006fd8:	e3530000 	cmp	r3, #0
50006fdc:	0a000028 	beq	50007084 <_get_cmd_line+0x2b0>
50006fe0:	ebfff520 	bl	50004468 <serial_getc>
50006fe4:	e50b0018 	str	r0, [fp, #-24]
50006fe8:	e51b3018 	ldr	r3, [fp, #-24]
50006fec:	e2433041 	sub	r3, r3, #65	; 0x41
50006ff0:	e3530003 	cmp	r3, #3
50006ff4:	979ff103 	ldrls	pc, [pc, r3, lsl #2]
50006ff8:	ea000020 	b	50007080 <_get_cmd_line+0x2ac>
50006ffc:	5000700c 	.word	0x5000700c
50007000:	50007050 	.word	0x50007050
50007004:	50007080 	.word	0x50007080
50007008:	50007080 	.word	0x50007080
5000700c:	e51b3010 	ldr	r3, [fp, #-16]
50007010:	e3530000 	cmp	r3, #0
50007014:	1a000004 	bne	5000702c <_get_cmd_line+0x258>
50007018:	e3073868 	movw	r3, #30824	; 0x7868
5000701c:	e3453001 	movt	r3, #20481	; 0x5001
50007020:	e5933004 	ldr	r3, [r3, #4]
50007024:	e50b3010 	str	r3, [fp, #-16]
50007028:	ea000002 	b	50007038 <_get_cmd_line+0x264>
5000702c:	e51b3010 	ldr	r3, [fp, #-16]
50007030:	e5933004 	ldr	r3, [r3, #4]
50007034:	e50b3010 	str	r3, [fp, #-16]
50007038:	e51b0128 	ldr	r0, [fp, #-296]	; 0x128
5000703c:	e51b1008 	ldr	r1, [fp, #-8]
50007040:	e51b2010 	ldr	r2, [fp, #-16]
50007044:	ebffff41 	bl	50006d50 <_load_history>
50007048:	e50b0008 	str	r0, [fp, #-8]
5000704c:	ea00000c 	b	50007084 <_get_cmd_line+0x2b0>
50007050:	e51b3010 	ldr	r3, [fp, #-16]
50007054:	e3530000 	cmp	r3, #0
50007058:	0a000002 	beq	50007068 <_get_cmd_line+0x294>
5000705c:	e51b3010 	ldr	r3, [fp, #-16]
50007060:	e5933000 	ldr	r3, [r3]
50007064:	e50b3010 	str	r3, [fp, #-16]
50007068:	e51b0128 	ldr	r0, [fp, #-296]	; 0x128
5000706c:	e51b1008 	ldr	r1, [fp, #-8]
50007070:	e51b2010 	ldr	r2, [fp, #-16]
50007074:	ebffff35 	bl	50006d50 <_load_history>
50007078:	e50b0008 	str	r0, [fp, #-8]
5000707c:	ea000000 	b	50007084 <_get_cmd_line+0x2b0>
50007080:	e1a00000 	nop			; (mov r0, r0)
50007084:	ea00000e 	b	500070c4 <_get_cmd_line+0x2f0>
50007088:	e51b3008 	ldr	r3, [fp, #-8]
5000708c:	e2832001 	add	r2, r3, #1
50007090:	e50b2008 	str	r2, [fp, #-8]
50007094:	e1a02003 	mov	r2, r3
50007098:	e51b3128 	ldr	r3, [fp, #-296]	; 0x128
5000709c:	e0833002 	add	r3, r3, r2
500070a0:	e51b2018 	ldr	r2, [fp, #-24]
500070a4:	e6ef2072 	uxtb	r2, r2
500070a8:	e5c32000 	strb	r2, [r3]
500070ac:	e51b3018 	ldr	r3, [fp, #-24]
500070b0:	e6ef3073 	uxtb	r3, r3
500070b4:	e6af3073 	sxtb	r3, r3
500070b8:	e1a00003 	mov	r0, r3
500070bc:	ebfff4fa 	bl	500044ac <serial_putc>
500070c0:	e1a00000 	nop			; (mov r0, r0)
500070c4:	e51b3008 	ldr	r3, [fp, #-8]
500070c8:	e3530b01 	cmp	r3, #1024	; 0x400
500070cc:	baffff54 	blt	50006e24 <_get_cmd_line+0x50>
500070d0:	e51b3008 	ldr	r3, [fp, #-8]
500070d4:	e3530b01 	cmp	r3, #1024	; 0x400
500070d8:	1a000007 	bne	500070fc <_get_cmd_line+0x328>
500070dc:	e51b3128 	ldr	r3, [fp, #-296]	; 0x128
500070e0:	e2833fff 	add	r3, r3, #1020	; 0x3fc
500070e4:	e2833003 	add	r3, r3, #3
500070e8:	e3a02000 	mov	r2, #0
500070ec:	e5c32000 	strb	r2, [r3]
500070f0:	e51b3008 	ldr	r3, [fp, #-8]
500070f4:	e2433001 	sub	r3, r3, #1
500070f8:	e50b3008 	str	r3, [fp, #-8]
500070fc:	e51b3008 	ldr	r3, [fp, #-8]
50007100:	e3530000 	cmp	r3, #0
50007104:	0a00002b 	beq	500071b8 <_get_cmd_line+0x3e4>
50007108:	e3073868 	movw	r3, #30824	; 0x7868
5000710c:	e3453001 	movt	r3, #20481	; 0x5001
50007110:	e5933000 	ldr	r3, [r3]
50007114:	e3530000 	cmp	r3, #0
50007118:	0a000009 	beq	50007144 <_get_cmd_line+0x370>
5000711c:	e3073868 	movw	r3, #30824	; 0x7868
50007120:	e3453001 	movt	r3, #20481	; 0x5001
50007124:	e5933004 	ldr	r3, [r3, #4]
50007128:	e2833008 	add	r3, r3, #8
5000712c:	e51b0128 	ldr	r0, [fp, #-296]	; 0x128
50007130:	e1a01003 	mov	r1, r3
50007134:	ebfff711 	bl	50004d80 <strcmp>
50007138:	e1a03000 	mov	r3, r0
5000713c:	e3530000 	cmp	r3, #0
50007140:	0a00001c 	beq	500071b8 <_get_cmd_line+0x3e4>
50007144:	e3073870 	movw	r3, #30832	; 0x7870
50007148:	e3453001 	movt	r3, #20481	; 0x5001
5000714c:	e5933000 	ldr	r3, [r3]
50007150:	e3530002 	cmp	r3, #2
50007154:	ca00000a 	bgt	50007184 <_get_cmd_line+0x3b0>
50007158:	e3000408 	movw	r0, #1032	; 0x408
5000715c:	ebffea95 	bl	50001bb8 <memH_malloc>
50007160:	e50b0014 	str	r0, [fp, #-20]
50007164:	e3073870 	movw	r3, #30832	; 0x7870
50007168:	e3453001 	movt	r3, #20481	; 0x5001
5000716c:	e5933000 	ldr	r3, [r3]
50007170:	e2832001 	add	r2, r3, #1
50007174:	e3073870 	movw	r3, #30832	; 0x7870
50007178:	e3453001 	movt	r3, #20481	; 0x5001
5000717c:	e5832000 	str	r2, [r3]
50007180:	ea000003 	b	50007194 <_get_cmd_line+0x3c0>
50007184:	e3070868 	movw	r0, #30824	; 0x7868
50007188:	e3450001 	movt	r0, #20481	; 0x5001
5000718c:	ebffe8f7 	bl	50001570 <dlist_get>
50007190:	e50b0014 	str	r0, [fp, #-20]
50007194:	e51b3014 	ldr	r3, [fp, #-20]
50007198:	e2833008 	add	r3, r3, #8
5000719c:	e1a00003 	mov	r0, r3
500071a0:	e51b1128 	ldr	r1, [fp, #-296]	; 0x128
500071a4:	ebfff688 	bl	50004bcc <strcpy>
500071a8:	e3070868 	movw	r0, #30824	; 0x7868
500071ac:	e3450001 	movt	r0, #20481	; 0x5001
500071b0:	e51b1014 	ldr	r1, [fp, #-20]
500071b4:	ebffe8bc 	bl	500014ac <dlist_add>
500071b8:	e51b3008 	ldr	r3, [fp, #-8]
500071bc:	e1a00003 	mov	r0, r3
500071c0:	e24bd004 	sub	sp, fp, #4
500071c4:	e8bd8800 	pop	{fp, pc}

500071c8 <C_shell_exit>:
500071c8:	e52db004 	push	{fp}		; (str fp, [sp, #-4]!)
500071cc:	e28db000 	add	fp, sp, #0
500071d0:	e3e03000 	mvn	r3, #0
500071d4:	e1a00003 	mov	r0, r3
500071d8:	e24bd000 	sub	sp, fp, #0
500071dc:	e49db004 	pop	{fp}		; (ldr fp, [sp], #4)
500071e0:	e12fff1e 	bx	lr

500071e4 <C_show_memory>:
500071e4:	e92d4800 	push	{fp, lr}
500071e8:	e28db004 	add	fp, sp, #4
500071ec:	e24dd010 	sub	sp, sp, #16
500071f0:	e50b0010 	str	r0, [fp, #-16]
500071f4:	e50b1014 	str	r1, [fp, #-20]
500071f8:	e3a03001 	mov	r3, #1
500071fc:	e50b3008 	str	r3, [fp, #-8]
50007200:	e3a03000 	mov	r3, #0
50007204:	e50b300c 	str	r3, [fp, #-12]
50007208:	e51b3010 	ldr	r3, [fp, #-16]
5000720c:	e3530001 	cmp	r3, #1
50007210:	da000008 	ble	50007238 <C_show_memory+0x54>
50007214:	e51b3014 	ldr	r3, [fp, #-20]
50007218:	e2833004 	add	r3, r3, #4
5000721c:	e5932000 	ldr	r2, [r3]
50007220:	e24b300c 	sub	r3, fp, #12
50007224:	e1a00002 	mov	r0, r2
50007228:	e3051958 	movw	r1, #22872	; 0x5958
5000722c:	e3451001 	movt	r1, #20481	; 0x5001
50007230:	e1a02003 	mov	r2, r3
50007234:	ebfffc52 	bl	50006384 <sscanf>
50007238:	e51b3010 	ldr	r3, [fp, #-16]
5000723c:	e3530002 	cmp	r3, #2
50007240:	da000008 	ble	50007268 <C_show_memory+0x84>
50007244:	e51b3014 	ldr	r3, [fp, #-20]
50007248:	e2833008 	add	r3, r3, #8
5000724c:	e5932000 	ldr	r2, [r3]
50007250:	e24b3008 	sub	r3, fp, #8
50007254:	e1a00002 	mov	r0, r2
50007258:	e3051960 	movw	r1, #22880	; 0x5960
5000725c:	e3451001 	movt	r1, #20481	; 0x5001
50007260:	e1a02003 	mov	r2, r3
50007264:	ebfffc46 	bl	50006384 <sscanf>
50007268:	ea00000a 	b	50007298 <C_show_memory+0xb4>
5000726c:	e51b200c 	ldr	r2, [fp, #-12]
50007270:	e51b300c 	ldr	r3, [fp, #-12]
50007274:	e5933000 	ldr	r3, [r3]
50007278:	e3050964 	movw	r0, #22884	; 0x5964
5000727c:	e3450001 	movt	r0, #20481	; 0x5001
50007280:	e1a01002 	mov	r1, r2
50007284:	e1a02003 	mov	r2, r3
50007288:	ebfff509 	bl	500046b4 <serial_printf>
5000728c:	e51b300c 	ldr	r3, [fp, #-12]
50007290:	e2833004 	add	r3, r3, #4
50007294:	e50b300c 	str	r3, [fp, #-12]
50007298:	e51b3008 	ldr	r3, [fp, #-8]
5000729c:	e2432001 	sub	r2, r3, #1
500072a0:	e50b2008 	str	r2, [fp, #-8]
500072a4:	e3530000 	cmp	r3, #0
500072a8:	1affffef 	bne	5000726c <C_show_memory+0x88>
500072ac:	e3a03000 	mov	r3, #0
500072b0:	e1a00003 	mov	r0, r3
500072b4:	e24bd004 	sub	sp, fp, #4
500072b8:	e8bd8800 	pop	{fp, pc}

500072bc <C_set_memory>:
500072bc:	e92d4800 	push	{fp, lr}
500072c0:	e28db004 	add	fp, sp, #4
500072c4:	e24dd018 	sub	sp, sp, #24
500072c8:	e50b0018 	str	r0, [fp, #-24]
500072cc:	e50b101c 	str	r1, [fp, #-28]
500072d0:	e3a03000 	mov	r3, #0
500072d4:	e50b3008 	str	r3, [fp, #-8]
500072d8:	e3a03000 	mov	r3, #0
500072dc:	e50b300c 	str	r3, [fp, #-12]
500072e0:	e3a03001 	mov	r3, #1
500072e4:	e50b3010 	str	r3, [fp, #-16]
500072e8:	e51b3018 	ldr	r3, [fp, #-24]
500072ec:	e3530002 	cmp	r3, #2
500072f0:	da000018 	ble	50007358 <C_set_memory+0x9c>
500072f4:	e51b301c 	ldr	r3, [fp, #-28]
500072f8:	e2833004 	add	r3, r3, #4
500072fc:	e5932000 	ldr	r2, [r3]
50007300:	e24b3008 	sub	r3, fp, #8
50007304:	e1a00002 	mov	r0, r2
50007308:	e3051958 	movw	r1, #22872	; 0x5958
5000730c:	e3451001 	movt	r1, #20481	; 0x5001
50007310:	e1a02003 	mov	r2, r3
50007314:	ebfffc1a 	bl	50006384 <sscanf>
50007318:	e51b301c 	ldr	r3, [fp, #-28]
5000731c:	e2833008 	add	r3, r3, #8
50007320:	e5932000 	ldr	r2, [r3]
50007324:	e24b300c 	sub	r3, fp, #12
50007328:	e1a00002 	mov	r0, r2
5000732c:	e3051958 	movw	r1, #22872	; 0x5958
50007330:	e3451001 	movt	r1, #20481	; 0x5001
50007334:	e1a02003 	mov	r2, r3
50007338:	ebfffc11 	bl	50006384 <sscanf>
5000733c:	e51b3008 	ldr	r3, [fp, #-8]
50007340:	e51b200c 	ldr	r2, [fp, #-12]
50007344:	e5832000 	str	r2, [r3]
50007348:	e51b3018 	ldr	r3, [fp, #-24]
5000734c:	e3530003 	cmp	r3, #3
50007350:	da00000b 	ble	50007384 <C_set_memory+0xc8>
50007354:	ea000001 	b	50007360 <C_set_memory+0xa4>
50007358:	e3e03002 	mvn	r3, #2
5000735c:	ea000015 	b	500073b8 <C_set_memory+0xfc>
50007360:	e51b301c 	ldr	r3, [fp, #-28]
50007364:	e283300c 	add	r3, r3, #12
50007368:	e5932000 	ldr	r2, [r3]
5000736c:	e24b3010 	sub	r3, fp, #16
50007370:	e1a00002 	mov	r0, r2
50007374:	e3051960 	movw	r1, #22880	; 0x5960
50007378:	e3451001 	movt	r1, #20481	; 0x5001
5000737c:	e1a02003 	mov	r2, r3
50007380:	ebfffbff 	bl	50006384 <sscanf>
50007384:	ea000005 	b	500073a0 <C_set_memory+0xe4>
50007388:	e51b3008 	ldr	r3, [fp, #-8]
5000738c:	e51b200c 	ldr	r2, [fp, #-12]
50007390:	e5832000 	str	r2, [r3]
50007394:	e51b3008 	ldr	r3, [fp, #-8]
50007398:	e2833004 	add	r3, r3, #4
5000739c:	e50b3008 	str	r3, [fp, #-8]
500073a0:	e51b3010 	ldr	r3, [fp, #-16]
500073a4:	e2432001 	sub	r2, r3, #1
500073a8:	e50b2010 	str	r2, [fp, #-16]
500073ac:	e3530000 	cmp	r3, #0
500073b0:	1afffff4 	bne	50007388 <C_set_memory+0xcc>
500073b4:	e3a03000 	mov	r3, #0
500073b8:	e1a00003 	mov	r0, r3
500073bc:	e24bd004 	sub	sp, fp, #4
500073c0:	e8bd8800 	pop	{fp, pc}

500073c4 <C_put_fifo>:
500073c4:	e92d4800 	push	{fp, lr}
500073c8:	e28db004 	add	fp, sp, #4
500073cc:	e24dd010 	sub	sp, sp, #16
500073d0:	e50b0010 	str	r0, [fp, #-16]
500073d4:	e50b1014 	str	r1, [fp, #-20]
500073d8:	e3a03000 	mov	r3, #0
500073dc:	e50b300c 	str	r3, [fp, #-12]
500073e0:	e3a03001 	mov	r3, #1
500073e4:	e50b3008 	str	r3, [fp, #-8]
500073e8:	e3073860 	movw	r3, #30816	; 0x7860
500073ec:	e3453001 	movt	r3, #20481	; 0x5001
500073f0:	e5933000 	ldr	r3, [r3]
500073f4:	e3530000 	cmp	r3, #0
500073f8:	1a000006 	bne	50007418 <C_put_fifo+0x54>
500073fc:	e3a00003 	mov	r0, #3
50007400:	e3a01004 	mov	r1, #4
50007404:	ebffe8c7 	bl	50001728 <fifo_create>
50007408:	e1a02000 	mov	r2, r0
5000740c:	e3073860 	movw	r3, #30816	; 0x7860
50007410:	e3453001 	movt	r3, #20481	; 0x5001
50007414:	e5832000 	str	r2, [r3]
50007418:	e3073860 	movw	r3, #30816	; 0x7860
5000741c:	e3453001 	movt	r3, #20481	; 0x5001
50007420:	e5933000 	ldr	r3, [r3]
50007424:	e3530000 	cmp	r3, #0
50007428:	1a000004 	bne	50007440 <C_put_fifo+0x7c>
5000742c:	e3050978 	movw	r0, #22904	; 0x5978
50007430:	e3450001 	movt	r0, #20481	; 0x5001
50007434:	ebfff49e 	bl	500046b4 <serial_printf>
50007438:	e3e03002 	mvn	r3, #2
5000743c:	ea00002c 	b	500074f4 <C_put_fifo+0x130>
50007440:	ea000023 	b	500074d4 <C_put_fifo+0x110>
50007444:	e3a03000 	mov	r3, #0
50007448:	e50b300c 	str	r3, [fp, #-12]
5000744c:	e51b3008 	ldr	r3, [fp, #-8]
50007450:	e1a03103 	lsl	r3, r3, #2
50007454:	e51b2014 	ldr	r2, [fp, #-20]
50007458:	e0823003 	add	r3, r2, r3
5000745c:	e5932000 	ldr	r2, [r3]
50007460:	e24b300c 	sub	r3, fp, #12
50007464:	e1a00002 	mov	r0, r2
50007468:	e3051960 	movw	r1, #22880	; 0x5960
5000746c:	e3451001 	movt	r1, #20481	; 0x5001
50007470:	e1a02003 	mov	r2, r3
50007474:	ebfffbc2 	bl	50006384 <sscanf>
50007478:	e3073860 	movw	r3, #30816	; 0x7860
5000747c:	e3453001 	movt	r3, #20481	; 0x5001
50007480:	e5932000 	ldr	r2, [r3]
50007484:	e24b300c 	sub	r3, fp, #12
50007488:	e1a00002 	mov	r0, r2
5000748c:	e1a01003 	mov	r1, r3
50007490:	ebffe8f9 	bl	5000187c <fifo_put>
50007494:	e1a03000 	mov	r3, r0
50007498:	e3730001 	cmn	r3, #1
5000749c:	1a000004 	bne	500074b4 <C_put_fifo+0xf0>
500074a0:	e305098c 	movw	r0, #22924	; 0x598c
500074a4:	e3450001 	movt	r0, #20481	; 0x5001
500074a8:	ebfff481 	bl	500046b4 <serial_printf>
500074ac:	e3e03002 	mvn	r3, #2
500074b0:	ea00000f 	b	500074f4 <C_put_fifo+0x130>
500074b4:	e51b300c 	ldr	r3, [fp, #-12]
500074b8:	e30509a0 	movw	r0, #22944	; 0x59a0
500074bc:	e3450001 	movt	r0, #20481	; 0x5001
500074c0:	e1a01003 	mov	r1, r3
500074c4:	ebfff47a 	bl	500046b4 <serial_printf>
500074c8:	e51b3008 	ldr	r3, [fp, #-8]
500074cc:	e2833001 	add	r3, r3, #1
500074d0:	e50b3008 	str	r3, [fp, #-8]
500074d4:	e51b2008 	ldr	r2, [fp, #-8]
500074d8:	e51b3010 	ldr	r3, [fp, #-16]
500074dc:	e1520003 	cmp	r2, r3
500074e0:	baffffd7 	blt	50007444 <C_put_fifo+0x80>
500074e4:	e30509ac 	movw	r0, #22956	; 0x59ac
500074e8:	e3450001 	movt	r0, #20481	; 0x5001
500074ec:	ebfff470 	bl	500046b4 <serial_printf>
500074f0:	e3a03000 	mov	r3, #0
500074f4:	e1a00003 	mov	r0, r3
500074f8:	e24bd004 	sub	sp, fp, #4
500074fc:	e8bd8800 	pop	{fp, pc}

50007500 <C_get_fifo>:
50007500:	e92d4800 	push	{fp, lr}
50007504:	e28db004 	add	fp, sp, #4
50007508:	e24dd010 	sub	sp, sp, #16
5000750c:	e50b0010 	str	r0, [fp, #-16]
50007510:	e50b1014 	str	r1, [fp, #-20]
50007514:	e3e03000 	mvn	r3, #0
50007518:	e50b3008 	str	r3, [fp, #-8]
5000751c:	e3a03001 	mov	r3, #1
50007520:	e50b300c 	str	r3, [fp, #-12]
50007524:	e3073860 	movw	r3, #30816	; 0x7860
50007528:	e3453001 	movt	r3, #20481	; 0x5001
5000752c:	e5933000 	ldr	r3, [r3]
50007530:	e3530000 	cmp	r3, #0
50007534:	1a000004 	bne	5000754c <C_get_fifo+0x4c>
50007538:	e30509c8 	movw	r0, #22984	; 0x59c8
5000753c:	e3450001 	movt	r0, #20481	; 0x5001
50007540:	ebfff45b 	bl	500046b4 <serial_printf>
50007544:	e3e03002 	mvn	r3, #2
50007548:	ea000029 	b	500075f4 <C_get_fifo+0xf4>
5000754c:	e51b3010 	ldr	r3, [fp, #-16]
50007550:	e3530001 	cmp	r3, #1
50007554:	da000008 	ble	5000757c <C_get_fifo+0x7c>
50007558:	e51b3014 	ldr	r3, [fp, #-20]
5000755c:	e2833004 	add	r3, r3, #4
50007560:	e5932000 	ldr	r2, [r3]
50007564:	e24b300c 	sub	r3, fp, #12
50007568:	e1a00002 	mov	r0, r2
5000756c:	e3051960 	movw	r1, #22880	; 0x5960
50007570:	e3451001 	movt	r1, #20481	; 0x5001
50007574:	e1a02003 	mov	r2, r3
50007578:	ebfffb81 	bl	50006384 <sscanf>
5000757c:	ea000013 	b	500075d0 <C_get_fifo+0xd0>
50007580:	e3073860 	movw	r3, #30816	; 0x7860
50007584:	e3453001 	movt	r3, #20481	; 0x5001
50007588:	e5932000 	ldr	r2, [r3]
5000758c:	e24b3008 	sub	r3, fp, #8
50007590:	e1a00002 	mov	r0, r2
50007594:	e1a01003 	mov	r1, r3
50007598:	ebffe8e7 	bl	5000193c <fifo_get>
5000759c:	e1a03000 	mov	r3, r0
500075a0:	e3730001 	cmn	r3, #1
500075a4:	1a000004 	bne	500075bc <C_get_fifo+0xbc>
500075a8:	e30509e0 	movw	r0, #23008	; 0x59e0
500075ac:	e3450001 	movt	r0, #20481	; 0x5001
500075b0:	ebfff43f 	bl	500046b4 <serial_printf>
500075b4:	e3e03002 	mvn	r3, #2
500075b8:	ea00000d 	b	500075f4 <C_get_fifo+0xf4>
500075bc:	e51b3008 	ldr	r3, [fp, #-8]
500075c0:	e30509f4 	movw	r0, #23028	; 0x59f4
500075c4:	e3450001 	movt	r0, #20481	; 0x5001
500075c8:	e1a01003 	mov	r1, r3
500075cc:	ebfff438 	bl	500046b4 <serial_printf>
500075d0:	e51b300c 	ldr	r3, [fp, #-12]
500075d4:	e2432001 	sub	r2, r3, #1
500075d8:	e50b200c 	str	r2, [fp, #-12]
500075dc:	e3530000 	cmp	r3, #0
500075e0:	1affffe6 	bne	50007580 <C_get_fifo+0x80>
500075e4:	e3050a00 	movw	r0, #23040	; 0x5a00
500075e8:	e3450001 	movt	r0, #20481	; 0x5001
500075ec:	ebfff430 	bl	500046b4 <serial_printf>
500075f0:	e3a03000 	mov	r3, #0
500075f4:	e1a00003 	mov	r0, r3
500075f8:	e24bd004 	sub	sp, fp, #4
500075fc:	e8bd8800 	pop	{fp, pc}

50007600 <C_cc>:
50007600:	e92d4800 	push	{fp, lr}
50007604:	e28db004 	add	fp, sp, #4
50007608:	e24dd020 	sub	sp, sp, #32
5000760c:	e3073864 	movw	r3, #30820	; 0x7864
50007610:	e3453001 	movt	r3, #20481	; 0x5001
50007614:	e3a02000 	mov	r2, #0
50007618:	e5832000 	str	r2, [r3]
5000761c:	eb000392 	bl	5000846c <CPU_LOCK>
50007620:	e50b0008 	str	r0, [fp, #-8]
50007624:	e3a03000 	mov	r3, #0
50007628:	e58d3000 	str	r3, [sp]
5000762c:	e3a03000 	mov	r3, #0
50007630:	e58d3004 	str	r3, [sp, #4]
50007634:	e3050a1c 	movw	r0, #23068	; 0x5a1c
50007638:	e3450001 	movt	r0, #20481	; 0x5001
5000763c:	e3a01b01 	mov	r1, #1024	; 0x400
50007640:	e3a02064 	mov	r2, #100	; 0x64
50007644:	e30736b8 	movw	r3, #30392	; 0x76b8
50007648:	e3453000 	movt	r3, #20480	; 0x5000
5000764c:	eb000209 	bl	50007e78 <task_create>
50007650:	e51b0008 	ldr	r0, [fp, #-8]
50007654:	eb00038d 	bl	50008490 <CPU_UNLOCK>
50007658:	e24b3018 	sub	r3, fp, #24
5000765c:	e1a00003 	mov	r0, r3
50007660:	e3051a24 	movw	r1, #23076	; 0x5a24
50007664:	e3451001 	movt	r1, #20481	; 0x5001
50007668:	e3a02008 	mov	r2, #8
5000766c:	ebfffbb7 	bl	50006550 <sprintf>
50007670:	e24b3018 	sub	r3, fp, #24
50007674:	e1a00003 	mov	r0, r3
50007678:	ebfff40d 	bl	500046b4 <serial_printf>
5000767c:	e3a03000 	mov	r3, #0
50007680:	e1a00003 	mov	r0, r3
50007684:	e24bd004 	sub	sp, fp, #4
50007688:	e8bd8800 	pop	{fp, pc}

5000768c <C_dd>:
5000768c:	e52db004 	push	{fp}		; (str fp, [sp, #-4]!)
50007690:	e28db000 	add	fp, sp, #0
50007694:	e3073864 	movw	r3, #30820	; 0x7864
50007698:	e3453001 	movt	r3, #20481	; 0x5001
5000769c:	e3a02001 	mov	r2, #1
500076a0:	e5832000 	str	r2, [r3]
500076a4:	e3a03000 	mov	r3, #0
500076a8:	e1a00003 	mov	r0, r3
500076ac:	e24bd000 	sub	sp, fp, #0
500076b0:	e49db004 	pop	{fp}		; (ldr fp, [sp], #4)
500076b4:	e12fff1e 	bx	lr

500076b8 <delay_task>:
500076b8:	e92d4800 	push	{fp, lr}
500076bc:	e28db004 	add	fp, sp, #4
500076c0:	e24dd008 	sub	sp, sp, #8
500076c4:	e3a03000 	mov	r3, #0
500076c8:	e50b3008 	str	r3, [fp, #-8]
500076cc:	e3a00f4b 	mov	r0, #300	; 0x12c
500076d0:	ebffe6d6 	bl	50001230 <delayQ_delay>
500076d4:	e3073878 	movw	r3, #30840	; 0x7878
500076d8:	e3453001 	movt	r3, #20481	; 0x5001
500076dc:	e5933000 	ldr	r3, [r3]
500076e0:	e3050a34 	movw	r0, #23092	; 0x5a34
500076e4:	e3450001 	movt	r0, #20481	; 0x5001
500076e8:	e1a01003 	mov	r1, r3
500076ec:	e51b2008 	ldr	r2, [fp, #-8]
500076f0:	ebfff3ef 	bl	500046b4 <serial_printf>
500076f4:	e51b3008 	ldr	r3, [fp, #-8]
500076f8:	e2833001 	add	r3, r3, #1
500076fc:	e50b3008 	str	r3, [fp, #-8]
50007700:	e3073864 	movw	r3, #30820	; 0x7864
50007704:	e3453001 	movt	r3, #20481	; 0x5001
50007708:	e5933000 	ldr	r3, [r3]
5000770c:	e3530000 	cmp	r3, #0
50007710:	0a000000 	beq	50007718 <delay_task+0x60>
50007714:	ea000000 	b	5000771c <delay_task+0x64>
50007718:	eaffffeb 	b	500076cc <delay_task+0x14>
5000771c:	e24bd004 	sub	sp, fp, #4
50007720:	e8bd8800 	pop	{fp, pc}

50007724 <C_reboot>:
50007724:	e92d4800 	push	{fp, lr}
50007728:	e28db004 	add	fp, sp, #4
5000772c:	e24dd008 	sub	sp, sp, #8
50007730:	e50b0008 	str	r0, [fp, #-8]
50007734:	e50b100c 	str	r1, [fp, #-12]
50007738:	eb00035f 	bl	500084bc <CPU_REBOOT>
5000773c:	e3a03000 	mov	r3, #0
50007740:	e1a00003 	mov	r0, r3
50007744:	e24bd004 	sub	sp, fp, #4
50007748:	e8bd8800 	pop	{fp, pc}

5000774c <C_cls>:
5000774c:	e92d4800 	push	{fp, lr}
50007750:	e28db004 	add	fp, sp, #4
50007754:	e24dd008 	sub	sp, sp, #8
50007758:	e50b0008 	str	r0, [fp, #-8]
5000775c:	e50b100c 	str	r1, [fp, #-12]
50007760:	e3050a4c 	movw	r0, #23116	; 0x5a4c
50007764:	e3450001 	movt	r0, #20481	; 0x5001
50007768:	ebfff3d1 	bl	500046b4 <serial_printf>
5000776c:	e3a03000 	mov	r3, #0
50007770:	e1a00003 	mov	r0, r3
50007774:	e24bd004 	sub	sp, fp, #4
50007778:	e8bd8800 	pop	{fp, pc}

5000777c <C_time>:
5000777c:	e92d4800 	push	{fp, lr}
50007780:	e28db004 	add	fp, sp, #4
50007784:	e24dd008 	sub	sp, sp, #8
50007788:	e50b0008 	str	r0, [fp, #-8]
5000778c:	e50b100c 	str	r1, [fp, #-12]
50007790:	eb00034e 	bl	500084d0 <CPU_TIME>
50007794:	e3a03000 	mov	r3, #0
50007798:	e1a00003 	mov	r0, r3
5000779c:	e24bd004 	sub	sp, fp, #4
500077a0:	e8bd8800 	pop	{fp, pc}

500077a4 <_shell_cmd_init>:
500077a4:	e92d4800 	push	{fp, lr}
500077a8:	e28db004 	add	fp, sp, #4
500077ac:	e24dd008 	sub	sp, sp, #8
500077b0:	e3a03012 	mov	r3, #18
500077b4:	e50b300c 	str	r3, [fp, #-12]
500077b8:	e3a03000 	mov	r3, #0
500077bc:	e50b3008 	str	r3, [fp, #-8]
500077c0:	ea00000d 	b	500077fc <_shell_cmd_init+0x58>
500077c4:	e51b3008 	ldr	r3, [fp, #-8]
500077c8:	e1a02003 	mov	r2, r3
500077cc:	e1a03102 	lsl	r3, r2, #2
500077d0:	e1a02003 	mov	r2, r3
500077d4:	e1a03102 	lsl	r3, r2, #2
500077d8:	e0623003 	rsb	r3, r2, r3
500077dc:	e3072298 	movw	r2, #29336	; 0x7298
500077e0:	e3452001 	movt	r2, #20481	; 0x5001
500077e4:	e0833002 	add	r3, r3, r2
500077e8:	e1a00003 	mov	r0, r3
500077ec:	ebffe52b 	bl	50000ca0 <cmd_add>
500077f0:	e51b3008 	ldr	r3, [fp, #-8]
500077f4:	e2833001 	add	r3, r3, #1
500077f8:	e50b3008 	str	r3, [fp, #-8]
500077fc:	e51b2008 	ldr	r2, [fp, #-8]
50007800:	e51b300c 	ldr	r3, [fp, #-12]
50007804:	e1520003 	cmp	r2, r3
50007808:	baffffed 	blt	500077c4 <_shell_cmd_init+0x20>
5000780c:	e24bd004 	sub	sp, fp, #4
50007810:	e8bd8800 	pop	{fp, pc}

50007814 <task_init>:
50007814:	e92d4800 	push	{fp, lr}
50007818:	e28db004 	add	fp, sp, #4
5000781c:	e24dd008 	sub	sp, sp, #8
50007820:	e3a03000 	mov	r3, #0
50007824:	e50b300c 	str	r3, [fp, #-12]
50007828:	e30c0c7c 	movw	r0, #52348	; 0xcc7c
5000782c:	e3450001 	movt	r0, #20481	; 0x5001
50007830:	e3a010ff 	mov	r1, #255	; 0xff
50007834:	e3a02020 	mov	r2, #32
50007838:	ebfff775 	bl	50005614 <memset>
5000783c:	e3a03000 	mov	r3, #0
50007840:	e50b300c 	str	r3, [fp, #-12]
50007844:	e3a03000 	mov	r3, #0
50007848:	e50b3008 	str	r3, [fp, #-8]
5000784c:	ea00000e 	b	5000788c <task_init+0x78>
50007850:	e30c3c7c 	movw	r3, #52348	; 0xcc7c
50007854:	e3453001 	movt	r3, #20481	; 0x5001
50007858:	e593301c 	ldr	r3, [r3, #28]
5000785c:	e51b2008 	ldr	r2, [fp, #-8]
50007860:	e262201f 	rsb	r2, r2, #31
50007864:	e3a01001 	mov	r1, #1
50007868:	e1a02211 	lsl	r2, r1, r2
5000786c:	e1e02002 	mvn	r2, r2
50007870:	e0022003 	and	r2, r2, r3
50007874:	e30c3c7c 	movw	r3, #52348	; 0xcc7c
50007878:	e3453001 	movt	r3, #20481	; 0x5001
5000787c:	e583201c 	str	r2, [r3, #28]
50007880:	e51b3008 	ldr	r3, [fp, #-8]
50007884:	e2833001 	add	r3, r3, #1
50007888:	e50b3008 	str	r3, [fp, #-8]
5000788c:	e51b2008 	ldr	r2, [fp, #-8]
50007890:	e51b300c 	ldr	r3, [fp, #-12]
50007894:	e1520003 	cmp	r2, r3
50007898:	baffffec 	blt	50007850 <task_init+0x3c>
5000789c:	e30c0c9c 	movw	r0, #52380	; 0xcc9c
500078a0:	e3450001 	movt	r0, #20481	; 0x5001
500078a4:	e3a010ff 	mov	r1, #255	; 0xff
500078a8:	e3a02080 	mov	r2, #128	; 0x80
500078ac:	ebfff758 	bl	50005614 <memset>
500078b0:	e24bd004 	sub	sp, fp, #4
500078b4:	e8bd8800 	pop	{fp, pc}

500078b8 <LSB>:
500078b8:	e52db004 	push	{fp}		; (str fp, [sp, #-4]!)
500078bc:	e28db000 	add	fp, sp, #0
500078c0:	e24dd014 	sub	sp, sp, #20
500078c4:	e50b0010 	str	r0, [fp, #-16]
500078c8:	e3a03000 	mov	r3, #0
500078cc:	e50b3008 	str	r3, [fp, #-8]
500078d0:	e51b3010 	ldr	r3, [fp, #-16]
500078d4:	e3530000 	cmp	r3, #0
500078d8:	1a000001 	bne	500078e4 <LSB+0x2c>
500078dc:	e3e03000 	mvn	r3, #0
500078e0:	ea00000b 	b	50007914 <LSB+0x5c>
500078e4:	ea000005 	b	50007900 <LSB+0x48>
500078e8:	e51b3010 	ldr	r3, [fp, #-16]
500078ec:	e1a030a3 	lsr	r3, r3, #1
500078f0:	e50b3010 	str	r3, [fp, #-16]
500078f4:	e51b3008 	ldr	r3, [fp, #-8]
500078f8:	e2833001 	add	r3, r3, #1
500078fc:	e50b3008 	str	r3, [fp, #-8]
50007900:	e51b3010 	ldr	r3, [fp, #-16]
50007904:	e2033001 	and	r3, r3, #1
50007908:	e3530000 	cmp	r3, #0
5000790c:	0afffff5 	beq	500078e8 <LSB+0x30>
50007910:	e51b3008 	ldr	r3, [fp, #-8]
50007914:	e1a00003 	mov	r0, r3
50007918:	e24bd000 	sub	sp, fp, #0
5000791c:	e49db004 	pop	{fp}		; (ldr fp, [sp], #4)
50007920:	e12fff1e 	bx	lr

50007924 <_alloc_tcb>:
50007924:	e92d4800 	push	{fp, lr}
50007928:	e28db004 	add	fp, sp, #4
5000792c:	e24dd010 	sub	sp, sp, #16
50007930:	e3a03000 	mov	r3, #0
50007934:	e50b3008 	str	r3, [fp, #-8]
50007938:	e3a03000 	mov	r3, #0
5000793c:	e50b300c 	str	r3, [fp, #-12]
50007940:	e3e03000 	mvn	r3, #0
50007944:	e50b3010 	str	r3, [fp, #-16]
50007948:	eb0002c7 	bl	5000846c <CPU_LOCK>
5000794c:	e50b0014 	str	r0, [fp, #-20]
50007950:	ea000014 	b	500079a8 <_alloc_tcb+0x84>
50007954:	e30c3c7c 	movw	r3, #52348	; 0xcc7c
50007958:	e3453001 	movt	r3, #20481	; 0x5001
5000795c:	e51b200c 	ldr	r2, [fp, #-12]
50007960:	e7933102 	ldr	r3, [r3, r2, lsl #2]
50007964:	e1a00003 	mov	r0, r3
50007968:	ebffffd2 	bl	500078b8 <LSB>
5000796c:	e50b0010 	str	r0, [fp, #-16]
50007970:	e51b3010 	ldr	r3, [fp, #-16]
50007974:	e3730001 	cmn	r3, #1
50007978:	0a000004 	beq	50007990 <_alloc_tcb+0x6c>
5000797c:	e51b2008 	ldr	r2, [fp, #-8]
50007980:	e51b3010 	ldr	r3, [fp, #-16]
50007984:	e0823003 	add	r3, r2, r3
50007988:	e50b3008 	str	r3, [fp, #-8]
5000798c:	ea000008 	b	500079b4 <_alloc_tcb+0x90>
50007990:	e51b3008 	ldr	r3, [fp, #-8]
50007994:	e2833020 	add	r3, r3, #32
50007998:	e50b3008 	str	r3, [fp, #-8]
5000799c:	e51b300c 	ldr	r3, [fp, #-12]
500079a0:	e2833001 	add	r3, r3, #1
500079a4:	e50b300c 	str	r3, [fp, #-12]
500079a8:	e51b300c 	ldr	r3, [fp, #-12]
500079ac:	e3530007 	cmp	r3, #7
500079b0:	daffffe7 	ble	50007954 <_alloc_tcb+0x30>
500079b4:	e51b3010 	ldr	r3, [fp, #-16]
500079b8:	e3730001 	cmn	r3, #1
500079bc:	1a000003 	bne	500079d0 <_alloc_tcb+0xac>
500079c0:	e51b0014 	ldr	r0, [fp, #-20]
500079c4:	eb0002b1 	bl	50008490 <CPU_UNLOCK>
500079c8:	e3a03000 	mov	r3, #0
500079cc:	ea000019 	b	50007a38 <_alloc_tcb+0x114>
500079d0:	e30c3c7c 	movw	r3, #52348	; 0xcc7c
500079d4:	e3453001 	movt	r3, #20481	; 0x5001
500079d8:	e51b200c 	ldr	r2, [fp, #-12]
500079dc:	e7933102 	ldr	r3, [r3, r2, lsl #2]
500079e0:	e3a01001 	mov	r1, #1
500079e4:	e51b2010 	ldr	r2, [fp, #-16]
500079e8:	e1a02211 	lsl	r2, r1, r2
500079ec:	e1e02002 	mvn	r2, r2
500079f0:	e0031002 	and	r1, r3, r2
500079f4:	e30c3c7c 	movw	r3, #52348	; 0xcc7c
500079f8:	e3453001 	movt	r3, #20481	; 0x5001
500079fc:	e51b200c 	ldr	r2, [fp, #-12]
50007a00:	e7831102 	str	r1, [r3, r2, lsl #2]
50007a04:	e51b0014 	ldr	r0, [fp, #-20]
50007a08:	eb0002a0 	bl	50008490 <CPU_UNLOCK>
50007a0c:	e51b3008 	ldr	r3, [fp, #-8]
50007a10:	e1a02003 	mov	r2, r3
50007a14:	e1a03102 	lsl	r3, r2, #2
50007a18:	e1a02003 	mov	r2, r3
50007a1c:	e1a03102 	lsl	r3, r2, #2
50007a20:	e0623003 	rsb	r3, r2, r3
50007a24:	e1a02183 	lsl	r2, r3, #3
50007a28:	e0632002 	rsb	r2, r3, r2
50007a2c:	e307387c 	movw	r3, #30844	; 0x787c
50007a30:	e3453001 	movt	r3, #20481	; 0x5001
50007a34:	e0823003 	add	r3, r2, r3
50007a38:	e1a00003 	mov	r0, r3
50007a3c:	e24bd004 	sub	sp, fp, #4
50007a40:	e8bd8800 	pop	{fp, pc}

50007a44 <_release_tcb>:
50007a44:	e92d4800 	push	{fp, lr}
50007a48:	e28db004 	add	fp, sp, #4
50007a4c:	e24dd018 	sub	sp, sp, #24
50007a50:	e50b0018 	str	r0, [fp, #-24]
50007a54:	e51b2018 	ldr	r2, [fp, #-24]
50007a58:	e307387c 	movw	r3, #30844	; 0x787c
50007a5c:	e3453001 	movt	r3, #20481	; 0x5001
50007a60:	e0633002 	rsb	r3, r3, r2
50007a64:	e1a02143 	asr	r2, r3, #2
50007a68:	e30c3f3d 	movw	r3, #53053	; 0xcf3d
50007a6c:	e3433cf3 	movt	r3, #15603	; 0x3cf3
50007a70:	e0030293 	mul	r3, r3, r2
50007a74:	e1a032c3 	asr	r3, r3, #5
50007a78:	e50b3008 	str	r3, [fp, #-8]
50007a7c:	e51b2018 	ldr	r2, [fp, #-24]
50007a80:	e307387c 	movw	r3, #30844	; 0x787c
50007a84:	e3453001 	movt	r3, #20481	; 0x5001
50007a88:	e0633002 	rsb	r3, r3, r2
50007a8c:	e1a02143 	asr	r2, r3, #2
50007a90:	e30c3f3d 	movw	r3, #53053	; 0xcf3d
50007a94:	e3433cf3 	movt	r3, #15603	; 0x3cf3
50007a98:	e0030293 	mul	r3, r3, r2
50007a9c:	e203301f 	and	r3, r3, #31
50007aa0:	e50b300c 	str	r3, [fp, #-12]
50007aa4:	eb000270 	bl	5000846c <CPU_LOCK>
50007aa8:	e50b0010 	str	r0, [fp, #-16]
50007aac:	e30c3c7c 	movw	r3, #52348	; 0xcc7c
50007ab0:	e3453001 	movt	r3, #20481	; 0x5001
50007ab4:	e51b2008 	ldr	r2, [fp, #-8]
50007ab8:	e7933102 	ldr	r3, [r3, r2, lsl #2]
50007abc:	e3a01001 	mov	r1, #1
50007ac0:	e51b200c 	ldr	r2, [fp, #-12]
50007ac4:	e1a02211 	lsl	r2, r1, r2
50007ac8:	e1831002 	orr	r1, r3, r2
50007acc:	e30c3c7c 	movw	r3, #52348	; 0xcc7c
50007ad0:	e3453001 	movt	r3, #20481	; 0x5001
50007ad4:	e51b2008 	ldr	r2, [fp, #-8]
50007ad8:	e7831102 	str	r1, [r3, r2, lsl #2]
50007adc:	e51b0010 	ldr	r0, [fp, #-16]
50007ae0:	eb00026a 	bl	50008490 <CPU_UNLOCK>
50007ae4:	e24bd004 	sub	sp, fp, #4
50007ae8:	e8bd8800 	pop	{fp, pc}

50007aec <_alloc_stack>:
50007aec:	e92d4800 	push	{fp, lr}
50007af0:	e28db004 	add	fp, sp, #4
50007af4:	e24dd020 	sub	sp, sp, #32
50007af8:	e50b0020 	str	r0, [fp, #-32]
50007afc:	e3a03000 	mov	r3, #0
50007b00:	e50b3008 	str	r3, [fp, #-8]
50007b04:	e51b3020 	ldr	r3, [fp, #-32]
50007b08:	e2833eff 	add	r3, r3, #4080	; 0xff0
50007b0c:	e283300f 	add	r3, r3, #15
50007b10:	e1a03623 	lsr	r3, r3, #12
50007b14:	e50b300c 	str	r3, [fp, #-12]
50007b18:	e3a03000 	mov	r3, #0
50007b1c:	e50b3010 	str	r3, [fp, #-16]
50007b20:	e3a03000 	mov	r3, #0
50007b24:	e50b3014 	str	r3, [fp, #-20]
50007b28:	eb00024f 	bl	5000846c <CPU_LOCK>
50007b2c:	e50b0018 	str	r0, [fp, #-24]
50007b30:	ea000020 	b	50007bb8 <_alloc_stack+0xcc>
50007b34:	e3a03000 	mov	r3, #0
50007b38:	e50b3014 	str	r3, [fp, #-20]
50007b3c:	ea000014 	b	50007b94 <_alloc_stack+0xa8>
50007b40:	e51b3010 	ldr	r3, [fp, #-16]
50007b44:	e1a022c3 	asr	r2, r3, #5
50007b48:	e30c3c9c 	movw	r3, #52380	; 0xcc9c
50007b4c:	e3453001 	movt	r3, #20481	; 0x5001
50007b50:	e7932102 	ldr	r2, [r3, r2, lsl #2]
50007b54:	e51b3010 	ldr	r3, [fp, #-16]
50007b58:	e203301f 	and	r3, r3, #31
50007b5c:	e1a03332 	lsr	r3, r2, r3
50007b60:	e2033001 	and	r3, r3, #1
50007b64:	e3530000 	cmp	r3, #0
50007b68:	1a000003 	bne	50007b7c <_alloc_stack+0x90>
50007b6c:	e51b3010 	ldr	r3, [fp, #-16]
50007b70:	e2833001 	add	r3, r3, #1
50007b74:	e50b3010 	str	r3, [fp, #-16]
50007b78:	ea000009 	b	50007ba4 <_alloc_stack+0xb8>
50007b7c:	e51b3014 	ldr	r3, [fp, #-20]
50007b80:	e2833001 	add	r3, r3, #1
50007b84:	e50b3014 	str	r3, [fp, #-20]
50007b88:	e51b3010 	ldr	r3, [fp, #-16]
50007b8c:	e2833001 	add	r3, r3, #1
50007b90:	e50b3010 	str	r3, [fp, #-16]
50007b94:	e51b2014 	ldr	r2, [fp, #-20]
50007b98:	e51b300c 	ldr	r3, [fp, #-12]
50007b9c:	e1520003 	cmp	r2, r3
50007ba0:	1affffe6 	bne	50007b40 <_alloc_stack+0x54>
50007ba4:	e51b2014 	ldr	r2, [fp, #-20]
50007ba8:	e51b300c 	ldr	r3, [fp, #-12]
50007bac:	e1520003 	cmp	r2, r3
50007bb0:	1a000000 	bne	50007bb8 <_alloc_stack+0xcc>
50007bb4:	ea000004 	b	50007bcc <_alloc_stack+0xe0>
50007bb8:	e51b2010 	ldr	r2, [fp, #-16]
50007bbc:	e51b300c 	ldr	r3, [fp, #-12]
50007bc0:	e0823003 	add	r3, r2, r3
50007bc4:	e3530b01 	cmp	r3, #1024	; 0x400
50007bc8:	daffffd9 	ble	50007b34 <_alloc_stack+0x48>
50007bcc:	e51b2014 	ldr	r2, [fp, #-20]
50007bd0:	e51b300c 	ldr	r3, [fp, #-12]
50007bd4:	e1520003 	cmp	r2, r3
50007bd8:	1a000027 	bne	50007c7c <_alloc_stack+0x190>
50007bdc:	e51b3010 	ldr	r3, [fp, #-16]
50007be0:	e1a03603 	lsl	r3, r3, #12
50007be4:	e1a02003 	mov	r2, r3
50007be8:	e30f3500 	movw	r3, #62720	; 0xf500
50007bec:	e3453003 	movt	r3, #20483	; 0x5003
50007bf0:	e2833501 	add	r3, r3, #4194304	; 0x400000
50007bf4:	e0823003 	add	r3, r2, r3
50007bf8:	e50b3008 	str	r3, [fp, #-8]
50007bfc:	e51b2008 	ldr	r2, [fp, #-8]
50007c00:	e51b3020 	ldr	r3, [fp, #-32]
50007c04:	e0633002 	rsb	r3, r3, r2
50007c08:	e1a00003 	mov	r0, r3
50007c0c:	e3a010cc 	mov	r1, #204	; 0xcc
50007c10:	e51b2020 	ldr	r2, [fp, #-32]
50007c14:	ebfff67e 	bl	50005614 <memset>
50007c18:	ea000012 	b	50007c68 <_alloc_stack+0x17c>
50007c1c:	e51b3010 	ldr	r3, [fp, #-16]
50007c20:	e2433001 	sub	r3, r3, #1
50007c24:	e50b3010 	str	r3, [fp, #-16]
50007c28:	e51b3010 	ldr	r3, [fp, #-16]
50007c2c:	e1a022c3 	asr	r2, r3, #5
50007c30:	e51b3010 	ldr	r3, [fp, #-16]
50007c34:	e1a012c3 	asr	r1, r3, #5
50007c38:	e30c3c9c 	movw	r3, #52380	; 0xcc9c
50007c3c:	e3453001 	movt	r3, #20481	; 0x5001
50007c40:	e7933101 	ldr	r3, [r3, r1, lsl #2]
50007c44:	e51b1010 	ldr	r1, [fp, #-16]
50007c48:	e201101f 	and	r1, r1, #31
50007c4c:	e3a00001 	mov	r0, #1
50007c50:	e1a01110 	lsl	r1, r0, r1
50007c54:	e1e01001 	mvn	r1, r1
50007c58:	e0011003 	and	r1, r1, r3
50007c5c:	e30c3c9c 	movw	r3, #52380	; 0xcc9c
50007c60:	e3453001 	movt	r3, #20481	; 0x5001
50007c64:	e7831102 	str	r1, [r3, r2, lsl #2]
50007c68:	e51b300c 	ldr	r3, [fp, #-12]
50007c6c:	e2432001 	sub	r2, r3, #1
50007c70:	e50b200c 	str	r2, [fp, #-12]
50007c74:	e3530000 	cmp	r3, #0
50007c78:	caffffe7 	bgt	50007c1c <_alloc_stack+0x130>
50007c7c:	e51b0018 	ldr	r0, [fp, #-24]
50007c80:	eb000202 	bl	50008490 <CPU_UNLOCK>
50007c84:	e51b3008 	ldr	r3, [fp, #-8]
50007c88:	e1a00003 	mov	r0, r3
50007c8c:	e24bd004 	sub	sp, fp, #4
50007c90:	e8bd8800 	pop	{fp, pc}

50007c94 <_release_stack>:
50007c94:	e92d4800 	push	{fp, lr}
50007c98:	e28db004 	add	fp, sp, #4
50007c9c:	e24dd018 	sub	sp, sp, #24
50007ca0:	e50b0018 	str	r0, [fp, #-24]
50007ca4:	e51b3018 	ldr	r3, [fp, #-24]
50007ca8:	e5933038 	ldr	r3, [r3, #56]	; 0x38
50007cac:	e2833eff 	add	r3, r3, #4080	; 0xff0
50007cb0:	e283300f 	add	r3, r3, #15
50007cb4:	e1a03623 	lsr	r3, r3, #12
50007cb8:	e50b3008 	str	r3, [fp, #-8]
50007cbc:	e51b3018 	ldr	r3, [fp, #-24]
50007cc0:	e5932034 	ldr	r2, [r3, #52]	; 0x34
50007cc4:	e30f3500 	movw	r3, #62720	; 0xf500
50007cc8:	e3453003 	movt	r3, #20483	; 0x5003
50007ccc:	e26334ff 	rsb	r3, r3, #-16777216	; 0xff000000
50007cd0:	e2833503 	add	r3, r3, #12582912	; 0xc00000
50007cd4:	e0823003 	add	r3, r2, r3
50007cd8:	e1a03623 	lsr	r3, r3, #12
50007cdc:	e50b300c 	str	r3, [fp, #-12]
50007ce0:	eb0001e1 	bl	5000846c <CPU_LOCK>
50007ce4:	e50b0010 	str	r0, [fp, #-16]
50007ce8:	ea000011 	b	50007d34 <_release_stack+0xa0>
50007cec:	e51b300c 	ldr	r3, [fp, #-12]
50007cf0:	e2433001 	sub	r3, r3, #1
50007cf4:	e50b300c 	str	r3, [fp, #-12]
50007cf8:	e51b300c 	ldr	r3, [fp, #-12]
50007cfc:	e1a022c3 	asr	r2, r3, #5
50007d00:	e51b300c 	ldr	r3, [fp, #-12]
50007d04:	e1a012c3 	asr	r1, r3, #5
50007d08:	e30c3c9c 	movw	r3, #52380	; 0xcc9c
50007d0c:	e3453001 	movt	r3, #20481	; 0x5001
50007d10:	e7933101 	ldr	r3, [r3, r1, lsl #2]
50007d14:	e51b100c 	ldr	r1, [fp, #-12]
50007d18:	e201101f 	and	r1, r1, #31
50007d1c:	e3a00001 	mov	r0, #1
50007d20:	e1a01110 	lsl	r1, r0, r1
50007d24:	e1831001 	orr	r1, r3, r1
50007d28:	e30c3c9c 	movw	r3, #52380	; 0xcc9c
50007d2c:	e3453001 	movt	r3, #20481	; 0x5001
50007d30:	e7831102 	str	r1, [r3, r2, lsl #2]
50007d34:	e51b3008 	ldr	r3, [fp, #-8]
50007d38:	e2432001 	sub	r2, r3, #1
50007d3c:	e50b2008 	str	r2, [fp, #-8]
50007d40:	e3530000 	cmp	r3, #0
50007d44:	caffffe8 	bgt	50007cec <_release_stack+0x58>
50007d48:	e51b0010 	ldr	r0, [fp, #-16]
50007d4c:	eb0001cf 	bl	50008490 <CPU_UNLOCK>
50007d50:	e24bd004 	sub	sp, fp, #4
50007d54:	e8bd8800 	pop	{fp, pc}

50007d58 <_stack_used_percent>:
50007d58:	e92d4800 	push	{fp, lr}
50007d5c:	e28db004 	add	fp, sp, #4
50007d60:	e24dd018 	sub	sp, sp, #24
50007d64:	e50b0018 	str	r0, [fp, #-24]
50007d68:	e51b3018 	ldr	r3, [fp, #-24]
50007d6c:	e5932034 	ldr	r2, [r3, #52]	; 0x34
50007d70:	e51b3018 	ldr	r3, [fp, #-24]
50007d74:	e5933038 	ldr	r3, [r3, #56]	; 0x38
50007d78:	e0633002 	rsb	r3, r3, r2
50007d7c:	e50b3008 	str	r3, [fp, #-8]
50007d80:	e51b3018 	ldr	r3, [fp, #-24]
50007d84:	e5933034 	ldr	r3, [r3, #52]	; 0x34
50007d88:	e2433004 	sub	r3, r3, #4
50007d8c:	e50b300c 	str	r3, [fp, #-12]
50007d90:	e51b200c 	ldr	r2, [fp, #-12]
50007d94:	e51b3008 	ldr	r3, [fp, #-8]
50007d98:	e0633002 	rsb	r3, r3, r2
50007d9c:	e1a03143 	asr	r3, r3, #2
50007da0:	e1a02fa3 	lsr	r2, r3, #31
50007da4:	e0823003 	add	r3, r2, r3
50007da8:	e1a030c3 	asr	r3, r3, #1
50007dac:	e1a03103 	lsl	r3, r3, #2
50007db0:	e51b2008 	ldr	r2, [fp, #-8]
50007db4:	e0823003 	add	r3, r2, r3
50007db8:	e50b3010 	str	r3, [fp, #-16]
50007dbc:	ea000016 	b	50007e1c <_stack_used_percent+0xc4>
50007dc0:	e51b3010 	ldr	r3, [fp, #-16]
50007dc4:	e5932000 	ldr	r2, [r3]
50007dc8:	e30c3ccc 	movw	r3, #52428	; 0xcccc
50007dcc:	e34c3ccc 	movt	r3, #52428	; 0xcccc
50007dd0:	e1520003 	cmp	r2, r3
50007dd4:	1a000003 	bne	50007de8 <_stack_used_percent+0x90>
50007dd8:	e51b3010 	ldr	r3, [fp, #-16]
50007ddc:	e2833004 	add	r3, r3, #4
50007de0:	e50b3008 	str	r3, [fp, #-8]
50007de4:	ea000001 	b	50007df0 <_stack_used_percent+0x98>
50007de8:	e51b3010 	ldr	r3, [fp, #-16]
50007dec:	e50b300c 	str	r3, [fp, #-12]
50007df0:	e51b200c 	ldr	r2, [fp, #-12]
50007df4:	e51b3008 	ldr	r3, [fp, #-8]
50007df8:	e0633002 	rsb	r3, r3, r2
50007dfc:	e1a03143 	asr	r3, r3, #2
50007e00:	e1a02fa3 	lsr	r2, r3, #31
50007e04:	e0823003 	add	r3, r2, r3
50007e08:	e1a030c3 	asr	r3, r3, #1
50007e0c:	e1a03103 	lsl	r3, r3, #2
50007e10:	e51b2008 	ldr	r2, [fp, #-8]
50007e14:	e0823003 	add	r3, r2, r3
50007e18:	e50b3010 	str	r3, [fp, #-16]
50007e1c:	e51b200c 	ldr	r2, [fp, #-12]
50007e20:	e51b3008 	ldr	r3, [fp, #-8]
50007e24:	e1520003 	cmp	r2, r3
50007e28:	8affffe4 	bhi	50007dc0 <_stack_used_percent+0x68>
50007e2c:	e51b3018 	ldr	r3, [fp, #-24]
50007e30:	e5932034 	ldr	r2, [r3, #52]	; 0x34
50007e34:	e51b3010 	ldr	r3, [fp, #-16]
50007e38:	e0633002 	rsb	r3, r3, r2
50007e3c:	e1a03103 	lsl	r3, r3, #2
50007e40:	e1a02103 	lsl	r2, r3, #2
50007e44:	e0833002 	add	r3, r3, r2
50007e48:	e1a02103 	lsl	r2, r3, #2
50007e4c:	e0832002 	add	r2, r3, r2
50007e50:	e51b3018 	ldr	r3, [fp, #-24]
50007e54:	e5933038 	ldr	r3, [r3, #56]	; 0x38
50007e58:	e1a00002 	mov	r0, r2
50007e5c:	e1a01003 	mov	r1, r3
50007e60:	eb0032d1 	bl	500149ac <__aeabi_uidiv>
50007e64:	e1a03000 	mov	r3, r0
50007e68:	e2833001 	add	r3, r3, #1
50007e6c:	e1a00003 	mov	r0, r3
50007e70:	e24bd004 	sub	sp, fp, #4
50007e74:	e8bd8800 	pop	{fp, pc}

50007e78 <task_create>:
50007e78:	e92d4800 	push	{fp, lr}
50007e7c:	e28db004 	add	fp, sp, #4
50007e80:	e24dd020 	sub	sp, sp, #32
50007e84:	e50b0018 	str	r0, [fp, #-24]
50007e88:	e50b101c 	str	r1, [fp, #-28]
50007e8c:	e50b2020 	str	r2, [fp, #-32]
50007e90:	e50b3024 	str	r3, [fp, #-36]	; 0x24
50007e94:	e3a03000 	mov	r3, #0
50007e98:	e50b3008 	str	r3, [fp, #-8]
50007e9c:	e3a03000 	mov	r3, #0
50007ea0:	e50b300c 	str	r3, [fp, #-12]
50007ea4:	ebfffe9e 	bl	50007924 <_alloc_tcb>
50007ea8:	e50b0008 	str	r0, [fp, #-8]
50007eac:	e51b3008 	ldr	r3, [fp, #-8]
50007eb0:	e3530000 	cmp	r3, #0
50007eb4:	1a000001 	bne	50007ec0 <task_create+0x48>
50007eb8:	e3a03000 	mov	r3, #0
50007ebc:	ea000048 	b	50007fe4 <task_create+0x16c>
50007ec0:	e51b3008 	ldr	r3, [fp, #-8]
50007ec4:	e283300c 	add	r3, r3, #12
50007ec8:	e1a00003 	mov	r0, r3
50007ecc:	e51b1018 	ldr	r1, [fp, #-24]
50007ed0:	e3a0201f 	mov	r2, #31
50007ed4:	ebfff352 	bl	50004c24 <strncpy>
50007ed8:	e51b3008 	ldr	r3, [fp, #-8]
50007edc:	e51b2024 	ldr	r2, [fp, #-36]	; 0x24
50007ee0:	e583202c 	str	r2, [r3, #44]	; 0x2c
50007ee4:	e51b301c 	ldr	r3, [fp, #-28]
50007ee8:	e2833003 	add	r3, r3, #3
50007eec:	e3c32003 	bic	r2, r3, #3
50007ef0:	e51b3008 	ldr	r3, [fp, #-8]
50007ef4:	e5832038 	str	r2, [r3, #56]	; 0x38
50007ef8:	e51b3008 	ldr	r3, [fp, #-8]
50007efc:	e51b2020 	ldr	r2, [fp, #-32]
50007f00:	e5832030 	str	r2, [r3, #48]	; 0x30
50007f04:	e51b3008 	ldr	r3, [fp, #-8]
50007f08:	e51b2020 	ldr	r2, [fp, #-32]
50007f0c:	e5832048 	str	r2, [r3, #72]	; 0x48
50007f10:	e51b3008 	ldr	r3, [fp, #-8]
50007f14:	e59b2004 	ldr	r2, [fp, #4]
50007f18:	e583203c 	str	r2, [r3, #60]	; 0x3c
50007f1c:	e51b3008 	ldr	r3, [fp, #-8]
50007f20:	e59b2008 	ldr	r2, [fp, #8]
50007f24:	e5832040 	str	r2, [r3, #64]	; 0x40
50007f28:	e51b3008 	ldr	r3, [fp, #-8]
50007f2c:	e3a02000 	mov	r2, #0
50007f30:	e583204c 	str	r2, [r3, #76]	; 0x4c
50007f34:	e51b3008 	ldr	r3, [fp, #-8]
50007f38:	e3a02000 	mov	r2, #0
50007f3c:	e5832050 	str	r2, [r3, #80]	; 0x50
50007f40:	e51b3008 	ldr	r3, [fp, #-8]
50007f44:	e5933038 	ldr	r3, [r3, #56]	; 0x38
50007f48:	e1a00003 	mov	r0, r3
50007f4c:	ebfffee6 	bl	50007aec <_alloc_stack>
50007f50:	e1a03000 	mov	r3, r0
50007f54:	e50b300c 	str	r3, [fp, #-12]
50007f58:	e51b300c 	ldr	r3, [fp, #-12]
50007f5c:	e3530000 	cmp	r3, #0
50007f60:	1a000003 	bne	50007f74 <task_create+0xfc>
50007f64:	e51b0008 	ldr	r0, [fp, #-8]
50007f68:	ebfffeb5 	bl	50007a44 <_release_tcb>
50007f6c:	e3a03000 	mov	r3, #0
50007f70:	ea00001b 	b	50007fe4 <task_create+0x16c>
50007f74:	e51b200c 	ldr	r2, [fp, #-12]
50007f78:	e51b3008 	ldr	r3, [fp, #-8]
50007f7c:	e5832034 	str	r2, [r3, #52]	; 0x34
50007f80:	e3083350 	movw	r3, #33616	; 0x8350
50007f84:	e3453000 	movt	r3, #20480	; 0x5000
50007f88:	e51b2008 	ldr	r2, [fp, #-8]
50007f8c:	e1a00003 	mov	r0, r3
50007f90:	e1a01002 	mov	r1, r2
50007f94:	e51b200c 	ldr	r2, [fp, #-12]
50007f98:	eb000151 	bl	500084e4 <CPU_STACK_INIT>
50007f9c:	e1a03000 	mov	r3, r0
50007fa0:	e1a02003 	mov	r2, r3
50007fa4:	e51b3008 	ldr	r3, [fp, #-8]
50007fa8:	e5832008 	str	r2, [r3, #8]
50007fac:	eb00012e 	bl	5000846c <CPU_LOCK>
50007fb0:	e50b0010 	str	r0, [fp, #-16]
50007fb4:	e51b0008 	ldr	r0, [fp, #-8]
50007fb8:	ebffeb92 	bl	50002e08 <readyQ_put>
50007fbc:	e3073874 	movw	r3, #30836	; 0x7874
50007fc0:	e3453001 	movt	r3, #20481	; 0x5001
50007fc4:	e5933000 	ldr	r3, [r3]
50007fc8:	e2832001 	add	r2, r3, #1
50007fcc:	e3073874 	movw	r3, #30836	; 0x7874
50007fd0:	e3453001 	movt	r3, #20481	; 0x5001
50007fd4:	e5832000 	str	r2, [r3]
50007fd8:	e51b0010 	ldr	r0, [fp, #-16]
50007fdc:	eb00012b 	bl	50008490 <CPU_UNLOCK>
50007fe0:	e51b3008 	ldr	r3, [fp, #-8]
50007fe4:	e1a00003 	mov	r0, r3
50007fe8:	e24bd004 	sub	sp, fp, #4
50007fec:	e8bd8800 	pop	{fp, pc}

50007ff0 <task_delete>:
50007ff0:	e92d4800 	push	{fp, lr}
50007ff4:	e28db004 	add	fp, sp, #4
50007ff8:	e24dd010 	sub	sp, sp, #16
50007ffc:	e50b0010 	str	r0, [fp, #-16]
50008000:	eb000119 	bl	5000846c <CPU_LOCK>
50008004:	e50b0008 	str	r0, [fp, #-8]
50008008:	e51b3010 	ldr	r3, [fp, #-16]
5000800c:	e593304c 	ldr	r3, [r3, #76]	; 0x4c
50008010:	e3530006 	cmp	r3, #6
50008014:	979ff103 	ldrls	pc, [pc, r3, lsl #2]
50008018:	ea000024 	b	500080b0 <task_delete+0xc0>
5000801c:	50008038 	.word	0x50008038
50008020:	50008044 	.word	0x50008044
50008024:	50008080 	.word	0x50008080
50008028:	50008050 	.word	0x50008050
5000802c:	50008068 	.word	0x50008068
50008030:	50008098 	.word	0x50008098
50008034:	50008098 	.word	0x50008098
50008038:	e51b0010 	ldr	r0, [fp, #-16]
5000803c:	ebffebb5 	bl	50002f18 <readyQ_remove>
50008040:	ea00001b 	b	500080b4 <task_delete+0xc4>
50008044:	e51b0010 	ldr	r0, [fp, #-16]
50008048:	ebffe4ac 	bl	50001300 <delayQ_remove>
5000804c:	ea000018 	b	500080b4 <task_delete+0xc4>
50008050:	e51b3010 	ldr	r3, [fp, #-16]
50008054:	e5933050 	ldr	r3, [r3, #80]	; 0x50
50008058:	e1a00003 	mov	r0, r3
5000805c:	e51b1010 	ldr	r1, [fp, #-16]
50008060:	ebffed04 	bl	50003478 <semB_remove>
50008064:	ea000012 	b	500080b4 <task_delete+0xc4>
50008068:	e51b3010 	ldr	r3, [fp, #-16]
5000806c:	e5933050 	ldr	r3, [r3, #80]	; 0x50
50008070:	e1a00003 	mov	r0, r3
50008074:	e51b1010 	ldr	r1, [fp, #-16]
50008078:	ebffee63 	bl	50003a0c <semC_remove>
5000807c:	ea00000c 	b	500080b4 <task_delete+0xc4>
50008080:	e51b3010 	ldr	r3, [fp, #-16]
50008084:	e5933050 	ldr	r3, [r3, #80]	; 0x50
50008088:	e1a00003 	mov	r0, r3
5000808c:	e51b1010 	ldr	r1, [fp, #-16]
50008090:	ebffefec 	bl	50004048 <semM_remove>
50008094:	ea000006 	b	500080b4 <task_delete+0xc4>
50008098:	e51b3010 	ldr	r3, [fp, #-16]
5000809c:	e5933050 	ldr	r3, [r3, #80]	; 0x50
500080a0:	e1a00003 	mov	r0, r3
500080a4:	e51b1010 	ldr	r1, [fp, #-16]
500080a8:	ebffeab0 	bl	50002b70 <msgQ_remove>
500080ac:	ea000000 	b	500080b4 <task_delete+0xc4>
500080b0:	e1a00000 	nop			; (mov r0, r0)
500080b4:	e51b0010 	ldr	r0, [fp, #-16]
500080b8:	ebffefd1 	bl	50004004 <semM_free>
500080bc:	e51b0010 	ldr	r0, [fp, #-16]
500080c0:	ebfffef3 	bl	50007c94 <_release_stack>
500080c4:	e51b0010 	ldr	r0, [fp, #-16]
500080c8:	ebfffe5d 	bl	50007a44 <_release_tcb>
500080cc:	e3073874 	movw	r3, #30836	; 0x7874
500080d0:	e3453001 	movt	r3, #20481	; 0x5001
500080d4:	e5933000 	ldr	r3, [r3]
500080d8:	e2432001 	sub	r2, r3, #1
500080dc:	e3073874 	movw	r3, #30836	; 0x7874
500080e0:	e3453001 	movt	r3, #20481	; 0x5001
500080e4:	e5832000 	str	r2, [r3]
500080e8:	e51b0008 	ldr	r0, [fp, #-8]
500080ec:	eb0000e7 	bl	50008490 <CPU_UNLOCK>
500080f0:	e3a03000 	mov	r3, #0
500080f4:	e1a00003 	mov	r0, r3
500080f8:	e24bd004 	sub	sp, fp, #4
500080fc:	e8bd8800 	pop	{fp, pc}

50008100 <tcb_shw>:
50008100:	e92d4870 	push	{r4, r5, r6, fp, lr}
50008104:	e28db010 	add	fp, sp, #16
50008108:	e24dd044 	sub	sp, sp, #68	; 0x44
5000810c:	e50b0030 	str	r0, [fp, #-48]	; 0x30
50008110:	e50b1034 	str	r1, [fp, #-52]	; 0x34
50008114:	e3a03000 	mov	r3, #0
50008118:	e50b3018 	str	r3, [fp, #-24]
5000811c:	e3a03000 	mov	r3, #0
50008120:	e50b301c 	str	r3, [fp, #-28]
50008124:	e51b3030 	ldr	r3, [fp, #-48]	; 0x30
50008128:	e593304c 	ldr	r3, [r3, #76]	; 0x4c
5000812c:	e3530006 	cmp	r3, #6
50008130:	979ff103 	ldrls	pc, [pc, r3, lsl #2]
50008134:	ea00001b 	b	500081a8 <tcb_shw+0xa8>
50008138:	50008154 	.word	0x50008154
5000813c:	50008160 	.word	0x50008160
50008140:	5000816c 	.word	0x5000816c
50008144:	50008178 	.word	0x50008178
50008148:	50008184 	.word	0x50008184
5000814c:	50008190 	.word	0x50008190
50008150:	5000819c 	.word	0x5000819c
50008154:	e3a03000 	mov	r3, #0
50008158:	e50b3018 	str	r3, [fp, #-24]
5000815c:	ea000012 	b	500081ac <tcb_shw+0xac>
50008160:	e3a03001 	mov	r3, #1
50008164:	e50b3018 	str	r3, [fp, #-24]
50008168:	ea00000f 	b	500081ac <tcb_shw+0xac>
5000816c:	e3a03002 	mov	r3, #2
50008170:	e50b3018 	str	r3, [fp, #-24]
50008174:	ea00000c 	b	500081ac <tcb_shw+0xac>
50008178:	e3a03003 	mov	r3, #3
5000817c:	e50b3018 	str	r3, [fp, #-24]
50008180:	ea000009 	b	500081ac <tcb_shw+0xac>
50008184:	e3a03004 	mov	r3, #4
50008188:	e50b3018 	str	r3, [fp, #-24]
5000818c:	ea000006 	b	500081ac <tcb_shw+0xac>
50008190:	e3a03005 	mov	r3, #5
50008194:	e50b3018 	str	r3, [fp, #-24]
50008198:	ea000003 	b	500081ac <tcb_shw+0xac>
5000819c:	e3a03006 	mov	r3, #6
500081a0:	e50b3018 	str	r3, [fp, #-24]
500081a4:	ea000000 	b	500081ac <tcb_shw+0xac>
500081a8:	e1a00000 	nop			; (mov r0, r0)
500081ac:	e51b3030 	ldr	r3, [fp, #-48]	; 0x30
500081b0:	e283300c 	add	r3, r3, #12
500081b4:	e24b2028 	sub	r2, fp, #40	; 0x28
500081b8:	e1a00002 	mov	r0, r2
500081bc:	e1a01003 	mov	r1, r3
500081c0:	e3a02009 	mov	r2, #9
500081c4:	ebfff296 	bl	50004c24 <strncpy>
500081c8:	e55b3020 	ldrb	r3, [fp, #-32]
500081cc:	e3530000 	cmp	r3, #0
500081d0:	0a000003 	beq	500081e4 <tcb_shw+0xe4>
500081d4:	e3a0302e 	mov	r3, #46	; 0x2e
500081d8:	e54b3021 	strb	r3, [fp, #-33]	; 0x21
500081dc:	e3a03000 	mov	r3, #0
500081e0:	e54b3020 	strb	r3, [fp, #-32]
500081e4:	e51b0030 	ldr	r0, [fp, #-48]	; 0x30
500081e8:	ebfffeda 	bl	50007d58 <_stack_used_percent>
500081ec:	e50b001c 	str	r0, [fp, #-28]
500081f0:	e24b3028 	sub	r3, fp, #40	; 0x28
500081f4:	e1a00003 	mov	r0, r3
500081f8:	ebfff369 	bl	50004fa4 <strlen>
500081fc:	e1a03000 	mov	r3, r0
50008200:	e2632008 	rsb	r2, r3, #8
50008204:	e3073370 	movw	r3, #29552	; 0x7370
50008208:	e3453001 	movt	r3, #20481	; 0x5001
5000820c:	e7936102 	ldr	r6, [r3, r2, lsl #2]
50008210:	e51b3030 	ldr	r3, [fp, #-48]	; 0x30
50008214:	e5935030 	ldr	r5, [r3, #48]	; 0x30
50008218:	e3073394 	movw	r3, #29588	; 0x7394
5000821c:	e3453001 	movt	r3, #20481	; 0x5001
50008220:	e51b2018 	ldr	r2, [fp, #-24]
50008224:	e7934102 	ldr	r4, [r3, r2, lsl #2]
50008228:	e3073394 	movw	r3, #29588	; 0x7394
5000822c:	e3453001 	movt	r3, #20481	; 0x5001
50008230:	e51b2018 	ldr	r2, [fp, #-24]
50008234:	e7933102 	ldr	r3, [r3, r2, lsl #2]
50008238:	e1a00003 	mov	r0, r3
5000823c:	ebfff358 	bl	50004fa4 <strlen>
50008240:	e1a03000 	mov	r3, r0
50008244:	e2632008 	rsb	r2, r3, #8
50008248:	e3073370 	movw	r3, #29552	; 0x7370
5000824c:	e3453001 	movt	r3, #20481	; 0x5001
50008250:	e793e102 	ldr	lr, [r3, r2, lsl #2]
50008254:	e51b3030 	ldr	r3, [fp, #-48]	; 0x30
50008258:	e593c008 	ldr	ip, [r3, #8]
5000825c:	e51b3030 	ldr	r3, [fp, #-48]	; 0x30
50008260:	e5930050 	ldr	r0, [r3, #80]	; 0x50
50008264:	e51b101c 	ldr	r1, [fp, #-28]
50008268:	e3063667 	movw	r3, #26215	; 0x6667
5000826c:	e3463666 	movt	r3, #26214	; 0x6666
50008270:	e0c32391 	smull	r2, r3, r1, r3
50008274:	e1a02143 	asr	r2, r3, #2
50008278:	e1a03fc1 	asr	r3, r1, #31
5000827c:	e0632002 	rsb	r2, r3, r2
50008280:	e30733b0 	movw	r3, #29616	; 0x73b0
50008284:	e3453001 	movt	r3, #20481	; 0x5001
50008288:	e7933102 	ldr	r3, [r3, r2, lsl #2]
5000828c:	e24b1028 	sub	r1, fp, #40	; 0x28
50008290:	e58d4000 	str	r4, [sp]
50008294:	e58de004 	str	lr, [sp, #4]
50008298:	e58dc008 	str	ip, [sp, #8]
5000829c:	e58d000c 	str	r0, [sp, #12]
500082a0:	e51b2030 	ldr	r2, [fp, #-48]	; 0x30
500082a4:	e58d2010 	str	r2, [sp, #16]
500082a8:	e58d3014 	str	r3, [sp, #20]
500082ac:	e51b301c 	ldr	r3, [fp, #-28]
500082b0:	e58d3018 	str	r3, [sp, #24]
500082b4:	e3050c34 	movw	r0, #23604	; 0x5c34
500082b8:	e3450001 	movt	r0, #20481	; 0x5001
500082bc:	e1a02006 	mov	r2, r6
500082c0:	e1a03005 	mov	r3, r5
500082c4:	ebfff0fa 	bl	500046b4 <serial_printf>
500082c8:	e3a03000 	mov	r3, #0
500082cc:	e1a00003 	mov	r0, r3
500082d0:	e24bd010 	sub	sp, fp, #16
500082d4:	e8bd8870 	pop	{r4, r5, r6, fp, pc}

500082d8 <task_show>:
500082d8:	e92d4800 	push	{fp, lr}
500082dc:	e28db004 	add	fp, sp, #4
500082e0:	e24dd008 	sub	sp, sp, #8
500082e4:	eb000060 	bl	5000846c <CPU_LOCK>
500082e8:	e50b0008 	str	r0, [fp, #-8]
500082ec:	e3050c64 	movw	r0, #23652	; 0x5c64
500082f0:	e3450001 	movt	r0, #20481	; 0x5001
500082f4:	ebfff07e 	bl	500044f4 <serial_puts>
500082f8:	e3080100 	movw	r0, #33024	; 0x8100
500082fc:	e3450000 	movt	r0, #20480	; 0x5000
50008300:	ebffeb76 	bl	500030e0 <readyQ_show>
50008304:	e3080100 	movw	r0, #33024	; 0x8100
50008308:	e3450000 	movt	r0, #20480	; 0x5000
5000830c:	ebffe423 	bl	500013a0 <delayQ_show>
50008310:	e3080100 	movw	r0, #33024	; 0x8100
50008314:	e3450000 	movt	r0, #20480	; 0x5000
50008318:	ebffecad 	bl	500035d4 <semB_show>
5000831c:	e3080100 	movw	r0, #33024	; 0x8100
50008320:	e3450000 	movt	r0, #20480	; 0x5000
50008324:	ebffedf4 	bl	50003afc <semC_show>
50008328:	e3080100 	movw	r0, #33024	; 0x8100
5000832c:	e3450000 	movt	r0, #20480	; 0x5000
50008330:	ebffeffa 	bl	50004320 <semM_show>
50008334:	e3080100 	movw	r0, #33024	; 0x8100
50008338:	e3450000 	movt	r0, #20480	; 0x5000
5000833c:	ebffea64 	bl	50002cd4 <msgQ_show>
50008340:	e51b0008 	ldr	r0, [fp, #-8]
50008344:	eb000051 	bl	50008490 <CPU_UNLOCK>
50008348:	e24bd004 	sub	sp, fp, #4
5000834c:	e8bd8800 	pop	{fp, pc}

50008350 <_task_entry>:
50008350:	e92d4800 	push	{fp, lr}
50008354:	e28db004 	add	fp, sp, #4
50008358:	e24dd008 	sub	sp, sp, #8
5000835c:	e50b0008 	str	r0, [fp, #-8]
50008360:	e51b3008 	ldr	r3, [fp, #-8]
50008364:	e593302c 	ldr	r3, [r3, #44]	; 0x2c
50008368:	e51b2008 	ldr	r2, [fp, #-8]
5000836c:	e592103c 	ldr	r1, [r2, #60]	; 0x3c
50008370:	e51b2008 	ldr	r2, [fp, #-8]
50008374:	e5922040 	ldr	r2, [r2, #64]	; 0x40
50008378:	e1a00001 	mov	r0, r1
5000837c:	e1a01002 	mov	r1, r2
50008380:	e12fff33 	blx	r3
50008384:	eb000038 	bl	5000846c <CPU_LOCK>
50008388:	e51b0008 	ldr	r0, [fp, #-8]
5000838c:	ebfffe40 	bl	50007c94 <_release_stack>
50008390:	e51b0008 	ldr	r0, [fp, #-8]
50008394:	ebfffdaa 	bl	50007a44 <_release_tcb>
50008398:	e3073874 	movw	r3, #30836	; 0x7874
5000839c:	e3453001 	movt	r3, #20481	; 0x5001
500083a0:	e5933000 	ldr	r3, [r3]
500083a4:	e2432001 	sub	r2, r3, #1
500083a8:	e3073874 	movw	r3, #30836	; 0x7874
500083ac:	e3453001 	movt	r3, #20481	; 0x5001
500083b0:	e5832000 	str	r2, [r3]
500083b4:	e3073878 	movw	r3, #30840	; 0x7878
500083b8:	e3453001 	movt	r3, #20481	; 0x5001
500083bc:	e5933000 	ldr	r3, [r3]
500083c0:	e1a00003 	mov	r0, r3
500083c4:	ebffead3 	bl	50002f18 <readyQ_remove>
500083c8:	e3073878 	movw	r3, #30840	; 0x7878
500083cc:	e3453001 	movt	r3, #20481	; 0x5001
500083d0:	e3a02000 	mov	r2, #0
500083d4:	e5832000 	str	r2, [r3]
500083d8:	ef000007 	svc	0x00000007
500083dc:	e24bd004 	sub	sp, fp, #4
500083e0:	e8bd8800 	pop	{fp, pc}

500083e4 <tick_announce>:
500083e4:	e92d4800 	push	{fp, lr}
500083e8:	e28db004 	add	fp, sp, #4
500083ec:	e30c3d1c 	movw	r3, #52508	; 0xcd1c
500083f0:	e3453001 	movt	r3, #20481	; 0x5001
500083f4:	e5933000 	ldr	r3, [r3]
500083f8:	e2832001 	add	r2, r3, #1
500083fc:	e30c3d1c 	movw	r3, #52508	; 0xcd1c
50008400:	e3453001 	movt	r3, #20481	; 0x5001
50008404:	e5832000 	str	r2, [r3]
50008408:	ebffec59 	bl	50003574 <semB_decrease>
5000840c:	ebffeda2 	bl	50003a9c <semC_decrease>
50008410:	ebffefe1 	bl	5000439c <semM_decrease>
50008414:	ebffea10 	bl	50002c5c <msgQ_decrease>
50008418:	ebffe37b 	bl	5000120c <delayQ_decrease>
5000841c:	e3073878 	movw	r3, #30840	; 0x7878
50008420:	e3453001 	movt	r3, #20481	; 0x5001
50008424:	e5933000 	ldr	r3, [r3]
50008428:	e1a00003 	mov	r0, r3
5000842c:	ebffeab9 	bl	50002f18 <readyQ_remove>
50008430:	e3073878 	movw	r3, #30840	; 0x7878
50008434:	e3453001 	movt	r3, #20481	; 0x5001
50008438:	e5933000 	ldr	r3, [r3]
5000843c:	e1a00003 	mov	r0, r3
50008440:	ebffea70 	bl	50002e08 <readyQ_put>
50008444:	e8bd8800 	pop	{fp, pc}

50008448 <tick_get>:
50008448:	e52db004 	push	{fp}		; (str fp, [sp, #-4]!)
5000844c:	e28db000 	add	fp, sp, #0
50008450:	e30c3d1c 	movw	r3, #52508	; 0xcd1c
50008454:	e3453001 	movt	r3, #20481	; 0x5001
50008458:	e5933000 	ldr	r3, [r3]
5000845c:	e1a00003 	mov	r0, r3
50008460:	e24bd000 	sub	sp, fp, #0
50008464:	e49db004 	pop	{fp}		; (ldr fp, [sp], #4)
50008468:	e12fff1e 	bx	lr

5000846c <CPU_LOCK>:
5000846c:	e92d4800 	push	{fp, lr}
50008470:	e28db004 	add	fp, sp, #4
50008474:	e24dd008 	sub	sp, sp, #8
50008478:	eb0030c2 	bl	50014788 <MXI_vcpuDisableInt>
5000847c:	e50b0008 	str	r0, [fp, #-8]
50008480:	e51b3008 	ldr	r3, [fp, #-8]
50008484:	e1a00003 	mov	r0, r3
50008488:	e24bd004 	sub	sp, fp, #4
5000848c:	e8bd8800 	pop	{fp, pc}

50008490 <CPU_UNLOCK>:
50008490:	e92d4800 	push	{fp, lr}
50008494:	e28db004 	add	fp, sp, #4
50008498:	e24dd008 	sub	sp, sp, #8
5000849c:	e50b0008 	str	r0, [fp, #-8]
500084a0:	e51b3008 	ldr	r3, [fp, #-8]
500084a4:	e3530000 	cmp	r3, #0
500084a8:	1a000001 	bne	500084b4 <CPU_UNLOCK+0x24>
500084ac:	e51b0008 	ldr	r0, [fp, #-8]
500084b0:	eb0030cf 	bl	500147f4 <MXI_vcpuEnableInt>
500084b4:	e24bd004 	sub	sp, fp, #4
500084b8:	e8bd8800 	pop	{fp, pc}

500084bc <CPU_REBOOT>:
500084bc:	e92d4800 	push	{fp, lr}
500084c0:	e28db004 	add	fp, sp, #4
500084c4:	e3a00000 	mov	r0, #0
500084c8:	eb0030e1 	bl	50014854 <MXI_prtnRestart>
500084cc:	e8bd8800 	pop	{fp, pc}

500084d0 <CPU_TIME>:
500084d0:	e52db004 	push	{fp}		; (str fp, [sp, #-4]!)
500084d4:	e28db000 	add	fp, sp, #0
500084d8:	e24bd000 	sub	sp, fp, #0
500084dc:	e49db004 	pop	{fp}		; (ldr fp, [sp], #4)
500084e0:	e12fff1e 	bx	lr

500084e4 <CPU_STACK_INIT>:
500084e4:	e52db004 	push	{fp}		; (str fp, [sp, #-4]!)
500084e8:	e28db000 	add	fp, sp, #0
500084ec:	e24dd01c 	sub	sp, sp, #28
500084f0:	e50b0010 	str	r0, [fp, #-16]
500084f4:	e50b1014 	str	r1, [fp, #-20]
500084f8:	e50b2018 	str	r2, [fp, #-24]
500084fc:	e51b3018 	ldr	r3, [fp, #-24]
50008500:	e50b3008 	str	r3, [fp, #-8]
50008504:	e51b3018 	ldr	r3, [fp, #-24]
50008508:	e2433004 	sub	r3, r3, #4
5000850c:	e50b3018 	str	r3, [fp, #-24]
50008510:	e51b3018 	ldr	r3, [fp, #-24]
50008514:	e3a02001 	mov	r2, #1
50008518:	e5832000 	str	r2, [r3]
5000851c:	e51b3018 	ldr	r3, [fp, #-24]
50008520:	e2433004 	sub	r3, r3, #4
50008524:	e50b3018 	str	r3, [fp, #-24]
50008528:	e51b3018 	ldr	r3, [fp, #-24]
5000852c:	e51b2010 	ldr	r2, [fp, #-16]
50008530:	e5832000 	str	r2, [r3]
50008534:	e51b3018 	ldr	r3, [fp, #-24]
50008538:	e2433004 	sub	r3, r3, #4
5000853c:	e50b3018 	str	r3, [fp, #-24]
50008540:	e51b3018 	ldr	r3, [fp, #-24]
50008544:	e51b2010 	ldr	r2, [fp, #-16]
50008548:	e5832000 	str	r2, [r3]
5000854c:	e51b3018 	ldr	r3, [fp, #-24]
50008550:	e2433004 	sub	r3, r3, #4
50008554:	e50b3018 	str	r3, [fp, #-24]
50008558:	e51b3018 	ldr	r3, [fp, #-24]
5000855c:	e51b2008 	ldr	r2, [fp, #-8]
50008560:	e5832000 	str	r2, [r3]
50008564:	e51b3018 	ldr	r3, [fp, #-24]
50008568:	e2433004 	sub	r3, r3, #4
5000856c:	e50b3018 	str	r3, [fp, #-24]
50008570:	e51b2018 	ldr	r2, [fp, #-24]
50008574:	e3013212 	movw	r3, #4626	; 0x1212
50008578:	e3413212 	movt	r3, #4626	; 0x1212
5000857c:	e5823000 	str	r3, [r2]
50008580:	e51b3018 	ldr	r3, [fp, #-24]
50008584:	e2433004 	sub	r3, r3, #4
50008588:	e50b3018 	str	r3, [fp, #-24]
5000858c:	e51b2018 	ldr	r2, [fp, #-24]
50008590:	e3013111 	movw	r3, #4369	; 0x1111
50008594:	e3413111 	movt	r3, #4369	; 0x1111
50008598:	e5823000 	str	r3, [r2]
5000859c:	e51b3018 	ldr	r3, [fp, #-24]
500085a0:	e2433004 	sub	r3, r3, #4
500085a4:	e50b3018 	str	r3, [fp, #-24]
500085a8:	e51b2018 	ldr	r2, [fp, #-24]
500085ac:	e3013010 	movw	r3, #4112	; 0x1010
500085b0:	e3413010 	movt	r3, #4112	; 0x1010
500085b4:	e5823000 	str	r3, [r2]
500085b8:	e51b3018 	ldr	r3, [fp, #-24]
500085bc:	e2433004 	sub	r3, r3, #4
500085c0:	e50b3018 	str	r3, [fp, #-24]
500085c4:	e51b2018 	ldr	r2, [fp, #-24]
500085c8:	e3003909 	movw	r3, #2313	; 0x909
500085cc:	e3403909 	movt	r3, #2313	; 0x909
500085d0:	e5823000 	str	r3, [r2]
500085d4:	e51b3018 	ldr	r3, [fp, #-24]
500085d8:	e2433004 	sub	r3, r3, #4
500085dc:	e50b3018 	str	r3, [fp, #-24]
500085e0:	e51b2018 	ldr	r2, [fp, #-24]
500085e4:	e3003808 	movw	r3, #2056	; 0x808
500085e8:	e3403808 	movt	r3, #2056	; 0x808
500085ec:	e5823000 	str	r3, [r2]
500085f0:	e51b3018 	ldr	r3, [fp, #-24]
500085f4:	e2433004 	sub	r3, r3, #4
500085f8:	e50b3018 	str	r3, [fp, #-24]
500085fc:	e51b2018 	ldr	r2, [fp, #-24]
50008600:	e3003707 	movw	r3, #1799	; 0x707
50008604:	e3403707 	movt	r3, #1799	; 0x707
50008608:	e5823000 	str	r3, [r2]
5000860c:	e51b3018 	ldr	r3, [fp, #-24]
50008610:	e2433004 	sub	r3, r3, #4
50008614:	e50b3018 	str	r3, [fp, #-24]
50008618:	e51b2018 	ldr	r2, [fp, #-24]
5000861c:	e3003606 	movw	r3, #1542	; 0x606
50008620:	e3403606 	movt	r3, #1542	; 0x606
50008624:	e5823000 	str	r3, [r2]
50008628:	e51b3018 	ldr	r3, [fp, #-24]
5000862c:	e2433004 	sub	r3, r3, #4
50008630:	e50b3018 	str	r3, [fp, #-24]
50008634:	e51b2018 	ldr	r2, [fp, #-24]
50008638:	e3003505 	movw	r3, #1285	; 0x505
5000863c:	e3403505 	movt	r3, #1285	; 0x505
50008640:	e5823000 	str	r3, [r2]
50008644:	e51b3018 	ldr	r3, [fp, #-24]
50008648:	e2433004 	sub	r3, r3, #4
5000864c:	e50b3018 	str	r3, [fp, #-24]
50008650:	e51b2018 	ldr	r2, [fp, #-24]
50008654:	e3003404 	movw	r3, #1028	; 0x404
50008658:	e3403404 	movt	r3, #1028	; 0x404
5000865c:	e5823000 	str	r3, [r2]
50008660:	e51b3018 	ldr	r3, [fp, #-24]
50008664:	e2433004 	sub	r3, r3, #4
50008668:	e50b3018 	str	r3, [fp, #-24]
5000866c:	e51b2018 	ldr	r2, [fp, #-24]
50008670:	e3003303 	movw	r3, #771	; 0x303
50008674:	e3403303 	movt	r3, #771	; 0x303
50008678:	e5823000 	str	r3, [r2]
5000867c:	e51b3018 	ldr	r3, [fp, #-24]
50008680:	e2433004 	sub	r3, r3, #4
50008684:	e50b3018 	str	r3, [fp, #-24]
50008688:	e51b2018 	ldr	r2, [fp, #-24]
5000868c:	e3003202 	movw	r3, #514	; 0x202
50008690:	e3403202 	movt	r3, #514	; 0x202
50008694:	e5823000 	str	r3, [r2]
50008698:	e51b3018 	ldr	r3, [fp, #-24]
5000869c:	e2433004 	sub	r3, r3, #4
500086a0:	e50b3018 	str	r3, [fp, #-24]
500086a4:	e51b2018 	ldr	r2, [fp, #-24]
500086a8:	e3003101 	movw	r3, #257	; 0x101
500086ac:	e3403101 	movt	r3, #257	; 0x101
500086b0:	e5823000 	str	r3, [r2]
500086b4:	e51b3018 	ldr	r3, [fp, #-24]
500086b8:	e2433004 	sub	r3, r3, #4
500086bc:	e50b3018 	str	r3, [fp, #-24]
500086c0:	e51b3018 	ldr	r3, [fp, #-24]
500086c4:	e51b2014 	ldr	r2, [fp, #-20]
500086c8:	e5832000 	str	r2, [r3]
500086cc:	e51b3018 	ldr	r3, [fp, #-24]
500086d0:	e2433004 	sub	r3, r3, #4
500086d4:	e50b3018 	str	r3, [fp, #-24]
500086d8:	e51b3018 	ldr	r3, [fp, #-24]
500086dc:	e3a02050 	mov	r2, #80	; 0x50
500086e0:	e5832000 	str	r2, [r3]
500086e4:	e51b3018 	ldr	r3, [fp, #-24]
500086e8:	e1a00003 	mov	r0, r3
500086ec:	e24bd000 	sub	sp, fp, #0
500086f0:	e49db004 	pop	{fp}		; (ldr fp, [sp], #4)
500086f4:	e12fff1e 	bx	lr

500086f8 <__uctxCopy>:
500086f8:	e52db004 	push	{fp}		; (str fp, [sp, #-4]!)
500086fc:	e28db000 	add	fp, sp, #0
50008700:	e24dd00c 	sub	sp, sp, #12
50008704:	e50b0008 	str	r0, [fp, #-8]
50008708:	e50b100c 	str	r1, [fp, #-12]
5000870c:	e51b3008 	ldr	r3, [fp, #-8]
50008710:	e2832004 	add	r2, r3, #4
50008714:	e50b2008 	str	r2, [fp, #-8]
50008718:	e51b200c 	ldr	r2, [fp, #-12]
5000871c:	e2821004 	add	r1, r2, #4
50008720:	e50b100c 	str	r1, [fp, #-12]
50008724:	e5922000 	ldr	r2, [r2]
50008728:	e5832000 	str	r2, [r3]
5000872c:	e51b3008 	ldr	r3, [fp, #-8]
50008730:	e2832004 	add	r2, r3, #4
50008734:	e50b2008 	str	r2, [fp, #-8]
50008738:	e51b200c 	ldr	r2, [fp, #-12]
5000873c:	e2821004 	add	r1, r2, #4
50008740:	e50b100c 	str	r1, [fp, #-12]
50008744:	e5922000 	ldr	r2, [r2]
50008748:	e5832000 	str	r2, [r3]
5000874c:	e51b3008 	ldr	r3, [fp, #-8]
50008750:	e2832004 	add	r2, r3, #4
50008754:	e50b2008 	str	r2, [fp, #-8]
50008758:	e51b200c 	ldr	r2, [fp, #-12]
5000875c:	e2821004 	add	r1, r2, #4
50008760:	e50b100c 	str	r1, [fp, #-12]
50008764:	e5922000 	ldr	r2, [r2]
50008768:	e5832000 	str	r2, [r3]
5000876c:	e51b3008 	ldr	r3, [fp, #-8]
50008770:	e2832004 	add	r2, r3, #4
50008774:	e50b2008 	str	r2, [fp, #-8]
50008778:	e51b200c 	ldr	r2, [fp, #-12]
5000877c:	e2821004 	add	r1, r2, #4
50008780:	e50b100c 	str	r1, [fp, #-12]
50008784:	e5922000 	ldr	r2, [r2]
50008788:	e5832000 	str	r2, [r3]
5000878c:	e51b3008 	ldr	r3, [fp, #-8]
50008790:	e2832004 	add	r2, r3, #4
50008794:	e50b2008 	str	r2, [fp, #-8]
50008798:	e51b200c 	ldr	r2, [fp, #-12]
5000879c:	e2821004 	add	r1, r2, #4
500087a0:	e50b100c 	str	r1, [fp, #-12]
500087a4:	e5922000 	ldr	r2, [r2]
500087a8:	e5832000 	str	r2, [r3]
500087ac:	e51b3008 	ldr	r3, [fp, #-8]
500087b0:	e2832004 	add	r2, r3, #4
500087b4:	e50b2008 	str	r2, [fp, #-8]
500087b8:	e51b200c 	ldr	r2, [fp, #-12]
500087bc:	e2821004 	add	r1, r2, #4
500087c0:	e50b100c 	str	r1, [fp, #-12]
500087c4:	e5922000 	ldr	r2, [r2]
500087c8:	e5832000 	str	r2, [r3]
500087cc:	e51b3008 	ldr	r3, [fp, #-8]
500087d0:	e2832004 	add	r2, r3, #4
500087d4:	e50b2008 	str	r2, [fp, #-8]
500087d8:	e51b200c 	ldr	r2, [fp, #-12]
500087dc:	e2821004 	add	r1, r2, #4
500087e0:	e50b100c 	str	r1, [fp, #-12]
500087e4:	e5922000 	ldr	r2, [r2]
500087e8:	e5832000 	str	r2, [r3]
500087ec:	e51b3008 	ldr	r3, [fp, #-8]
500087f0:	e2832004 	add	r2, r3, #4
500087f4:	e50b2008 	str	r2, [fp, #-8]
500087f8:	e51b200c 	ldr	r2, [fp, #-12]
500087fc:	e2821004 	add	r1, r2, #4
50008800:	e50b100c 	str	r1, [fp, #-12]
50008804:	e5922000 	ldr	r2, [r2]
50008808:	e5832000 	str	r2, [r3]
5000880c:	e51b3008 	ldr	r3, [fp, #-8]
50008810:	e2832004 	add	r2, r3, #4
50008814:	e50b2008 	str	r2, [fp, #-8]
50008818:	e51b200c 	ldr	r2, [fp, #-12]
5000881c:	e2821004 	add	r1, r2, #4
50008820:	e50b100c 	str	r1, [fp, #-12]
50008824:	e5922000 	ldr	r2, [r2]
50008828:	e5832000 	str	r2, [r3]
5000882c:	e51b3008 	ldr	r3, [fp, #-8]
50008830:	e2832004 	add	r2, r3, #4
50008834:	e50b2008 	str	r2, [fp, #-8]
50008838:	e51b200c 	ldr	r2, [fp, #-12]
5000883c:	e2821004 	add	r1, r2, #4
50008840:	e50b100c 	str	r1, [fp, #-12]
50008844:	e5922000 	ldr	r2, [r2]
50008848:	e5832000 	str	r2, [r3]
5000884c:	e51b3008 	ldr	r3, [fp, #-8]
50008850:	e2832004 	add	r2, r3, #4
50008854:	e50b2008 	str	r2, [fp, #-8]
50008858:	e51b200c 	ldr	r2, [fp, #-12]
5000885c:	e2821004 	add	r1, r2, #4
50008860:	e50b100c 	str	r1, [fp, #-12]
50008864:	e5922000 	ldr	r2, [r2]
50008868:	e5832000 	str	r2, [r3]
5000886c:	e51b3008 	ldr	r3, [fp, #-8]
50008870:	e2832004 	add	r2, r3, #4
50008874:	e50b2008 	str	r2, [fp, #-8]
50008878:	e51b200c 	ldr	r2, [fp, #-12]
5000887c:	e2821004 	add	r1, r2, #4
50008880:	e50b100c 	str	r1, [fp, #-12]
50008884:	e5922000 	ldr	r2, [r2]
50008888:	e5832000 	str	r2, [r3]
5000888c:	e51b3008 	ldr	r3, [fp, #-8]
50008890:	e2832004 	add	r2, r3, #4
50008894:	e50b2008 	str	r2, [fp, #-8]
50008898:	e51b200c 	ldr	r2, [fp, #-12]
5000889c:	e2821004 	add	r1, r2, #4
500088a0:	e50b100c 	str	r1, [fp, #-12]
500088a4:	e5922000 	ldr	r2, [r2]
500088a8:	e5832000 	str	r2, [r3]
500088ac:	e51b3008 	ldr	r3, [fp, #-8]
500088b0:	e2832004 	add	r2, r3, #4
500088b4:	e50b2008 	str	r2, [fp, #-8]
500088b8:	e51b200c 	ldr	r2, [fp, #-12]
500088bc:	e2821004 	add	r1, r2, #4
500088c0:	e50b100c 	str	r1, [fp, #-12]
500088c4:	e5922000 	ldr	r2, [r2]
500088c8:	e5832000 	str	r2, [r3]
500088cc:	e51b3008 	ldr	r3, [fp, #-8]
500088d0:	e2832004 	add	r2, r3, #4
500088d4:	e50b2008 	str	r2, [fp, #-8]
500088d8:	e51b200c 	ldr	r2, [fp, #-12]
500088dc:	e2821004 	add	r1, r2, #4
500088e0:	e50b100c 	str	r1, [fp, #-12]
500088e4:	e5922000 	ldr	r2, [r2]
500088e8:	e5832000 	str	r2, [r3]
500088ec:	e51b3008 	ldr	r3, [fp, #-8]
500088f0:	e2832004 	add	r2, r3, #4
500088f4:	e50b2008 	str	r2, [fp, #-8]
500088f8:	e51b200c 	ldr	r2, [fp, #-12]
500088fc:	e2821004 	add	r1, r2, #4
50008900:	e50b100c 	str	r1, [fp, #-12]
50008904:	e5922000 	ldr	r2, [r2]
50008908:	e5832000 	str	r2, [r3]
5000890c:	e51b3008 	ldr	r3, [fp, #-8]
50008910:	e2832004 	add	r2, r3, #4
50008914:	e50b2008 	str	r2, [fp, #-8]
50008918:	e51b200c 	ldr	r2, [fp, #-12]
5000891c:	e2821004 	add	r1, r2, #4
50008920:	e50b100c 	str	r1, [fp, #-12]
50008924:	e5922000 	ldr	r2, [r2]
50008928:	e5832000 	str	r2, [r3]
5000892c:	e24bd000 	sub	sp, fp, #0
50008930:	e49db004 	pop	{fp}		; (ldr fp, [sp], #4)
50008934:	e12fff1e 	bx	lr

50008938 <L4_OSTaskSwitch>:
50008938:	e92d4800 	push	{fp, lr}
5000893c:	e28db004 	add	fp, sp, #4
50008940:	e24dd008 	sub	sp, sp, #8
50008944:	e50b0008 	str	r0, [fp, #-8]
50008948:	e3073878 	movw	r3, #30840	; 0x7878
5000894c:	e3453001 	movt	r3, #20481	; 0x5001
50008950:	e5933000 	ldr	r3, [r3]
50008954:	e3530000 	cmp	r3, #0
50008958:	0a000016 	beq	500089b8 <L4_OSTaskSwitch+0x80>
5000895c:	e3073878 	movw	r3, #30840	; 0x7878
50008960:	e3453001 	movt	r3, #20481	; 0x5001
50008964:	e5933000 	ldr	r3, [r3]
50008968:	e51b2008 	ldr	r2, [fp, #-8]
5000896c:	e2822038 	add	r2, r2, #56	; 0x38
50008970:	e5922000 	ldr	r2, [r2]
50008974:	e5832008 	str	r2, [r3, #8]
50008978:	e3073878 	movw	r3, #30840	; 0x7878
5000897c:	e3453001 	movt	r3, #20481	; 0x5001
50008980:	e5932000 	ldr	r2, [r3]
50008984:	e3073878 	movw	r3, #30840	; 0x7878
50008988:	e3453001 	movt	r3, #20481	; 0x5001
5000898c:	e5933000 	ldr	r3, [r3]
50008990:	e5933008 	ldr	r3, [r3, #8]
50008994:	e2433044 	sub	r3, r3, #68	; 0x44
50008998:	e5823008 	str	r3, [r2, #8]
5000899c:	e3073878 	movw	r3, #30840	; 0x7878
500089a0:	e3453001 	movt	r3, #20481	; 0x5001
500089a4:	e5933000 	ldr	r3, [r3]
500089a8:	e5933008 	ldr	r3, [r3, #8]
500089ac:	e1a00003 	mov	r0, r3
500089b0:	e51b1008 	ldr	r1, [fp, #-8]
500089b4:	ebffff4f 	bl	500086f8 <__uctxCopy>
500089b8:	e307328c 	movw	r3, #29324	; 0x728c
500089bc:	e3453001 	movt	r3, #20481	; 0x5001
500089c0:	e5933000 	ldr	r3, [r3]
500089c4:	e5933000 	ldr	r3, [r3]
500089c8:	e3530000 	cmp	r3, #0
500089cc:	0a000006 	beq	500089ec <L4_OSTaskSwitch+0xb4>
500089d0:	e307328c 	movw	r3, #29324	; 0x728c
500089d4:	e3453001 	movt	r3, #20481	; 0x5001
500089d8:	e5933000 	ldr	r3, [r3]
500089dc:	e5932000 	ldr	r2, [r3]
500089e0:	e3073878 	movw	r3, #30840	; 0x7878
500089e4:	e3453001 	movt	r3, #20481	; 0x5001
500089e8:	e5832000 	str	r2, [r3]
500089ec:	e3073878 	movw	r3, #30840	; 0x7878
500089f0:	e3453001 	movt	r3, #20481	; 0x5001
500089f4:	e5933000 	ldr	r3, [r3]
500089f8:	e5933008 	ldr	r3, [r3, #8]
500089fc:	e51b0008 	ldr	r0, [fp, #-8]
50008a00:	e1a01003 	mov	r1, r3
50008a04:	ebffff3b 	bl	500086f8 <__uctxCopy>
50008a08:	e3073878 	movw	r3, #30840	; 0x7878
50008a0c:	e3453001 	movt	r3, #20481	; 0x5001
50008a10:	e5932000 	ldr	r2, [r3]
50008a14:	e3073878 	movw	r3, #30840	; 0x7878
50008a18:	e3453001 	movt	r3, #20481	; 0x5001
50008a1c:	e5933000 	ldr	r3, [r3]
50008a20:	e5933008 	ldr	r3, [r3, #8]
50008a24:	e2833044 	add	r3, r3, #68	; 0x44
50008a28:	e5823008 	str	r3, [r2, #8]
50008a2c:	e24bd004 	sub	sp, fp, #4
50008a30:	e8bd8800 	pop	{fp, pc}

50008a34 <L4_OSIntEntry>:
50008a34:	e92d4800 	push	{fp, lr}
50008a38:	e28db004 	add	fp, sp, #4
50008a3c:	e24dd008 	sub	sp, sp, #8
50008a40:	e50b0008 	str	r0, [fp, #-8]
50008a44:	e50b100c 	str	r1, [fp, #-12]
50008a48:	ebfffe65 	bl	500083e4 <tick_announce>
50008a4c:	e51b000c 	ldr	r0, [fp, #-12]
50008a50:	ebffffb8 	bl	50008938 <L4_OSTaskSwitch>
50008a54:	e3a03000 	mov	r3, #0
50008a58:	e1a00003 	mov	r0, r3
50008a5c:	e24bd004 	sub	sp, fp, #4
50008a60:	e8bd8800 	pop	{fp, pc}

50008a64 <uart_init>:
50008a64:	e52db004 	push	{fp}		; (str fp, [sp, #-4]!)
50008a68:	e28db000 	add	fp, sp, #0
50008a6c:	e3a03000 	mov	r3, #0
50008a70:	e1a00003 	mov	r0, r3
50008a74:	e24bd000 	sub	sp, fp, #0
50008a78:	e49db004 	pop	{fp}		; (ldr fp, [sp], #4)
50008a7c:	e12fff1e 	bx	lr

50008a80 <uart_putc>:
50008a80:	e52db004 	push	{fp}		; (str fp, [sp, #-4]!)
50008a84:	e28db000 	add	fp, sp, #0
50008a88:	e24dd00c 	sub	sp, sp, #12
50008a8c:	e1a03000 	mov	r3, r0
50008a90:	e54b3005 	strb	r3, [fp, #-5]
50008a94:	e15b30d5 	ldrsb	r3, [fp, #-5]
50008a98:	e353000a 	cmp	r3, #10
50008a9c:	1a00000a 	bne	50008acc <uart_putc+0x4c>
50008aa0:	e1a00000 	nop			; (mov r0, r0)
50008aa4:	e3a030b4 	mov	r3, #180	; 0xb4
50008aa8:	e3403202 	movt	r3, #514	; 0x202
50008aac:	e5933000 	ldr	r3, [r3]
50008ab0:	e2033010 	and	r3, r3, #16
50008ab4:	e3530000 	cmp	r3, #0
50008ab8:	1afffff9 	bne	50008aa4 <uart_putc+0x24>
50008abc:	e3a03040 	mov	r3, #64	; 0x40
50008ac0:	e3403202 	movt	r3, #514	; 0x202
50008ac4:	e3a0200d 	mov	r2, #13
50008ac8:	e5832000 	str	r2, [r3]
50008acc:	e1a00000 	nop			; (mov r0, r0)
50008ad0:	e3a030b4 	mov	r3, #180	; 0xb4
50008ad4:	e3403202 	movt	r3, #514	; 0x202
50008ad8:	e5933000 	ldr	r3, [r3]
50008adc:	e2033010 	and	r3, r3, #16
50008ae0:	e3530000 	cmp	r3, #0
50008ae4:	1afffff9 	bne	50008ad0 <uart_putc+0x50>
50008ae8:	e3a03040 	mov	r3, #64	; 0x40
50008aec:	e3403202 	movt	r3, #514	; 0x202
50008af0:	e15b20d5 	ldrsb	r2, [fp, #-5]
50008af4:	e5832000 	str	r2, [r3]
50008af8:	e3a03001 	mov	r3, #1
50008afc:	e1a00003 	mov	r0, r3
50008b00:	e24bd000 	sub	sp, fp, #0
50008b04:	e49db004 	pop	{fp}		; (ldr fp, [sp], #4)
50008b08:	e12fff1e 	bx	lr

50008b0c <uart_tstc>:
50008b0c:	e52db004 	push	{fp}		; (str fp, [sp, #-4]!)
50008b10:	e28db000 	add	fp, sp, #0
50008b14:	e3a03098 	mov	r3, #152	; 0x98
50008b18:	e3403202 	movt	r3, #514	; 0x202
50008b1c:	e5933000 	ldr	r3, [r3]
50008b20:	e2033001 	and	r3, r3, #1
50008b24:	e1a00003 	mov	r0, r3
50008b28:	e24bd000 	sub	sp, fp, #0
50008b2c:	e49db004 	pop	{fp}		; (ldr fp, [sp], #4)
50008b30:	e12fff1e 	bx	lr

50008b34 <uart_getc>:
50008b34:	e52db004 	push	{fp}		; (str fp, [sp, #-4]!)
50008b38:	e28db000 	add	fp, sp, #0
50008b3c:	e3a03000 	mov	r3, #0
50008b40:	e3403202 	movt	r3, #514	; 0x202
50008b44:	e5933000 	ldr	r3, [r3]
50008b48:	e1a00003 	mov	r0, r3
50008b4c:	e24bd000 	sub	sp, fp, #0
50008b50:	e49db004 	pop	{fp}		; (ldr fp, [sp], #4)
50008b54:	e12fff1e 	bx	lr

50008b58 <cal_cmd_init>:
50008b58:	e92d4800 	push	{fp, lr}
50008b5c:	e28db004 	add	fp, sp, #4
50008b60:	e30703dc 	movw	r0, #29660	; 0x73dc
50008b64:	e3450001 	movt	r0, #20481	; 0x5001
50008b68:	ebffe04c 	bl	50000ca0 <cmd_add>
50008b6c:	e8bd8800 	pop	{fp, pc}

50008b70 <calculate>:
50008b70:	e92d4800 	push	{fp, lr}
50008b74:	e28db004 	add	fp, sp, #4
50008b78:	e24dd010 	sub	sp, sp, #16
50008b7c:	e50b0010 	str	r0, [fp, #-16]
50008b80:	e3a03000 	mov	r3, #0
50008b84:	e50b3008 	str	r3, [fp, #-8]
50008b88:	e3a03000 	mov	r3, #0
50008b8c:	e50b300c 	str	r3, [fp, #-12]
50008b90:	e51b2010 	ldr	r2, [fp, #-16]
50008b94:	e24b3010 	sub	r3, fp, #16
50008b98:	e1a00002 	mov	r0, r2
50008b9c:	e1a01003 	mov	r1, r3
50008ba0:	eb000149 	bl	500090cc <_get_expr_tree>
50008ba4:	e50b0008 	str	r0, [fp, #-8]
50008ba8:	e51b3008 	ldr	r3, [fp, #-8]
50008bac:	e3530000 	cmp	r3, #0
50008bb0:	1a000006 	bne	50008bd0 <calculate+0x60>
50008bb4:	e51b3010 	ldr	r3, [fp, #-16]
50008bb8:	e3050e0c 	movw	r0, #24076	; 0x5e0c
50008bbc:	e3450001 	movt	r0, #20481	; 0x5001
50008bc0:	e1a01003 	mov	r1, r3
50008bc4:	ebffeeba 	bl	500046b4 <serial_printf>
50008bc8:	e3a03000 	mov	r3, #0
50008bcc:	ea000005 	b	50008be8 <calculate+0x78>
50008bd0:	e51b0008 	ldr	r0, [fp, #-8]
50008bd4:	eb000194 	bl	5000922c <_cal_btree_value>
50008bd8:	e50b000c 	str	r0, [fp, #-12]
50008bdc:	e51b0008 	ldr	r0, [fp, #-8]
50008be0:	eb00017e 	bl	500091e0 <_destory_tree>
50008be4:	e51b300c 	ldr	r3, [fp, #-12]
50008be8:	e1a00003 	mov	r0, r3
50008bec:	e24bd004 	sub	sp, fp, #4
50008bf0:	e8bd8800 	pop	{fp, pc}

50008bf4 <_skip_blank>:
50008bf4:	e92d4800 	push	{fp, lr}
50008bf8:	e28db004 	add	fp, sp, #4
50008bfc:	e24dd008 	sub	sp, sp, #8
50008c00:	e50b0008 	str	r0, [fp, #-8]
50008c04:	ea000002 	b	50008c14 <_skip_blank+0x20>
50008c08:	e51b3008 	ldr	r3, [fp, #-8]
50008c0c:	e2833001 	add	r3, r3, #1
50008c10:	e50b3008 	str	r3, [fp, #-8]
50008c14:	e51b3008 	ldr	r3, [fp, #-8]
50008c18:	e5d33000 	ldrb	r3, [r3]
50008c1c:	e6af3073 	sxtb	r3, r3
50008c20:	e1a00003 	mov	r0, r3
50008c24:	ebfff55c 	bl	5000619c <isspace>
50008c28:	e1a03000 	mov	r3, r0
50008c2c:	e3530000 	cmp	r3, #0
50008c30:	1afffff4 	bne	50008c08 <_skip_blank+0x14>
50008c34:	e51b3008 	ldr	r3, [fp, #-8]
50008c38:	e1a00003 	mov	r0, r3
50008c3c:	e24bd004 	sub	sp, fp, #4
50008c40:	e8bd8800 	pop	{fp, pc}

50008c44 <_get_operand_node>:
50008c44:	e92d4800 	push	{fp, lr}
50008c48:	e28db004 	add	fp, sp, #4
50008c4c:	e24dd010 	sub	sp, sp, #16
50008c50:	e50b0010 	str	r0, [fp, #-16]
50008c54:	e50b1014 	str	r1, [fp, #-20]
50008c58:	e3a03000 	mov	r3, #0
50008c5c:	e50b3008 	str	r3, [fp, #-8]
50008c60:	e3a03000 	mov	r3, #0
50008c64:	e50b300c 	str	r3, [fp, #-12]
50008c68:	e51b0010 	ldr	r0, [fp, #-16]
50008c6c:	ebffffe0 	bl	50008bf4 <_skip_blank>
50008c70:	e50b0010 	str	r0, [fp, #-16]
50008c74:	e51b3010 	ldr	r3, [fp, #-16]
50008c78:	e5d33000 	ldrb	r3, [r3]
50008c7c:	e3530000 	cmp	r3, #0
50008c80:	1a000001 	bne	50008c8c <_get_operand_node+0x48>
50008c84:	e3a03000 	mov	r3, #0
50008c88:	ea000047 	b	50008dac <_get_operand_node+0x168>
50008c8c:	e3a00001 	mov	r0, #1
50008c90:	e3a0101c 	mov	r1, #28
50008c94:	ebffe460 	bl	50001e1c <memH_calloc>
50008c98:	e50b000c 	str	r0, [fp, #-12]
50008c9c:	e51b300c 	ldr	r3, [fp, #-12]
50008ca0:	e3530000 	cmp	r3, #0
50008ca4:	0a000027 	beq	50008d48 <_get_operand_node+0x104>
50008ca8:	e51b3010 	ldr	r3, [fp, #-16]
50008cac:	e5d33000 	ldrb	r3, [r3]
50008cb0:	e6af3073 	sxtb	r3, r3
50008cb4:	e353002b 	cmp	r3, #43	; 0x2b
50008cb8:	0a000004 	beq	50008cd0 <_get_operand_node+0x8c>
50008cbc:	e51b3010 	ldr	r3, [fp, #-16]
50008cc0:	e5d33000 	ldrb	r3, [r3]
50008cc4:	e6af3073 	sxtb	r3, r3
50008cc8:	e353002d 	cmp	r3, #45	; 0x2d
50008ccc:	1a000008 	bne	50008cf4 <_get_operand_node+0xb0>
50008cd0:	e51b3008 	ldr	r3, [fp, #-8]
50008cd4:	e2832001 	add	r2, r3, #1
50008cd8:	e50b2008 	str	r2, [fp, #-8]
50008cdc:	e51b2010 	ldr	r2, [fp, #-16]
50008ce0:	e2821001 	add	r1, r2, #1
50008ce4:	e50b1010 	str	r1, [fp, #-16]
50008ce8:	e5d21000 	ldrb	r1, [r2]
50008cec:	e51b200c 	ldr	r2, [fp, #-12]
50008cf0:	e7c21003 	strb	r1, [r2, r3]
50008cf4:	ea000008 	b	50008d1c <_get_operand_node+0xd8>
50008cf8:	e51b3008 	ldr	r3, [fp, #-8]
50008cfc:	e2832001 	add	r2, r3, #1
50008d00:	e50b2008 	str	r2, [fp, #-8]
50008d04:	e51b2010 	ldr	r2, [fp, #-16]
50008d08:	e2821001 	add	r1, r2, #1
50008d0c:	e50b1010 	str	r1, [fp, #-16]
50008d10:	e5d21000 	ldrb	r1, [r2]
50008d14:	e51b200c 	ldr	r2, [fp, #-12]
50008d18:	e7c21003 	strb	r1, [r2, r3]
50008d1c:	e51b3010 	ldr	r3, [fp, #-16]
50008d20:	e5d33000 	ldrb	r3, [r3]
50008d24:	e6af3073 	sxtb	r3, r3
50008d28:	e2433030 	sub	r3, r3, #48	; 0x30
50008d2c:	e3530009 	cmp	r3, #9
50008d30:	9afffff0 	bls	50008cf8 <_get_operand_node+0xb4>
50008d34:	e51b200c 	ldr	r2, [fp, #-12]
50008d38:	e51b3008 	ldr	r3, [fp, #-8]
50008d3c:	e0823003 	add	r3, r2, r3
50008d40:	e3a02000 	mov	r2, #0
50008d44:	e5c32000 	strb	r2, [r3]
50008d48:	e51b3008 	ldr	r3, [fp, #-8]
50008d4c:	e3530000 	cmp	r3, #0
50008d50:	0a00000d 	beq	50008d8c <_get_operand_node+0x148>
50008d54:	e51b3008 	ldr	r3, [fp, #-8]
50008d58:	e2433001 	sub	r3, r3, #1
50008d5c:	e51b200c 	ldr	r2, [fp, #-12]
50008d60:	e7d23003 	ldrb	r3, [r2, r3]
50008d64:	e6af3073 	sxtb	r3, r3
50008d68:	e353002b 	cmp	r3, #43	; 0x2b
50008d6c:	0a000006 	beq	50008d8c <_get_operand_node+0x148>
50008d70:	e51b3008 	ldr	r3, [fp, #-8]
50008d74:	e2433001 	sub	r3, r3, #1
50008d78:	e51b200c 	ldr	r2, [fp, #-12]
50008d7c:	e7d23003 	ldrb	r3, [r2, r3]
50008d80:	e6af3073 	sxtb	r3, r3
50008d84:	e353002d 	cmp	r3, #45	; 0x2d
50008d88:	1a000003 	bne	50008d9c <_get_operand_node+0x158>
50008d8c:	e51b000c 	ldr	r0, [fp, #-12]
50008d90:	ebffe438 	bl	50001e78 <memH_free>
50008d94:	e3a03000 	mov	r3, #0
50008d98:	ea000003 	b	50008dac <_get_operand_node+0x168>
50008d9c:	e51b3014 	ldr	r3, [fp, #-20]
50008da0:	e51b2010 	ldr	r2, [fp, #-16]
50008da4:	e5832000 	str	r2, [r3]
50008da8:	e51b300c 	ldr	r3, [fp, #-12]
50008dac:	e1a00003 	mov	r0, r3
50008db0:	e24bd004 	sub	sp, fp, #4
50008db4:	e8bd8800 	pop	{fp, pc}

50008db8 <_get_operator_node>:
50008db8:	e92d4800 	push	{fp, lr}
50008dbc:	e28db004 	add	fp, sp, #4
50008dc0:	e24dd010 	sub	sp, sp, #16
50008dc4:	e50b0010 	str	r0, [fp, #-16]
50008dc8:	e50b1014 	str	r1, [fp, #-20]
50008dcc:	e3a03000 	mov	r3, #0
50008dd0:	e50b3008 	str	r3, [fp, #-8]
50008dd4:	e51b0010 	ldr	r0, [fp, #-16]
50008dd8:	ebffff85 	bl	50008bf4 <_skip_blank>
50008ddc:	e50b0010 	str	r0, [fp, #-16]
50008de0:	e51b3010 	ldr	r3, [fp, #-16]
50008de4:	e5d33000 	ldrb	r3, [r3]
50008de8:	e3530000 	cmp	r3, #0
50008dec:	1a000001 	bne	50008df8 <_get_operator_node+0x40>
50008df0:	e3a03000 	mov	r3, #0
50008df4:	ea000013 	b	50008e48 <_get_operator_node+0x90>
50008df8:	e3a00001 	mov	r0, #1
50008dfc:	e3a0101c 	mov	r1, #28
50008e00:	ebffe405 	bl	50001e1c <memH_calloc>
50008e04:	e50b0008 	str	r0, [fp, #-8]
50008e08:	e51b3008 	ldr	r3, [fp, #-8]
50008e0c:	e3530000 	cmp	r3, #0
50008e10:	0a000008 	beq	50008e38 <_get_operator_node+0x80>
50008e14:	e51b3010 	ldr	r3, [fp, #-16]
50008e18:	e2832001 	add	r2, r3, #1
50008e1c:	e50b2010 	str	r2, [fp, #-16]
50008e20:	e5d32000 	ldrb	r2, [r3]
50008e24:	e51b3008 	ldr	r3, [fp, #-8]
50008e28:	e5c32000 	strb	r2, [r3]
50008e2c:	e51b3008 	ldr	r3, [fp, #-8]
50008e30:	e3a02000 	mov	r2, #0
50008e34:	e5c32001 	strb	r2, [r3, #1]
50008e38:	e51b3014 	ldr	r3, [fp, #-20]
50008e3c:	e51b2010 	ldr	r2, [fp, #-16]
50008e40:	e5832000 	str	r2, [r3]
50008e44:	e51b3008 	ldr	r3, [fp, #-8]
50008e48:	e1a00003 	mov	r0, r3
50008e4c:	e24bd004 	sub	sp, fp, #4
50008e50:	e8bd8800 	pop	{fp, pc}

50008e54 <_get_prim>:
50008e54:	e92d4800 	push	{fp, lr}
50008e58:	e28db004 	add	fp, sp, #4
50008e5c:	e24dd018 	sub	sp, sp, #24
50008e60:	e50b0018 	str	r0, [fp, #-24]
50008e64:	e50b101c 	str	r1, [fp, #-28]
50008e68:	e3a03000 	mov	r3, #0
50008e6c:	e50b3008 	str	r3, [fp, #-8]
50008e70:	e51b3018 	ldr	r3, [fp, #-24]
50008e74:	e5d33000 	ldrb	r3, [r3]
50008e78:	e6af3073 	sxtb	r3, r3
50008e7c:	e3530028 	cmp	r3, #40	; 0x28
50008e80:	1a000036 	bne	50008f60 <_get_prim+0x10c>
50008e84:	e3a03001 	mov	r3, #1
50008e88:	e50b300c 	str	r3, [fp, #-12]
50008e8c:	e51b3018 	ldr	r3, [fp, #-24]
50008e90:	e50b3010 	str	r3, [fp, #-16]
50008e94:	ea00001a 	b	50008f04 <_get_prim+0xb0>
50008e98:	e51b3010 	ldr	r3, [fp, #-16]
50008e9c:	e2833001 	add	r3, r3, #1
50008ea0:	e50b3010 	str	r3, [fp, #-16]
50008ea4:	e51b3010 	ldr	r3, [fp, #-16]
50008ea8:	e5d33000 	ldrb	r3, [r3]
50008eac:	e6af3073 	sxtb	r3, r3
50008eb0:	e3530028 	cmp	r3, #40	; 0x28
50008eb4:	0a000004 	beq	50008ecc <_get_prim+0x78>
50008eb8:	e3530029 	cmp	r3, #41	; 0x29
50008ebc:	0a000006 	beq	50008edc <_get_prim+0x88>
50008ec0:	e3530000 	cmp	r3, #0
50008ec4:	0a000008 	beq	50008eec <_get_prim+0x98>
50008ec8:	ea00000c 	b	50008f00 <_get_prim+0xac>
50008ecc:	e51b300c 	ldr	r3, [fp, #-12]
50008ed0:	e2833001 	add	r3, r3, #1
50008ed4:	e50b300c 	str	r3, [fp, #-12]
50008ed8:	ea000009 	b	50008f04 <_get_prim+0xb0>
50008edc:	e51b300c 	ldr	r3, [fp, #-12]
50008ee0:	e2433001 	sub	r3, r3, #1
50008ee4:	e50b300c 	str	r3, [fp, #-12]
50008ee8:	ea000005 	b	50008f04 <_get_prim+0xb0>
50008eec:	e3050e30 	movw	r0, #24112	; 0x5e30
50008ef0:	e3450001 	movt	r0, #20481	; 0x5001
50008ef4:	eb000135 	bl	500093d0 <_error>
50008ef8:	e3a03000 	mov	r3, #0
50008efc:	ea000021 	b	50008f88 <_get_prim+0x134>
50008f00:	e1a00000 	nop			; (mov r0, r0)
50008f04:	e51b300c 	ldr	r3, [fp, #-12]
50008f08:	e3530000 	cmp	r3, #0
50008f0c:	caffffe1 	bgt	50008e98 <_get_prim+0x44>
50008f10:	e51b3010 	ldr	r3, [fp, #-16]
50008f14:	e3a02000 	mov	r2, #0
50008f18:	e5c32000 	strb	r2, [r3]
50008f1c:	e51b3018 	ldr	r3, [fp, #-24]
50008f20:	e2832001 	add	r2, r3, #1
50008f24:	e24b3018 	sub	r3, fp, #24
50008f28:	e1a00002 	mov	r0, r2
50008f2c:	e1a01003 	mov	r1, r3
50008f30:	eb000065 	bl	500090cc <_get_expr_tree>
50008f34:	e50b0008 	str	r0, [fp, #-8]
50008f38:	e51b3010 	ldr	r3, [fp, #-16]
50008f3c:	e3a02029 	mov	r2, #41	; 0x29
50008f40:	e5c32000 	strb	r2, [r3]
50008f44:	e51b3018 	ldr	r3, [fp, #-24]
50008f48:	e2833001 	add	r3, r3, #1
50008f4c:	e50b3018 	str	r3, [fp, #-24]
50008f50:	e51b2018 	ldr	r2, [fp, #-24]
50008f54:	e51b301c 	ldr	r3, [fp, #-28]
50008f58:	e5832000 	str	r2, [r3]
50008f5c:	ea000008 	b	50008f84 <_get_prim+0x130>
50008f60:	e51b2018 	ldr	r2, [fp, #-24]
50008f64:	e24b3018 	sub	r3, fp, #24
50008f68:	e1a00002 	mov	r0, r2
50008f6c:	e1a01003 	mov	r1, r3
50008f70:	ebffff33 	bl	50008c44 <_get_operand_node>
50008f74:	e50b0008 	str	r0, [fp, #-8]
50008f78:	e51b2018 	ldr	r2, [fp, #-24]
50008f7c:	e51b301c 	ldr	r3, [fp, #-28]
50008f80:	e5832000 	str	r2, [r3]
50008f84:	e51b3008 	ldr	r3, [fp, #-8]
50008f88:	e1a00003 	mov	r0, r3
50008f8c:	e24bd004 	sub	sp, fp, #4
50008f90:	e8bd8800 	pop	{fp, pc}

50008f94 <_get_term_tree>:
50008f94:	e92d4800 	push	{fp, lr}
50008f98:	e28db004 	add	fp, sp, #4
50008f9c:	e24dd018 	sub	sp, sp, #24
50008fa0:	e50b0018 	str	r0, [fp, #-24]
50008fa4:	e50b101c 	str	r1, [fp, #-28]
50008fa8:	e51b2018 	ldr	r2, [fp, #-24]
50008fac:	e24b3018 	sub	r3, fp, #24
50008fb0:	e1a00002 	mov	r0, r2
50008fb4:	e1a01003 	mov	r1, r3
50008fb8:	ebffffa5 	bl	50008e54 <_get_prim>
50008fbc:	e50b0008 	str	r0, [fp, #-8]
50008fc0:	e3a03000 	mov	r3, #0
50008fc4:	e50b300c 	str	r3, [fp, #-12]
50008fc8:	e3a03000 	mov	r3, #0
50008fcc:	e50b3010 	str	r3, [fp, #-16]
50008fd0:	e51b3008 	ldr	r3, [fp, #-8]
50008fd4:	e3530000 	cmp	r3, #0
50008fd8:	1a000001 	bne	50008fe4 <_get_term_tree+0x50>
50008fdc:	e3a03000 	mov	r3, #0
50008fe0:	ea000036 	b	500090c0 <_get_term_tree+0x12c>
50008fe4:	e51b3018 	ldr	r3, [fp, #-24]
50008fe8:	e1a00003 	mov	r0, r3
50008fec:	ebffff00 	bl	50008bf4 <_skip_blank>
50008ff0:	e1a03000 	mov	r3, r0
50008ff4:	e50b3018 	str	r3, [fp, #-24]
50008ff8:	ea000022 	b	50009088 <_get_term_tree+0xf4>
50008ffc:	e51b2018 	ldr	r2, [fp, #-24]
50009000:	e24b3018 	sub	r3, fp, #24
50009004:	e1a00002 	mov	r0, r2
50009008:	e1a01003 	mov	r1, r3
5000900c:	ebffff69 	bl	50008db8 <_get_operator_node>
50009010:	e50b000c 	str	r0, [fp, #-12]
50009014:	e51b2018 	ldr	r2, [fp, #-24]
50009018:	e24b3018 	sub	r3, fp, #24
5000901c:	e1a00002 	mov	r0, r2
50009020:	e1a01003 	mov	r1, r3
50009024:	ebffff8a 	bl	50008e54 <_get_prim>
50009028:	e50b0010 	str	r0, [fp, #-16]
5000902c:	e51b3010 	ldr	r3, [fp, #-16]
50009030:	e3530000 	cmp	r3, #0
50009034:	1a000008 	bne	5000905c <_get_term_tree+0xc8>
50009038:	e51b000c 	ldr	r0, [fp, #-12]
5000903c:	ebffe38d 	bl	50001e78 <memH_free>
50009040:	e3a03000 	mov	r3, #0
50009044:	e50b300c 	str	r3, [fp, #-12]
50009048:	e51b0008 	ldr	r0, [fp, #-8]
5000904c:	eb000063 	bl	500091e0 <_destory_tree>
50009050:	e3a03000 	mov	r3, #0
50009054:	e50b3008 	str	r3, [fp, #-8]
50009058:	ea000014 	b	500090b0 <_get_term_tree+0x11c>
5000905c:	e51b300c 	ldr	r3, [fp, #-12]
50009060:	e51b2008 	ldr	r2, [fp, #-8]
50009064:	e5832014 	str	r2, [r3, #20]
50009068:	e51b300c 	ldr	r3, [fp, #-12]
5000906c:	e51b2010 	ldr	r2, [fp, #-16]
50009070:	e5832018 	str	r2, [r3, #24]
50009074:	e51b300c 	ldr	r3, [fp, #-12]
50009078:	e50b3008 	str	r3, [fp, #-8]
5000907c:	e51b3018 	ldr	r3, [fp, #-24]
50009080:	e1a00003 	mov	r0, r3
50009084:	ebfffeda 	bl	50008bf4 <_skip_blank>
50009088:	e51b3018 	ldr	r3, [fp, #-24]
5000908c:	e5d33000 	ldrb	r3, [r3]
50009090:	e6af3073 	sxtb	r3, r3
50009094:	e353002a 	cmp	r3, #42	; 0x2a
50009098:	0affffd7 	beq	50008ffc <_get_term_tree+0x68>
5000909c:	e51b3018 	ldr	r3, [fp, #-24]
500090a0:	e5d33000 	ldrb	r3, [r3]
500090a4:	e6af3073 	sxtb	r3, r3
500090a8:	e353002f 	cmp	r3, #47	; 0x2f
500090ac:	0affffd2 	beq	50008ffc <_get_term_tree+0x68>
500090b0:	e51b2018 	ldr	r2, [fp, #-24]
500090b4:	e51b301c 	ldr	r3, [fp, #-28]
500090b8:	e5832000 	str	r2, [r3]
500090bc:	e51b3008 	ldr	r3, [fp, #-8]
500090c0:	e1a00003 	mov	r0, r3
500090c4:	e24bd004 	sub	sp, fp, #4
500090c8:	e8bd8800 	pop	{fp, pc}

500090cc <_get_expr_tree>:
500090cc:	e92d4800 	push	{fp, lr}
500090d0:	e28db004 	add	fp, sp, #4
500090d4:	e24dd018 	sub	sp, sp, #24
500090d8:	e50b0018 	str	r0, [fp, #-24]
500090dc:	e50b101c 	str	r1, [fp, #-28]
500090e0:	e51b2018 	ldr	r2, [fp, #-24]
500090e4:	e24b3018 	sub	r3, fp, #24
500090e8:	e1a00002 	mov	r0, r2
500090ec:	e1a01003 	mov	r1, r3
500090f0:	ebffffa7 	bl	50008f94 <_get_term_tree>
500090f4:	e50b0008 	str	r0, [fp, #-8]
500090f8:	e3a03000 	mov	r3, #0
500090fc:	e50b300c 	str	r3, [fp, #-12]
50009100:	e3a03000 	mov	r3, #0
50009104:	e50b3010 	str	r3, [fp, #-16]
50009108:	e51b3008 	ldr	r3, [fp, #-8]
5000910c:	e3530000 	cmp	r3, #0
50009110:	1a000001 	bne	5000911c <_get_expr_tree+0x50>
50009114:	e3a03000 	mov	r3, #0
50009118:	ea00002d 	b	500091d4 <_get_expr_tree+0x108>
5000911c:	e51b2018 	ldr	r2, [fp, #-24]
50009120:	e24b3018 	sub	r3, fp, #24
50009124:	e1a00002 	mov	r0, r2
50009128:	e1a01003 	mov	r1, r3
5000912c:	ebffff21 	bl	50008db8 <_get_operator_node>
50009130:	e50b000c 	str	r0, [fp, #-12]
50009134:	ea00001f 	b	500091b8 <_get_expr_tree+0xec>
50009138:	e51b2018 	ldr	r2, [fp, #-24]
5000913c:	e24b3018 	sub	r3, fp, #24
50009140:	e1a00002 	mov	r0, r2
50009144:	e1a01003 	mov	r1, r3
50009148:	ebffff91 	bl	50008f94 <_get_term_tree>
5000914c:	e50b0010 	str	r0, [fp, #-16]
50009150:	e51b3010 	ldr	r3, [fp, #-16]
50009154:	e3530000 	cmp	r3, #0
50009158:	1a000008 	bne	50009180 <_get_expr_tree+0xb4>
5000915c:	e51b000c 	ldr	r0, [fp, #-12]
50009160:	ebffe344 	bl	50001e78 <memH_free>
50009164:	e3a03000 	mov	r3, #0
50009168:	e50b300c 	str	r3, [fp, #-12]
5000916c:	e51b0008 	ldr	r0, [fp, #-8]
50009170:	eb00001a 	bl	500091e0 <_destory_tree>
50009174:	e3a03000 	mov	r3, #0
50009178:	e50b3008 	str	r3, [fp, #-8]
5000917c:	ea000010 	b	500091c4 <_get_expr_tree+0xf8>
50009180:	e51b300c 	ldr	r3, [fp, #-12]
50009184:	e51b2008 	ldr	r2, [fp, #-8]
50009188:	e5832014 	str	r2, [r3, #20]
5000918c:	e51b300c 	ldr	r3, [fp, #-12]
50009190:	e51b2010 	ldr	r2, [fp, #-16]
50009194:	e5832018 	str	r2, [r3, #24]
50009198:	e51b300c 	ldr	r3, [fp, #-12]
5000919c:	e50b3008 	str	r3, [fp, #-8]
500091a0:	e51b2018 	ldr	r2, [fp, #-24]
500091a4:	e24b3018 	sub	r3, fp, #24
500091a8:	e1a00002 	mov	r0, r2
500091ac:	e1a01003 	mov	r1, r3
500091b0:	ebffff00 	bl	50008db8 <_get_operator_node>
500091b4:	e50b000c 	str	r0, [fp, #-12]
500091b8:	e51b300c 	ldr	r3, [fp, #-12]
500091bc:	e3530000 	cmp	r3, #0
500091c0:	1affffdc 	bne	50009138 <_get_expr_tree+0x6c>
500091c4:	e51b2018 	ldr	r2, [fp, #-24]
500091c8:	e51b301c 	ldr	r3, [fp, #-28]
500091cc:	e5832000 	str	r2, [r3]
500091d0:	e51b3008 	ldr	r3, [fp, #-8]
500091d4:	e1a00003 	mov	r0, r3
500091d8:	e24bd004 	sub	sp, fp, #4
500091dc:	e8bd8800 	pop	{fp, pc}

500091e0 <_destory_tree>:
500091e0:	e92d4800 	push	{fp, lr}
500091e4:	e28db004 	add	fp, sp, #4
500091e8:	e24dd008 	sub	sp, sp, #8
500091ec:	e50b0008 	str	r0, [fp, #-8]
500091f0:	e51b3008 	ldr	r3, [fp, #-8]
500091f4:	e3530000 	cmp	r3, #0
500091f8:	0a000009 	beq	50009224 <_destory_tree+0x44>
500091fc:	e51b3008 	ldr	r3, [fp, #-8]
50009200:	e5933014 	ldr	r3, [r3, #20]
50009204:	e1a00003 	mov	r0, r3
50009208:	ebfffff4 	bl	500091e0 <_destory_tree>
5000920c:	e51b3008 	ldr	r3, [fp, #-8]
50009210:	e5933018 	ldr	r3, [r3, #24]
50009214:	e1a00003 	mov	r0, r3
50009218:	ebfffff0 	bl	500091e0 <_destory_tree>
5000921c:	e51b0008 	ldr	r0, [fp, #-8]
50009220:	ebffe314 	bl	50001e78 <memH_free>
50009224:	e24bd004 	sub	sp, fp, #4
50009228:	e8bd8800 	pop	{fp, pc}

5000922c <_cal_btree_value>:
5000922c:	e92d4810 	push	{r4, fp, lr}
50009230:	e28db008 	add	fp, sp, #8
50009234:	e24dd014 	sub	sp, sp, #20
50009238:	e50b0018 	str	r0, [fp, #-24]
5000923c:	e51b3018 	ldr	r3, [fp, #-24]
50009240:	e3530000 	cmp	r3, #0
50009244:	1a000001 	bne	50009250 <_cal_btree_value+0x24>
50009248:	e3a03000 	mov	r3, #0
5000924c:	ea00005c 	b	500093c4 <_cal_btree_value+0x198>
50009250:	e51b3018 	ldr	r3, [fp, #-24]
50009254:	e1a00003 	mov	r0, r3
50009258:	ebffef51 	bl	50004fa4 <strlen>
5000925c:	e1a03000 	mov	r3, r0
50009260:	e3530001 	cmp	r3, #1
50009264:	8a000005 	bhi	50009280 <_cal_btree_value+0x54>
50009268:	e51b3018 	ldr	r3, [fp, #-24]
5000926c:	e5d33000 	ldrb	r3, [r3]
50009270:	e6af3073 	sxtb	r3, r3
50009274:	e2433030 	sub	r3, r3, #48	; 0x30
50009278:	e3530009 	cmp	r3, #9
5000927c:	8a000004 	bhi	50009294 <_cal_btree_value+0x68>
50009280:	e51b3018 	ldr	r3, [fp, #-24]
50009284:	e1a00003 	mov	r0, r3
50009288:	ebfff22f 	bl	50005b4c <atoi>
5000928c:	e1a03000 	mov	r3, r0
50009290:	ea00004b 	b	500093c4 <_cal_btree_value+0x198>
50009294:	e51b3018 	ldr	r3, [fp, #-24]
50009298:	e5d33000 	ldrb	r3, [r3]
5000929c:	e6af3073 	sxtb	r3, r3
500092a0:	e243302a 	sub	r3, r3, #42	; 0x2a
500092a4:	e3530005 	cmp	r3, #5
500092a8:	979ff103 	ldrls	pc, [pc, r3, lsl #2]
500092ac:	ea000040 	b	500093b4 <_cal_btree_value+0x188>
500092b0:	50009328 	.word	0x50009328
500092b4:	500092c8 	.word	0x500092c8
500092b8:	500093b4 	.word	0x500093b4
500092bc:	500092f8 	.word	0x500092f8
500092c0:	500093b4 	.word	0x500093b4
500092c4:	50009358 	.word	0x50009358
500092c8:	e51b3018 	ldr	r3, [fp, #-24]
500092cc:	e5933014 	ldr	r3, [r3, #20]
500092d0:	e1a00003 	mov	r0, r3
500092d4:	ebffffd4 	bl	5000922c <_cal_btree_value>
500092d8:	e1a04000 	mov	r4, r0
500092dc:	e51b3018 	ldr	r3, [fp, #-24]
500092e0:	e5933018 	ldr	r3, [r3, #24]
500092e4:	e1a00003 	mov	r0, r3
500092e8:	ebffffcf 	bl	5000922c <_cal_btree_value>
500092ec:	e1a03000 	mov	r3, r0
500092f0:	e0843003 	add	r3, r4, r3
500092f4:	ea000032 	b	500093c4 <_cal_btree_value+0x198>
500092f8:	e51b3018 	ldr	r3, [fp, #-24]
500092fc:	e5933014 	ldr	r3, [r3, #20]
50009300:	e1a00003 	mov	r0, r3
50009304:	ebffffc8 	bl	5000922c <_cal_btree_value>
50009308:	e1a04000 	mov	r4, r0
5000930c:	e51b3018 	ldr	r3, [fp, #-24]
50009310:	e5933018 	ldr	r3, [r3, #24]
50009314:	e1a00003 	mov	r0, r3
50009318:	ebffffc3 	bl	5000922c <_cal_btree_value>
5000931c:	e1a03000 	mov	r3, r0
50009320:	e0633004 	rsb	r3, r3, r4
50009324:	ea000026 	b	500093c4 <_cal_btree_value+0x198>
50009328:	e51b3018 	ldr	r3, [fp, #-24]
5000932c:	e5933014 	ldr	r3, [r3, #20]
50009330:	e1a00003 	mov	r0, r3
50009334:	ebffffbc 	bl	5000922c <_cal_btree_value>
50009338:	e1a04000 	mov	r4, r0
5000933c:	e51b3018 	ldr	r3, [fp, #-24]
50009340:	e5933018 	ldr	r3, [r3, #24]
50009344:	e1a00003 	mov	r0, r3
50009348:	ebffffb7 	bl	5000922c <_cal_btree_value>
5000934c:	e1a03000 	mov	r3, r0
50009350:	e0030493 	mul	r3, r3, r4
50009354:	ea00001a 	b	500093c4 <_cal_btree_value+0x198>
50009358:	e51b3018 	ldr	r3, [fp, #-24]
5000935c:	e5933018 	ldr	r3, [r3, #24]
50009360:	e1a00003 	mov	r0, r3
50009364:	ebffffb0 	bl	5000922c <_cal_btree_value>
50009368:	e50b0010 	str	r0, [fp, #-16]
5000936c:	e51b3010 	ldr	r3, [fp, #-16]
50009370:	e3530000 	cmp	r3, #0
50009374:	0a000009 	beq	500093a0 <_cal_btree_value+0x174>
50009378:	e51b3018 	ldr	r3, [fp, #-24]
5000937c:	e5933014 	ldr	r3, [r3, #20]
50009380:	e1a00003 	mov	r0, r3
50009384:	ebffffa8 	bl	5000922c <_cal_btree_value>
50009388:	e1a03000 	mov	r3, r0
5000938c:	e1a00003 	mov	r0, r3
50009390:	e51b1010 	ldr	r1, [fp, #-16]
50009394:	eb002e07 	bl	50014bb8 <__aeabi_idiv>
50009398:	e1a03000 	mov	r3, r0
5000939c:	ea000008 	b	500093c4 <_cal_btree_value+0x198>
500093a0:	e3050e44 	movw	r0, #24132	; 0x5e44
500093a4:	e3450001 	movt	r0, #20481	; 0x5001
500093a8:	eb000008 	bl	500093d0 <_error>
500093ac:	e3a03000 	mov	r3, #0
500093b0:	ea000003 	b	500093c4 <_cal_btree_value+0x198>
500093b4:	e3050e50 	movw	r0, #24144	; 0x5e50
500093b8:	e3450001 	movt	r0, #20481	; 0x5001
500093bc:	eb000003 	bl	500093d0 <_error>
500093c0:	e3a03000 	mov	r3, #0
500093c4:	e1a00003 	mov	r0, r3
500093c8:	e24bd008 	sub	sp, fp, #8
500093cc:	e8bd8810 	pop	{r4, fp, pc}

500093d0 <_error>:
500093d0:	e92d4800 	push	{fp, lr}
500093d4:	e28db004 	add	fp, sp, #4
500093d8:	e24dd008 	sub	sp, sp, #8
500093dc:	e50b0008 	str	r0, [fp, #-8]
500093e0:	e3050e64 	movw	r0, #24164	; 0x5e64
500093e4:	e3450001 	movt	r0, #20481	; 0x5001
500093e8:	e51b1008 	ldr	r1, [fp, #-8]
500093ec:	ebffecb0 	bl	500046b4 <serial_printf>
500093f0:	e24bd004 	sub	sp, fp, #4
500093f4:	e8bd8800 	pop	{fp, pc}

500093f8 <C_cal>:
500093f8:	e92d4810 	push	{r4, fp, lr}
500093fc:	e28db008 	add	fp, sp, #8
50009400:	e24dd00c 	sub	sp, sp, #12
50009404:	e50b0010 	str	r0, [fp, #-16]
50009408:	e50b1014 	str	r1, [fp, #-20]
5000940c:	e51b3010 	ldr	r3, [fp, #-16]
50009410:	e3530001 	cmp	r3, #1
50009414:	1a000004 	bne	5000942c <C_cal+0x34>
50009418:	e3050e68 	movw	r0, #24168	; 0x5e68
5000941c:	e3450001 	movt	r0, #20481	; 0x5001
50009420:	ebffeca3 	bl	500046b4 <serial_printf>
50009424:	e3a03000 	mov	r3, #0
50009428:	ea00000e 	b	50009468 <C_cal+0x70>
5000942c:	e51b3014 	ldr	r3, [fp, #-20]
50009430:	e2833004 	add	r3, r3, #4
50009434:	e5934000 	ldr	r4, [r3]
50009438:	e51b3014 	ldr	r3, [fp, #-20]
5000943c:	e2833004 	add	r3, r3, #4
50009440:	e5933000 	ldr	r3, [r3]
50009444:	e1a00003 	mov	r0, r3
50009448:	ebfffdc8 	bl	50008b70 <calculate>
5000944c:	e1a03000 	mov	r3, r0
50009450:	e3050e84 	movw	r0, #24196	; 0x5e84
50009454:	e3450001 	movt	r0, #20481	; 0x5001
50009458:	e1a01004 	mov	r1, r4
5000945c:	e1a02003 	mov	r2, r3
50009460:	ebffec93 	bl	500046b4 <serial_printf>
50009464:	e3a03000 	mov	r3, #0
50009468:	e1a00003 	mov	r0, r3
5000946c:	e24bd008 	sub	sp, fp, #8
50009470:	e8bd8810 	pop	{r4, fp, pc}

50009474 <date_cmd_init>:
50009474:	e92d4800 	push	{fp, lr}
50009478:	e28db004 	add	fp, sp, #4
5000947c:	e30703e8 	movw	r0, #29672	; 0x73e8
50009480:	e3450001 	movt	r0, #20481	; 0x5001
50009484:	ebffde05 	bl	50000ca0 <cmd_add>
50009488:	e8bd8800 	pop	{fp, pc}

5000948c <_is_leapyear>:
5000948c:	e52db004 	push	{fp}		; (str fp, [sp, #-4]!)
50009490:	e28db000 	add	fp, sp, #0
50009494:	e24dd00c 	sub	sp, sp, #12
50009498:	e50b0008 	str	r0, [fp, #-8]
5000949c:	e51b2008 	ldr	r2, [fp, #-8]
500094a0:	e308351f 	movw	r3, #34079	; 0x851f
500094a4:	e34531eb 	movt	r3, #20971	; 0x51eb
500094a8:	e0c10392 	smull	r0, r1, r2, r3
500094ac:	e1a013c1 	asr	r1, r1, #7
500094b0:	e1a03fc2 	asr	r3, r2, #31
500094b4:	e0633001 	rsb	r3, r3, r1
500094b8:	e1a03203 	lsl	r3, r3, #4
500094bc:	e1a01103 	lsl	r1, r3, #2
500094c0:	e0833001 	add	r3, r3, r1
500094c4:	e1a01103 	lsl	r1, r3, #2
500094c8:	e0833001 	add	r3, r3, r1
500094cc:	e0633002 	rsb	r3, r3, r2
500094d0:	e3530000 	cmp	r3, #0
500094d4:	0a000012 	beq	50009524 <_is_leapyear+0x98>
500094d8:	e51b3008 	ldr	r3, [fp, #-8]
500094dc:	e2033003 	and	r3, r3, #3
500094e0:	e3530000 	cmp	r3, #0
500094e4:	1a000010 	bne	5000952c <_is_leapyear+0xa0>
500094e8:	e51b2008 	ldr	r2, [fp, #-8]
500094ec:	e308351f 	movw	r3, #34079	; 0x851f
500094f0:	e34531eb 	movt	r3, #20971	; 0x51eb
500094f4:	e0c10392 	smull	r0, r1, r2, r3
500094f8:	e1a012c1 	asr	r1, r1, #5
500094fc:	e1a03fc2 	asr	r3, r2, #31
50009500:	e0633001 	rsb	r3, r3, r1
50009504:	e1a03103 	lsl	r3, r3, #2
50009508:	e1a01103 	lsl	r1, r3, #2
5000950c:	e0833001 	add	r3, r3, r1
50009510:	e1a01103 	lsl	r1, r3, #2
50009514:	e0833001 	add	r3, r3, r1
50009518:	e0633002 	rsb	r3, r3, r2
5000951c:	e3530000 	cmp	r3, #0
50009520:	0a000001 	beq	5000952c <_is_leapyear+0xa0>
50009524:	e3a03001 	mov	r3, #1
50009528:	ea000000 	b	50009530 <_is_leapyear+0xa4>
5000952c:	e3a03000 	mov	r3, #0
50009530:	e1a00003 	mov	r0, r3
50009534:	e24bd000 	sub	sp, fp, #0
50009538:	e49db004 	pop	{fp}		; (ldr fp, [sp], #4)
5000953c:	e12fff1e 	bx	lr

50009540 <_is_big_moon>:
50009540:	e52db004 	push	{fp}		; (str fp, [sp, #-4]!)
50009544:	e28db000 	add	fp, sp, #0
50009548:	e24dd00c 	sub	sp, sp, #12
5000954c:	e1a02000 	mov	r2, r0
50009550:	e1a03001 	mov	r3, r1
50009554:	e54b2005 	strb	r2, [fp, #-5]
50009558:	e14b30b8 	strh	r3, [fp, #-8]
5000955c:	e55b3005 	ldrb	r3, [fp, #-5]
50009560:	e2433001 	sub	r3, r3, #1
50009564:	e353000c 	cmp	r3, #12
50009568:	979ff103 	ldrls	pc, [pc, r3, lsl #2]
5000956c:	ea000032 	b	5000963c <_is_big_moon+0xfc>
50009570:	500095a4 	.word	0x500095a4
50009574:	500095a4 	.word	0x500095a4
50009578:	500095a4 	.word	0x500095a4
5000957c:	500095a4 	.word	0x500095a4
50009580:	500095dc 	.word	0x500095dc
50009584:	500095dc 	.word	0x500095dc
50009588:	500095dc 	.word	0x500095dc
5000958c:	500095dc 	.word	0x500095dc
50009590:	500095dc 	.word	0x500095dc
50009594:	500095dc 	.word	0x500095dc
50009598:	500095dc 	.word	0x500095dc
5000959c:	500095dc 	.word	0x500095dc
500095a0:	5000961c 	.word	0x5000961c
500095a4:	e15b20b8 	ldrh	r2, [fp, #-8]
500095a8:	e3053ea8 	movw	r3, #24232	; 0x5ea8
500095ac:	e3453001 	movt	r3, #20481	; 0x5001
500095b0:	e7d33002 	ldrb	r3, [r3, r2]
500095b4:	e6ef1073 	uxtb	r1, r3
500095b8:	e55b3005 	ldrb	r3, [fp, #-5]
500095bc:	e3a02010 	mov	r2, #16
500095c0:	e1a03352 	asr	r3, r2, r3
500095c4:	e6ef3073 	uxtb	r3, r3
500095c8:	e1a02001 	mov	r2, r1
500095cc:	e0033002 	and	r3, r3, r2
500095d0:	e6ef3073 	uxtb	r3, r3
500095d4:	e6ef3073 	uxtb	r3, r3
500095d8:	ea000018 	b	50009640 <_is_big_moon+0x100>
500095dc:	e15b30b8 	ldrh	r3, [fp, #-8]
500095e0:	e2832001 	add	r2, r3, #1
500095e4:	e3053ea8 	movw	r3, #24232	; 0x5ea8
500095e8:	e3453001 	movt	r3, #20481	; 0x5001
500095ec:	e7d33002 	ldrb	r3, [r3, r2]
500095f0:	e6ef1073 	uxtb	r1, r3
500095f4:	e55b3005 	ldrb	r3, [fp, #-5]
500095f8:	e2433004 	sub	r3, r3, #4
500095fc:	e3a02c01 	mov	r2, #256	; 0x100
50009600:	e1a03352 	asr	r3, r2, r3
50009604:	e6ef3073 	uxtb	r3, r3
50009608:	e1a02001 	mov	r2, r1
5000960c:	e0033002 	and	r3, r3, r2
50009610:	e6ef3073 	uxtb	r3, r3
50009614:	e6ef3073 	uxtb	r3, r3
50009618:	ea000008 	b	50009640 <_is_big_moon+0x100>
5000961c:	e15b30b8 	ldrh	r3, [fp, #-8]
50009620:	e2832002 	add	r2, r3, #2
50009624:	e3053ea8 	movw	r3, #24232	; 0x5ea8
50009628:	e3453001 	movt	r3, #20481	; 0x5001
5000962c:	e7d33002 	ldrb	r3, [r3, r2]
50009630:	e3c3307f 	bic	r3, r3, #127	; 0x7f
50009634:	e6ef3073 	uxtb	r3, r3
50009638:	ea000000 	b	50009640 <_is_big_moon+0x100>
5000963c:	e3a03000 	mov	r3, #0
50009640:	e1a00003 	mov	r0, r3
50009644:	e24bd000 	sub	sp, fp, #0
50009648:	e49db004 	pop	{fp}		; (ldr fp, [sp], #4)
5000964c:	e12fff1e 	bx	lr

50009650 <_fill_nongli_str>:
50009650:	e92d4800 	push	{fp, lr}
50009654:	e28db004 	add	fp, sp, #4
50009658:	e24dd010 	sub	sp, sp, #16
5000965c:	e50b0010 	str	r0, [fp, #-16]
50009660:	e51b3010 	ldr	r3, [fp, #-16]
50009664:	e3530000 	cmp	r3, #0
50009668:	0a000003 	beq	5000967c <_fill_nongli_str+0x2c>
5000966c:	e51b3010 	ldr	r3, [fp, #-16]
50009670:	e5933000 	ldr	r3, [r3]
50009674:	e3530003 	cmp	r3, #3
50009678:	ca000001 	bgt	50009684 <_fill_nongli_str+0x34>
5000967c:	e3e03000 	mvn	r3, #0
50009680:	ea0000a0 	b	50009908 <_fill_nongli_str+0x2b8>
50009684:	e51b3010 	ldr	r3, [fp, #-16]
50009688:	e5933000 	ldr	r3, [r3]
5000968c:	e2433004 	sub	r3, r3, #4
50009690:	e3082889 	movw	r2, #34953	; 0x8889
50009694:	e3482888 	movt	r2, #34952	; 0x8888
50009698:	e0c10293 	smull	r0, r1, r3, r2
5000969c:	e0832001 	add	r2, r3, r1
500096a0:	e1a012c2 	asr	r1, r2, #5
500096a4:	e1a02fc3 	asr	r2, r3, #31
500096a8:	e0622001 	rsb	r2, r2, r1
500096ac:	e1a01002 	mov	r1, r2
500096b0:	e1a02101 	lsl	r2, r1, #2
500096b4:	e1a01002 	mov	r1, r2
500096b8:	e1a02201 	lsl	r2, r1, #4
500096bc:	e0612002 	rsb	r2, r1, r2
500096c0:	e0623003 	rsb	r3, r2, r3
500096c4:	e50b3008 	str	r3, [fp, #-8]
500096c8:	e51b3010 	ldr	r3, [fp, #-16]
500096cc:	e283c015 	add	ip, r3, #21
500096d0:	e51b2008 	ldr	r2, [fp, #-8]
500096d4:	e3063667 	movw	r3, #26215	; 0x6667
500096d8:	e3463666 	movt	r3, #26214	; 0x6666
500096dc:	e0c10392 	smull	r0, r1, r2, r3
500096e0:	e1a01141 	asr	r1, r1, #2
500096e4:	e1a03fc2 	asr	r3, r2, #31
500096e8:	e0631001 	rsb	r1, r3, r1
500096ec:	e1a03001 	mov	r3, r1
500096f0:	e1a03083 	lsl	r3, r3, #1
500096f4:	e1a01103 	lsl	r1, r3, #2
500096f8:	e0833001 	add	r3, r3, r1
500096fc:	e0631002 	rsb	r1, r3, r2
50009700:	e1a03001 	mov	r3, r1
50009704:	e1a03083 	lsl	r3, r3, #1
50009708:	e0833001 	add	r3, r3, r1
5000970c:	e30723f4 	movw	r2, #29684	; 0x73f4
50009710:	e3452001 	movt	r2, #20481	; 0x5001
50009714:	e0833002 	add	r3, r3, r2
50009718:	e1a0000c 	mov	r0, ip
5000971c:	e1a01003 	mov	r1, r3
50009720:	ebffed29 	bl	50004bcc <strcpy>
50009724:	e51b3010 	ldr	r3, [fp, #-16]
50009728:	e283c017 	add	ip, r3, #23
5000972c:	e51b2008 	ldr	r2, [fp, #-8]
50009730:	e30a3aab 	movw	r3, #43691	; 0xaaab
50009734:	e3423aaa 	movt	r3, #10922	; 0x2aaa
50009738:	e0c10392 	smull	r0, r1, r2, r3
5000973c:	e1a010c1 	asr	r1, r1, #1
50009740:	e1a03fc2 	asr	r3, r2, #31
50009744:	e0631001 	rsb	r1, r3, r1
50009748:	e1a03101 	lsl	r3, r1, #2
5000974c:	e1a01003 	mov	r1, r3
50009750:	e1a03101 	lsl	r3, r1, #2
50009754:	e0613003 	rsb	r3, r1, r3
50009758:	e0631002 	rsb	r1, r3, r2
5000975c:	e1a03001 	mov	r3, r1
50009760:	e1a03083 	lsl	r3, r3, #1
50009764:	e0833001 	add	r3, r3, r1
50009768:	e3072414 	movw	r2, #29716	; 0x7414
5000976c:	e3452001 	movt	r2, #20481	; 0x5001
50009770:	e0833002 	add	r3, r3, r2
50009774:	e1a0000c 	mov	r0, ip
50009778:	e1a01003 	mov	r1, r3
5000977c:	ebffed12 	bl	50004bcc <strcpy>
50009780:	e51b3010 	ldr	r3, [fp, #-16]
50009784:	e283c01a 	add	ip, r3, #26
50009788:	e51b2008 	ldr	r2, [fp, #-8]
5000978c:	e30a3aab 	movw	r3, #43691	; 0xaaab
50009790:	e3423aaa 	movt	r3, #10922	; 0x2aaa
50009794:	e0c10392 	smull	r0, r1, r2, r3
50009798:	e1a010c1 	asr	r1, r1, #1
5000979c:	e1a03fc2 	asr	r3, r2, #31
500097a0:	e0631001 	rsb	r1, r3, r1
500097a4:	e1a03101 	lsl	r3, r1, #2
500097a8:	e1a01003 	mov	r1, r3
500097ac:	e1a03101 	lsl	r3, r1, #2
500097b0:	e0613003 	rsb	r3, r1, r3
500097b4:	e0631002 	rsb	r1, r3, r2
500097b8:	e1a03001 	mov	r3, r1
500097bc:	e1a03083 	lsl	r3, r3, #1
500097c0:	e0833001 	add	r3, r3, r1
500097c4:	e3072438 	movw	r2, #29752	; 0x7438
500097c8:	e3452001 	movt	r2, #20481	; 0x5001
500097cc:	e0833002 	add	r3, r3, r2
500097d0:	e1a0000c 	mov	r0, ip
500097d4:	e1a01003 	mov	r1, r3
500097d8:	ebffecfb 	bl	50004bcc <strcpy>
500097dc:	e51b3010 	ldr	r3, [fp, #-16]
500097e0:	e283100c 	add	r1, r3, #12
500097e4:	e51b3010 	ldr	r3, [fp, #-16]
500097e8:	e5933004 	ldr	r3, [r3, #4]
500097ec:	e2432001 	sub	r2, r3, #1
500097f0:	e1a03002 	mov	r3, r2
500097f4:	e1a03083 	lsl	r3, r3, #1
500097f8:	e0833002 	add	r3, r3, r2
500097fc:	e307245c 	movw	r2, #29788	; 0x745c
50009800:	e3452001 	movt	r2, #20481	; 0x5001
50009804:	e0833002 	add	r3, r3, r2
50009808:	e1a00001 	mov	r0, r1
5000980c:	e1a01003 	mov	r1, r3
50009810:	ebffeced 	bl	50004bcc <strcpy>
50009814:	e51b3010 	ldr	r3, [fp, #-16]
50009818:	e283200e 	add	r2, r3, #14
5000981c:	e3063124 	movw	r3, #24868	; 0x6124
50009820:	e3453001 	movt	r3, #20481	; 0x5001
50009824:	e1a01002 	mov	r1, r2
50009828:	e1a02003 	mov	r2, r3
5000982c:	e3a03003 	mov	r3, #3
50009830:	e1a00001 	mov	r0, r1
50009834:	e1a01002 	mov	r1, r2
50009838:	e1a02003 	mov	r2, r3
5000983c:	ebffef27 	bl	500054e0 <memcpy>
50009840:	e51b3010 	ldr	r3, [fp, #-16]
50009844:	e2830010 	add	r0, r3, #16
50009848:	e51b3010 	ldr	r3, [fp, #-16]
5000984c:	e5933008 	ldr	r3, [r3, #8]
50009850:	e353000a 	cmp	r3, #10
50009854:	0a00000e 	beq	50009894 <_fill_nongli_str+0x244>
50009858:	e51b3010 	ldr	r3, [fp, #-16]
5000985c:	e5931008 	ldr	r1, [r3, #8]
50009860:	e3063667 	movw	r3, #26215	; 0x6667
50009864:	e3463666 	movt	r3, #26214	; 0x6666
50009868:	e0c32391 	smull	r2, r3, r1, r3
5000986c:	e1a02143 	asr	r2, r3, #2
50009870:	e1a03fc1 	asr	r3, r1, #31
50009874:	e0632002 	rsb	r2, r3, r2
50009878:	e1a03002 	mov	r3, r2
5000987c:	e1a03083 	lsl	r3, r3, #1
50009880:	e0833002 	add	r3, r3, r2
50009884:	e3072480 	movw	r2, #29824	; 0x7480
50009888:	e3452001 	movt	r2, #20481	; 0x5001
5000988c:	e0833002 	add	r3, r3, r2
50009890:	ea000001 	b	5000989c <_fill_nongli_str+0x24c>
50009894:	e3073480 	movw	r3, #29824	; 0x7480
50009898:	e3453001 	movt	r3, #20481	; 0x5001
5000989c:	e1a01003 	mov	r1, r3
500098a0:	ebffecc9 	bl	50004bcc <strcpy>
500098a4:	e51b3010 	ldr	r3, [fp, #-16]
500098a8:	e283c012 	add	ip, r3, #18
500098ac:	e51b3010 	ldr	r3, [fp, #-16]
500098b0:	e5932008 	ldr	r2, [r3, #8]
500098b4:	e3063667 	movw	r3, #26215	; 0x6667
500098b8:	e3463666 	movt	r3, #26214	; 0x6666
500098bc:	e0c10392 	smull	r0, r1, r2, r3
500098c0:	e1a01141 	asr	r1, r1, #2
500098c4:	e1a03fc2 	asr	r3, r2, #31
500098c8:	e0631001 	rsb	r1, r3, r1
500098cc:	e1a03001 	mov	r3, r1
500098d0:	e1a03083 	lsl	r3, r3, #1
500098d4:	e1a01103 	lsl	r1, r3, #2
500098d8:	e0833001 	add	r3, r3, r1
500098dc:	e0631002 	rsb	r1, r3, r2
500098e0:	e1a03001 	mov	r3, r1
500098e4:	e1a03083 	lsl	r3, r3, #1
500098e8:	e0833001 	add	r3, r3, r1
500098ec:	e307248c 	movw	r2, #29836	; 0x748c
500098f0:	e3452001 	movt	r2, #20481	; 0x5001
500098f4:	e0833002 	add	r3, r3, r2
500098f8:	e1a0000c 	mov	r0, ip
500098fc:	e1a01003 	mov	r1, r3
50009900:	ebffecb1 	bl	50004bcc <strcpy>
50009904:	e3a03000 	mov	r3, #0
50009908:	e1a00003 	mov	r0, r3
5000990c:	e24bd004 	sub	sp, fp, #4
50009910:	e8bd8800 	pop	{fp, pc}

50009914 <_get_jie_qi>:
50009914:	e52db004 	push	{fp}		; (str fp, [sp, #-4]!)
50009918:	e28db000 	add	fp, sp, #0
5000991c:	e24dd024 	sub	sp, sp, #36	; 0x24
50009920:	e50b0018 	str	r0, [fp, #-24]
50009924:	e50b101c 	str	r1, [fp, #-28]
50009928:	e50b2020 	str	r2, [fp, #-32]
5000992c:	e51b3018 	ldr	r3, [fp, #-24]
50009930:	e3530e7d 	cmp	r3, #2000	; 0x7d0
50009934:	ba000009 	blt	50009960 <_get_jie_qi+0x4c>
50009938:	e51b3018 	ldr	r3, [fp, #-24]
5000993c:	e3002802 	movw	r2, #2050	; 0x802
50009940:	e1530002 	cmp	r3, r2
50009944:	ca000005 	bgt	50009960 <_get_jie_qi+0x4c>
50009948:	e51b301c 	ldr	r3, [fp, #-28]
5000994c:	e3530000 	cmp	r3, #0
50009950:	ba000002 	blt	50009960 <_get_jie_qi+0x4c>
50009954:	e51b301c 	ldr	r3, [fp, #-28]
50009958:	e353000c 	cmp	r3, #12
5000995c:	da000001 	ble	50009968 <_get_jie_qi+0x54>
50009960:	e3a03000 	mov	r3, #0
50009964:	ea00004c 	b	50009a9c <_get_jie_qi+0x188>
50009968:	e51b301c 	ldr	r3, [fp, #-28]
5000996c:	e2433001 	sub	r3, r3, #1
50009970:	e1a03083 	lsl	r3, r3, #1
50009974:	e50b3008 	str	r3, [fp, #-8]
50009978:	e51b3020 	ldr	r3, [fp, #-32]
5000997c:	e353000e 	cmp	r3, #14
50009980:	da000002 	ble	50009990 <_get_jie_qi+0x7c>
50009984:	e51b3008 	ldr	r3, [fp, #-8]
50009988:	e2833001 	add	r3, r3, #1
5000998c:	e50b3008 	str	r3, [fp, #-8]
50009990:	e3063128 	movw	r3, #24872	; 0x6128
50009994:	e3453001 	movt	r3, #20481	; 0x5001
50009998:	e51b2008 	ldr	r2, [fp, #-8]
5000999c:	e0833002 	add	r3, r3, r2
500099a0:	e5d33000 	ldrb	r3, [r3]
500099a4:	e50b300c 	str	r3, [fp, #-12]
500099a8:	e51b3018 	ldr	r3, [fp, #-24]
500099ac:	e2432e7d 	sub	r2, r3, #2000	; 0x7d0
500099b0:	e1a03002 	mov	r3, r2
500099b4:	e1a03083 	lsl	r3, r3, #1
500099b8:	e0832002 	add	r2, r3, r2
500099bc:	e51b3008 	ldr	r3, [fp, #-8]
500099c0:	e2831007 	add	r1, r3, #7
500099c4:	e3530000 	cmp	r3, #0
500099c8:	b1a03001 	movlt	r3, r1
500099cc:	a1a03003 	movge	r3, r3
500099d0:	e1a031c3 	asr	r3, r3, #3
500099d4:	e0822003 	add	r2, r2, r3
500099d8:	e3063140 	movw	r3, #24896	; 0x6140
500099dc:	e3453001 	movt	r3, #20481	; 0x5001
500099e0:	e7d33002 	ldrb	r3, [r3, r2]
500099e4:	e50b3010 	str	r3, [fp, #-16]
500099e8:	e51b2008 	ldr	r2, [fp, #-8]
500099ec:	e1a03fc2 	asr	r3, r2, #31
500099f0:	e1a03ea3 	lsr	r3, r3, #29
500099f4:	e0822003 	add	r2, r2, r3
500099f8:	e2022007 	and	r2, r2, #7
500099fc:	e0633002 	rsb	r3, r3, r2
50009a00:	e1a02003 	mov	r2, r3
50009a04:	e51b3010 	ldr	r3, [fp, #-16]
50009a08:	e1a03213 	lsl	r3, r3, r2
50009a0c:	e2033080 	and	r3, r3, #128	; 0x80
50009a10:	e50b3014 	str	r3, [fp, #-20]
50009a14:	e51b3014 	ldr	r3, [fp, #-20]
50009a18:	e3530000 	cmp	r3, #0
50009a1c:	0a000016 	beq	50009a7c <_get_jie_qi+0x168>
50009a20:	e51b3008 	ldr	r3, [fp, #-8]
50009a24:	e3530001 	cmp	r3, #1
50009a28:	0a000008 	beq	50009a50 <_get_jie_qi+0x13c>
50009a2c:	e51b3008 	ldr	r3, [fp, #-8]
50009a30:	e353000b 	cmp	r3, #11
50009a34:	0a000005 	beq	50009a50 <_get_jie_qi+0x13c>
50009a38:	e51b3008 	ldr	r3, [fp, #-8]
50009a3c:	e3530012 	cmp	r3, #18
50009a40:	0a000002 	beq	50009a50 <_get_jie_qi+0x13c>
50009a44:	e51b3008 	ldr	r3, [fp, #-8]
50009a48:	e3530015 	cmp	r3, #21
50009a4c:	1a000007 	bne	50009a70 <_get_jie_qi+0x15c>
50009a50:	e51b3018 	ldr	r3, [fp, #-24]
50009a54:	e30027fb 	movw	r2, #2043	; 0x7fb
50009a58:	e1530002 	cmp	r3, r2
50009a5c:	ca000003 	bgt	50009a70 <_get_jie_qi+0x15c>
50009a60:	e51b300c 	ldr	r3, [fp, #-12]
50009a64:	e2833001 	add	r3, r3, #1
50009a68:	e50b300c 	str	r3, [fp, #-12]
50009a6c:	ea000002 	b	50009a7c <_get_jie_qi+0x168>
50009a70:	e51b300c 	ldr	r3, [fp, #-12]
50009a74:	e2433001 	sub	r3, r3, #1
50009a78:	e50b300c 	str	r3, [fp, #-12]
50009a7c:	e51b2020 	ldr	r2, [fp, #-32]
50009a80:	e51b300c 	ldr	r3, [fp, #-12]
50009a84:	e1520003 	cmp	r2, r3
50009a88:	1a000002 	bne	50009a98 <_get_jie_qi+0x184>
50009a8c:	e51b3008 	ldr	r3, [fp, #-8]
50009a90:	e2833001 	add	r3, r3, #1
50009a94:	ea000000 	b	50009a9c <_get_jie_qi+0x188>
50009a98:	e3a03000 	mov	r3, #0
50009a9c:	e1a00003 	mov	r0, r3
50009aa0:	e24bd000 	sub	sp, fp, #0
50009aa4:	e49db004 	pop	{fp}		; (ldr fp, [sp], #4)
50009aa8:	e12fff1e 	bx	lr

50009aac <_get_next_jie_qi>:
50009aac:	e92d4800 	push	{fp, lr}
50009ab0:	e28db004 	add	fp, sp, #4
50009ab4:	e24dd020 	sub	sp, sp, #32
50009ab8:	e50b0018 	str	r0, [fp, #-24]
50009abc:	e50b101c 	str	r1, [fp, #-28]
50009ac0:	e50b2020 	str	r2, [fp, #-32]
50009ac4:	e50b3024 	str	r3, [fp, #-36]	; 0x24
50009ac8:	e3a03001 	mov	r3, #1
50009acc:	e50b3008 	str	r3, [fp, #-8]
50009ad0:	e51b301c 	ldr	r3, [fp, #-28]
50009ad4:	e2432001 	sub	r2, r3, #1
50009ad8:	e3063118 	movw	r3, #24856	; 0x6118
50009adc:	e3453001 	movt	r3, #20481	; 0x5001
50009ae0:	e7d33002 	ldrb	r3, [r3, r2]
50009ae4:	e50b300c 	str	r3, [fp, #-12]
50009ae8:	e51b301c 	ldr	r3, [fp, #-28]
50009aec:	e3530002 	cmp	r3, #2
50009af0:	1a000007 	bne	50009b14 <_get_next_jie_qi+0x68>
50009af4:	e51b0018 	ldr	r0, [fp, #-24]
50009af8:	ebfffe63 	bl	5000948c <_is_leapyear>
50009afc:	e1a03000 	mov	r3, r0
50009b00:	e3530000 	cmp	r3, #0
50009b04:	0a000002 	beq	50009b14 <_get_next_jie_qi+0x68>
50009b08:	e51b300c 	ldr	r3, [fp, #-12]
50009b0c:	e2833001 	add	r3, r3, #1
50009b10:	e50b300c 	str	r3, [fp, #-12]
50009b14:	e51b3020 	ldr	r3, [fp, #-32]
50009b18:	e2833001 	add	r3, r3, #1
50009b1c:	e50b3020 	str	r3, [fp, #-32]
50009b20:	e51b2020 	ldr	r2, [fp, #-32]
50009b24:	e51b300c 	ldr	r3, [fp, #-12]
50009b28:	e1520003 	cmp	r2, r3
50009b2c:	da000009 	ble	50009b58 <_get_next_jie_qi+0xac>
50009b30:	e51b301c 	ldr	r3, [fp, #-28]
50009b34:	e353000c 	cmp	r3, #12
50009b38:	0a000002 	beq	50009b48 <_get_next_jie_qi+0x9c>
50009b3c:	e51b301c 	ldr	r3, [fp, #-28]
50009b40:	e2833001 	add	r3, r3, #1
50009b44:	ea000000 	b	50009b4c <_get_next_jie_qi+0xa0>
50009b48:	e3a03001 	mov	r3, #1
50009b4c:	e50b301c 	str	r3, [fp, #-28]
50009b50:	e3a03001 	mov	r3, #1
50009b54:	e50b3020 	str	r3, [fp, #-32]
50009b58:	e51b0018 	ldr	r0, [fp, #-24]
50009b5c:	e51b101c 	ldr	r1, [fp, #-28]
50009b60:	e51b2020 	ldr	r2, [fp, #-32]
50009b64:	ebffff6a 	bl	50009914 <_get_jie_qi>
50009b68:	e50b0010 	str	r0, [fp, #-16]
50009b6c:	e51b3010 	ldr	r3, [fp, #-16]
50009b70:	e3530000 	cmp	r3, #0
50009b74:	0a000000 	beq	50009b7c <_get_next_jie_qi+0xd0>
50009b78:	ea000004 	b	50009b90 <_get_next_jie_qi+0xe4>
50009b7c:	e51b3008 	ldr	r3, [fp, #-8]
50009b80:	e2832001 	add	r2, r3, #1
50009b84:	e50b2008 	str	r2, [fp, #-8]
50009b88:	e3530013 	cmp	r3, #19
50009b8c:	daffffe0 	ble	50009b14 <_get_next_jie_qi+0x68>
50009b90:	e51b3024 	ldr	r3, [fp, #-36]	; 0x24
50009b94:	e51b2008 	ldr	r2, [fp, #-8]
50009b98:	e5832000 	str	r2, [r3]
50009b9c:	e51b3010 	ldr	r3, [fp, #-16]
50009ba0:	e1a00003 	mov	r0, r3
50009ba4:	e24bd004 	sub	sp, fp, #4
50009ba8:	e8bd8800 	pop	{fp, pc}

50009bac <_fill_bei_zhu>:
50009bac:	e92d4800 	push	{fp, lr}
50009bb0:	e28db004 	add	fp, sp, #4
50009bb4:	e24dd060 	sub	sp, sp, #96	; 0x60
50009bb8:	e50b0058 	str	r0, [fp, #-88]	; 0x58
50009bbc:	e50b105c 	str	r1, [fp, #-92]	; 0x5c
50009bc0:	e50b2060 	str	r2, [fp, #-96]	; 0x60
50009bc4:	e50b3064 	str	r3, [fp, #-100]	; 0x64
50009bc8:	e51b3064 	ldr	r3, [fp, #-100]	; 0x64
50009bcc:	e3a02000 	mov	r2, #0
50009bd0:	e5c32028 	strb	r2, [r3, #40]	; 0x28
50009bd4:	e51b3064 	ldr	r3, [fp, #-100]	; 0x64
50009bd8:	e5d3301d 	ldrb	r3, [r3, #29]
50009bdc:	e3530000 	cmp	r3, #0
50009be0:	1a000024 	bne	50009c78 <_fill_bei_zhu+0xcc>
50009be4:	e51b3064 	ldr	r3, [fp, #-100]	; 0x64
50009be8:	e2833028 	add	r3, r3, #40	; 0x28
50009bec:	e1a00003 	mov	r0, r3
50009bf0:	ebffeceb 	bl	50004fa4 <strlen>
50009bf4:	e1a03000 	mov	r3, r0
50009bf8:	e263303f 	rsb	r3, r3, #63	; 0x3f
50009bfc:	e50b3008 	str	r3, [fp, #-8]
50009c00:	e24b3010 	sub	r3, fp, #16
50009c04:	e51b0058 	ldr	r0, [fp, #-88]	; 0x58
50009c08:	e51b105c 	ldr	r1, [fp, #-92]	; 0x5c
50009c0c:	e51b2060 	ldr	r2, [fp, #-96]	; 0x60
50009c10:	ebffffa5 	bl	50009aac <_get_next_jie_qi>
50009c14:	e50b000c 	str	r0, [fp, #-12]
50009c18:	e51b300c 	ldr	r3, [fp, #-12]
50009c1c:	e3530000 	cmp	r3, #0
50009c20:	0a000014 	beq	50009c78 <_fill_bei_zhu+0xcc>
50009c24:	e51b200c 	ldr	r2, [fp, #-12]
50009c28:	e1a03002 	mov	r3, r2
50009c2c:	e1a03103 	lsl	r3, r3, #2
50009c30:	e0833002 	add	r3, r3, r2
50009c34:	e30621dc 	movw	r2, #25052	; 0x61dc
50009c38:	e3452001 	movt	r2, #20481	; 0x5001
50009c3c:	e0832002 	add	r2, r3, r2
50009c40:	e51b3010 	ldr	r3, [fp, #-16]
50009c44:	e24b1050 	sub	r1, fp, #80	; 0x50
50009c48:	e1a00001 	mov	r0, r1
50009c4c:	e306125c 	movw	r1, #25180	; 0x625c
50009c50:	e3451001 	movt	r1, #20481	; 0x5001
50009c54:	ebfff23d 	bl	50006550 <sprintf>
50009c58:	e51b3064 	ldr	r3, [fp, #-100]	; 0x64
50009c5c:	e2831028 	add	r1, r3, #40	; 0x28
50009c60:	e51b3008 	ldr	r3, [fp, #-8]
50009c64:	e24b2050 	sub	r2, fp, #80	; 0x50
50009c68:	e1a00001 	mov	r0, r1
50009c6c:	e1a01002 	mov	r1, r2
50009c70:	e1a02003 	mov	r2, r3
50009c74:	ebffecf8 	bl	5000505c <strncat>
50009c78:	e24bd004 	sub	sp, fp, #4
50009c7c:	e8bd8800 	pop	{fp, pc}

50009c80 <nongli_get_date>:
50009c80:	e92d4800 	push	{fp, lr}
50009c84:	e28db004 	add	fp, sp, #4
50009c88:	e24dd038 	sub	sp, sp, #56	; 0x38
50009c8c:	e50b0030 	str	r0, [fp, #-48]	; 0x30
50009c90:	e50b1034 	str	r1, [fp, #-52]	; 0x34
50009c94:	e50b2038 	str	r2, [fp, #-56]	; 0x38
50009c98:	e50b303c 	str	r3, [fp, #-60]	; 0x3c
50009c9c:	e51b3030 	ldr	r3, [fp, #-48]	; 0x30
50009ca0:	e300276c 	movw	r2, #1900	; 0x76c
50009ca4:	e1530002 	cmp	r3, r2
50009ca8:	da00000f 	ble	50009cec <nongli_get_date+0x6c>
50009cac:	e51b3030 	ldr	r3, [fp, #-48]	; 0x30
50009cb0:	e3002833 	movw	r2, #2099	; 0x833
50009cb4:	e1530002 	cmp	r3, r2
50009cb8:	ca00000b 	bgt	50009cec <nongli_get_date+0x6c>
50009cbc:	e51b3034 	ldr	r3, [fp, #-52]	; 0x34
50009cc0:	e3530000 	cmp	r3, #0
50009cc4:	da000008 	ble	50009cec <nongli_get_date+0x6c>
50009cc8:	e51b3034 	ldr	r3, [fp, #-52]	; 0x34
50009ccc:	e353000c 	cmp	r3, #12
50009cd0:	ca000005 	bgt	50009cec <nongli_get_date+0x6c>
50009cd4:	e51b3038 	ldr	r3, [fp, #-56]	; 0x38
50009cd8:	e3530000 	cmp	r3, #0
50009cdc:	da000002 	ble	50009cec <nongli_get_date+0x6c>
50009ce0:	e51b3038 	ldr	r3, [fp, #-56]	; 0x38
50009ce4:	e353001f 	cmp	r3, #31
50009ce8:	da000001 	ble	50009cf4 <nongli_get_date+0x74>
50009cec:	e3e03000 	mvn	r3, #0
50009cf0:	ea000111 	b	5000a13c <nongli_get_date+0x4bc>
50009cf4:	e51b3030 	ldr	r3, [fp, #-48]	; 0x30
50009cf8:	e2433e76 	sub	r3, r3, #1888	; 0x760
50009cfc:	e243300d 	sub	r3, r3, #13
50009d00:	e1a02003 	mov	r2, r3
50009d04:	e1a02082 	lsl	r2, r2, #1
50009d08:	e0823003 	add	r3, r2, r3
50009d0c:	e50b3014 	str	r3, [fp, #-20]
50009d10:	e51b3014 	ldr	r3, [fp, #-20]
50009d14:	e2832002 	add	r2, r3, #2
50009d18:	e3053ea8 	movw	r3, #24232	; 0x5ea8
50009d1c:	e3453001 	movt	r3, #20481	; 0x5001
50009d20:	e7d33002 	ldrb	r3, [r3, r2]
50009d24:	e2033060 	and	r3, r3, #96	; 0x60
50009d28:	e1a032c3 	asr	r3, r3, #5
50009d2c:	e50b3018 	str	r3, [fp, #-24]
50009d30:	e51b3014 	ldr	r3, [fp, #-20]
50009d34:	e2832002 	add	r2, r3, #2
50009d38:	e3053ea8 	movw	r3, #24232	; 0x5ea8
50009d3c:	e3453001 	movt	r3, #20481	; 0x5001
50009d40:	e7d33002 	ldrb	r3, [r3, r2]
50009d44:	e203301f 	and	r3, r3, #31
50009d48:	e50b301c 	str	r3, [fp, #-28]
50009d4c:	e51b301c 	ldr	r3, [fp, #-28]
50009d50:	e2432001 	sub	r2, r3, #1
50009d54:	e51b3018 	ldr	r3, [fp, #-24]
50009d58:	e3530002 	cmp	r3, #2
50009d5c:	1a000001 	bne	50009d68 <nongli_get_date+0xe8>
50009d60:	e3a0301f 	mov	r3, #31
50009d64:	ea000000 	b	50009d6c <nongli_get_date+0xec>
50009d68:	e3a03000 	mov	r3, #0
50009d6c:	e0823003 	add	r3, r2, r3
50009d70:	e50b3020 	str	r3, [fp, #-32]
50009d74:	e51b3034 	ldr	r3, [fp, #-52]	; 0x34
50009d78:	e2432001 	sub	r2, r3, #1
50009d7c:	e3063100 	movw	r3, #24832	; 0x6100
50009d80:	e3453001 	movt	r3, #20481	; 0x5001
50009d84:	e1a02082 	lsl	r2, r2, #1
50009d88:	e0833002 	add	r3, r3, r2
50009d8c:	e1d330b0 	ldrh	r3, [r3]
50009d90:	e1a02003 	mov	r2, r3
50009d94:	e51b3038 	ldr	r3, [fp, #-56]	; 0x38
50009d98:	e0823003 	add	r3, r2, r3
50009d9c:	e2433001 	sub	r3, r3, #1
50009da0:	e50b3008 	str	r3, [fp, #-8]
50009da4:	e51b3034 	ldr	r3, [fp, #-52]	; 0x34
50009da8:	e3530002 	cmp	r3, #2
50009dac:	da000007 	ble	50009dd0 <nongli_get_date+0x150>
50009db0:	e51b0030 	ldr	r0, [fp, #-48]	; 0x30
50009db4:	ebfffdb4 	bl	5000948c <_is_leapyear>
50009db8:	e1a03000 	mov	r3, r0
50009dbc:	e3530000 	cmp	r3, #0
50009dc0:	0a000002 	beq	50009dd0 <nongli_get_date+0x150>
50009dc4:	e51b3008 	ldr	r3, [fp, #-8]
50009dc8:	e2833001 	add	r3, r3, #1
50009dcc:	e50b3008 	str	r3, [fp, #-8]
50009dd0:	e51b2008 	ldr	r2, [fp, #-8]
50009dd4:	e51b3020 	ldr	r3, [fp, #-32]
50009dd8:	e1520003 	cmp	r2, r3
50009ddc:	ba00005c 	blt	50009f54 <nongli_get_date+0x2d4>
50009de0:	e51b303c 	ldr	r3, [fp, #-60]	; 0x3c
50009de4:	e51b2030 	ldr	r2, [fp, #-48]	; 0x30
50009de8:	e5832000 	str	r2, [r3]
50009dec:	e51b303c 	ldr	r3, [fp, #-60]	; 0x3c
50009df0:	e3a02001 	mov	r2, #1
50009df4:	e5832004 	str	r2, [r3, #4]
50009df8:	e51b303c 	ldr	r3, [fp, #-60]	; 0x3c
50009dfc:	e3a02000 	mov	r2, #0
50009e00:	e5832024 	str	r2, [r3, #36]	; 0x24
50009e04:	e51b2008 	ldr	r2, [fp, #-8]
50009e08:	e51b3020 	ldr	r3, [fp, #-32]
50009e0c:	e0633002 	rsb	r3, r3, r2
50009e10:	e50b3008 	str	r3, [fp, #-8]
50009e14:	e3a03001 	mov	r3, #1
50009e18:	e50b300c 	str	r3, [fp, #-12]
50009e1c:	e51b300c 	ldr	r3, [fp, #-12]
50009e20:	e6ef2073 	uxtb	r2, r3
50009e24:	e51b3014 	ldr	r3, [fp, #-20]
50009e28:	e6ff3073 	uxth	r3, r3
50009e2c:	e1a00002 	mov	r0, r2
50009e30:	e1a01003 	mov	r1, r3
50009e34:	ebfffdc1 	bl	50009540 <_is_big_moon>
50009e38:	e1a03000 	mov	r3, r0
50009e3c:	e3530000 	cmp	r3, #0
50009e40:	0a000001 	beq	50009e4c <nongli_get_date+0x1cc>
50009e44:	e3a0301e 	mov	r3, #30
50009e48:	ea000000 	b	50009e50 <nongli_get_date+0x1d0>
50009e4c:	e3a0301d 	mov	r3, #29
50009e50:	e50b3010 	str	r3, [fp, #-16]
50009e54:	e3053ea8 	movw	r3, #24232	; 0x5ea8
50009e58:	e3453001 	movt	r3, #20481	; 0x5001
50009e5c:	e51b2014 	ldr	r2, [fp, #-20]
50009e60:	e0833002 	add	r3, r3, r2
50009e64:	e5d33000 	ldrb	r3, [r3]
50009e68:	e1a03223 	lsr	r3, r3, #4
50009e6c:	e6ef3073 	uxtb	r3, r3
50009e70:	e50b3024 	str	r3, [fp, #-36]	; 0x24
50009e74:	ea00002d 	b	50009f30 <nongli_get_date+0x2b0>
50009e78:	e51b2008 	ldr	r2, [fp, #-8]
50009e7c:	e51b3010 	ldr	r3, [fp, #-16]
50009e80:	e0633002 	rsb	r3, r3, r2
50009e84:	e50b3008 	str	r3, [fp, #-8]
50009e88:	e51b303c 	ldr	r3, [fp, #-60]	; 0x3c
50009e8c:	e5932004 	ldr	r2, [r3, #4]
50009e90:	e51b3024 	ldr	r3, [fp, #-36]	; 0x24
50009e94:	e1520003 	cmp	r2, r3
50009e98:	1a00000e 	bne	50009ed8 <nongli_get_date+0x258>
50009e9c:	e51b303c 	ldr	r3, [fp, #-60]	; 0x3c
50009ea0:	e5933024 	ldr	r3, [r3, #36]	; 0x24
50009ea4:	e2632001 	rsb	r2, r3, #1
50009ea8:	e51b303c 	ldr	r3, [fp, #-60]	; 0x3c
50009eac:	e5832024 	str	r2, [r3, #36]	; 0x24
50009eb0:	e51b303c 	ldr	r3, [fp, #-60]	; 0x3c
50009eb4:	e5933024 	ldr	r3, [r3, #36]	; 0x24
50009eb8:	e3530000 	cmp	r3, #0
50009ebc:	1a00000a 	bne	50009eec <nongli_get_date+0x26c>
50009ec0:	e51b303c 	ldr	r3, [fp, #-60]	; 0x3c
50009ec4:	e5933004 	ldr	r3, [r3, #4]
50009ec8:	e2832001 	add	r2, r3, #1
50009ecc:	e51b303c 	ldr	r3, [fp, #-60]	; 0x3c
50009ed0:	e5832004 	str	r2, [r3, #4]
50009ed4:	ea000004 	b	50009eec <nongli_get_date+0x26c>
50009ed8:	e51b303c 	ldr	r3, [fp, #-60]	; 0x3c
50009edc:	e5933004 	ldr	r3, [r3, #4]
50009ee0:	e2832001 	add	r2, r3, #1
50009ee4:	e51b303c 	ldr	r3, [fp, #-60]	; 0x3c
50009ee8:	e5832004 	str	r2, [r3, #4]
50009eec:	e51b300c 	ldr	r3, [fp, #-12]
50009ef0:	e2833001 	add	r3, r3, #1
50009ef4:	e50b300c 	str	r3, [fp, #-12]
50009ef8:	e51b300c 	ldr	r3, [fp, #-12]
50009efc:	e6ef2073 	uxtb	r2, r3
50009f00:	e51b3014 	ldr	r3, [fp, #-20]
50009f04:	e6ff3073 	uxth	r3, r3
50009f08:	e1a00002 	mov	r0, r2
50009f0c:	e1a01003 	mov	r1, r3
50009f10:	ebfffd8a 	bl	50009540 <_is_big_moon>
50009f14:	e1a03000 	mov	r3, r0
50009f18:	e3530000 	cmp	r3, #0
50009f1c:	0a000001 	beq	50009f28 <nongli_get_date+0x2a8>
50009f20:	e3a0301e 	mov	r3, #30
50009f24:	ea000000 	b	50009f2c <nongli_get_date+0x2ac>
50009f28:	e3a0301d 	mov	r3, #29
50009f2c:	e50b3010 	str	r3, [fp, #-16]
50009f30:	e51b2008 	ldr	r2, [fp, #-8]
50009f34:	e51b3010 	ldr	r3, [fp, #-16]
50009f38:	e1520003 	cmp	r2, r3
50009f3c:	aaffffcd 	bge	50009e78 <nongli_get_date+0x1f8>
50009f40:	e51b3008 	ldr	r3, [fp, #-8]
50009f44:	e2832001 	add	r2, r3, #1
50009f48:	e51b303c 	ldr	r3, [fp, #-60]	; 0x3c
50009f4c:	e5832008 	str	r2, [r3, #8]
50009f50:	ea000060 	b	5000a0d8 <nongli_get_date+0x458>
50009f54:	e51b3030 	ldr	r3, [fp, #-48]	; 0x30
50009f58:	e2432001 	sub	r2, r3, #1
50009f5c:	e51b303c 	ldr	r3, [fp, #-60]	; 0x3c
50009f60:	e5832000 	str	r2, [r3]
50009f64:	e51b303c 	ldr	r3, [fp, #-60]	; 0x3c
50009f68:	e3a0200c 	mov	r2, #12
50009f6c:	e5832004 	str	r2, [r3, #4]
50009f70:	e51b303c 	ldr	r3, [fp, #-60]	; 0x3c
50009f74:	e3a02000 	mov	r2, #0
50009f78:	e5832024 	str	r2, [r3, #36]	; 0x24
50009f7c:	e51b2020 	ldr	r2, [fp, #-32]
50009f80:	e51b3008 	ldr	r3, [fp, #-8]
50009f84:	e0633002 	rsb	r3, r3, r2
50009f88:	e50b3008 	str	r3, [fp, #-8]
50009f8c:	e51b3014 	ldr	r3, [fp, #-20]
50009f90:	e2433003 	sub	r3, r3, #3
50009f94:	e50b3014 	str	r3, [fp, #-20]
50009f98:	e3053ea8 	movw	r3, #24232	; 0x5ea8
50009f9c:	e3453001 	movt	r3, #20481	; 0x5001
50009fa0:	e51b2014 	ldr	r2, [fp, #-20]
50009fa4:	e0833002 	add	r3, r3, r2
50009fa8:	e5d33000 	ldrb	r3, [r3]
50009fac:	e1a03223 	lsr	r3, r3, #4
50009fb0:	e6ef3073 	uxtb	r3, r3
50009fb4:	e50b3024 	str	r3, [fp, #-36]	; 0x24
50009fb8:	e51b3024 	ldr	r3, [fp, #-36]	; 0x24
50009fbc:	e3530000 	cmp	r3, #0
50009fc0:	0a000001 	beq	50009fcc <nongli_get_date+0x34c>
50009fc4:	e3a0300d 	mov	r3, #13
50009fc8:	ea000000 	b	50009fd0 <nongli_get_date+0x350>
50009fcc:	e3a0300c 	mov	r3, #12
50009fd0:	e50b300c 	str	r3, [fp, #-12]
50009fd4:	e51b300c 	ldr	r3, [fp, #-12]
50009fd8:	e6ef2073 	uxtb	r2, r3
50009fdc:	e51b3014 	ldr	r3, [fp, #-20]
50009fe0:	e6ff3073 	uxth	r3, r3
50009fe4:	e1a00002 	mov	r0, r2
50009fe8:	e1a01003 	mov	r1, r3
50009fec:	ebfffd53 	bl	50009540 <_is_big_moon>
50009ff0:	e1a03000 	mov	r3, r0
50009ff4:	e3530000 	cmp	r3, #0
50009ff8:	0a000001 	beq	5000a004 <nongli_get_date+0x384>
50009ffc:	e3a0301e 	mov	r3, #30
5000a000:	ea000000 	b	5000a008 <nongli_get_date+0x388>
5000a004:	e3a0301d 	mov	r3, #29
5000a008:	e50b3010 	str	r3, [fp, #-16]
5000a00c:	ea000027 	b	5000a0b0 <nongli_get_date+0x430>
5000a010:	e51b2008 	ldr	r2, [fp, #-8]
5000a014:	e51b3010 	ldr	r3, [fp, #-16]
5000a018:	e0633002 	rsb	r3, r3, r2
5000a01c:	e50b3008 	str	r3, [fp, #-8]
5000a020:	e51b303c 	ldr	r3, [fp, #-60]	; 0x3c
5000a024:	e5933024 	ldr	r3, [r3, #36]	; 0x24
5000a028:	e3530000 	cmp	r3, #0
5000a02c:	1a000004 	bne	5000a044 <nongli_get_date+0x3c4>
5000a030:	e51b303c 	ldr	r3, [fp, #-60]	; 0x3c
5000a034:	e5933004 	ldr	r3, [r3, #4]
5000a038:	e2432001 	sub	r2, r3, #1
5000a03c:	e51b303c 	ldr	r3, [fp, #-60]	; 0x3c
5000a040:	e5832004 	str	r2, [r3, #4]
5000a044:	e51b303c 	ldr	r3, [fp, #-60]	; 0x3c
5000a048:	e5932004 	ldr	r2, [r3, #4]
5000a04c:	e51b3024 	ldr	r3, [fp, #-36]	; 0x24
5000a050:	e1520003 	cmp	r2, r3
5000a054:	1a000004 	bne	5000a06c <nongli_get_date+0x3ec>
5000a058:	e51b303c 	ldr	r3, [fp, #-60]	; 0x3c
5000a05c:	e5933024 	ldr	r3, [r3, #36]	; 0x24
5000a060:	e2632001 	rsb	r2, r3, #1
5000a064:	e51b303c 	ldr	r3, [fp, #-60]	; 0x3c
5000a068:	e5832024 	str	r2, [r3, #36]	; 0x24
5000a06c:	e51b300c 	ldr	r3, [fp, #-12]
5000a070:	e2433001 	sub	r3, r3, #1
5000a074:	e50b300c 	str	r3, [fp, #-12]
5000a078:	e51b300c 	ldr	r3, [fp, #-12]
5000a07c:	e6ef2073 	uxtb	r2, r3
5000a080:	e51b3014 	ldr	r3, [fp, #-20]
5000a084:	e6ff3073 	uxth	r3, r3
5000a088:	e1a00002 	mov	r0, r2
5000a08c:	e1a01003 	mov	r1, r3
5000a090:	ebfffd2a 	bl	50009540 <_is_big_moon>
5000a094:	e1a03000 	mov	r3, r0
5000a098:	e3530000 	cmp	r3, #0
5000a09c:	0a000001 	beq	5000a0a8 <nongli_get_date+0x428>
5000a0a0:	e3a0301e 	mov	r3, #30
5000a0a4:	ea000000 	b	5000a0ac <nongli_get_date+0x42c>
5000a0a8:	e3a0301d 	mov	r3, #29
5000a0ac:	e50b3010 	str	r3, [fp, #-16]
5000a0b0:	e51b2008 	ldr	r2, [fp, #-8]
5000a0b4:	e51b3010 	ldr	r3, [fp, #-16]
5000a0b8:	e1520003 	cmp	r2, r3
5000a0bc:	caffffd3 	bgt	5000a010 <nongli_get_date+0x390>
5000a0c0:	e51b2010 	ldr	r2, [fp, #-16]
5000a0c4:	e51b3008 	ldr	r3, [fp, #-8]
5000a0c8:	e0633002 	rsb	r3, r3, r2
5000a0cc:	e2832001 	add	r2, r3, #1
5000a0d0:	e51b303c 	ldr	r3, [fp, #-60]	; 0x3c
5000a0d4:	e5832008 	str	r2, [r3, #8]
5000a0d8:	e51b003c 	ldr	r0, [fp, #-60]	; 0x3c
5000a0dc:	ebfffd5b 	bl	50009650 <_fill_nongli_str>
5000a0e0:	e51b0030 	ldr	r0, [fp, #-48]	; 0x30
5000a0e4:	e51b1034 	ldr	r1, [fp, #-52]	; 0x34
5000a0e8:	e51b2038 	ldr	r2, [fp, #-56]	; 0x38
5000a0ec:	ebfffe08 	bl	50009914 <_get_jie_qi>
5000a0f0:	e50b0028 	str	r0, [fp, #-40]	; 0x28
5000a0f4:	e51b303c 	ldr	r3, [fp, #-60]	; 0x3c
5000a0f8:	e283101d 	add	r1, r3, #29
5000a0fc:	e51b2028 	ldr	r2, [fp, #-40]	; 0x28
5000a100:	e1a03002 	mov	r3, r2
5000a104:	e1a03103 	lsl	r3, r3, #2
5000a108:	e0833002 	add	r3, r3, r2
5000a10c:	e30621dc 	movw	r2, #25052	; 0x61dc
5000a110:	e3452001 	movt	r2, #20481	; 0x5001
5000a114:	e0833002 	add	r3, r3, r2
5000a118:	e1a00001 	mov	r0, r1
5000a11c:	e1a01003 	mov	r1, r3
5000a120:	ebffeaa9 	bl	50004bcc <strcpy>
5000a124:	e51b0030 	ldr	r0, [fp, #-48]	; 0x30
5000a128:	e51b1034 	ldr	r1, [fp, #-52]	; 0x34
5000a12c:	e51b2038 	ldr	r2, [fp, #-56]	; 0x38
5000a130:	e51b303c 	ldr	r3, [fp, #-60]	; 0x3c
5000a134:	ebfffe9c 	bl	50009bac <_fill_bei_zhu>
5000a138:	e3a03000 	mov	r3, #0
5000a13c:	e1a00003 	mov	r0, r3
5000a140:	e24bd004 	sub	sp, fp, #4
5000a144:	e8bd8800 	pop	{fp, pc}

5000a148 <isLeapyear>:
5000a148:	e52db004 	push	{fp}		; (str fp, [sp, #-4]!)
5000a14c:	e28db000 	add	fp, sp, #0
5000a150:	e24dd00c 	sub	sp, sp, #12
5000a154:	e50b0008 	str	r0, [fp, #-8]
5000a158:	e51b2008 	ldr	r2, [fp, #-8]
5000a15c:	e308351f 	movw	r3, #34079	; 0x851f
5000a160:	e34531eb 	movt	r3, #20971	; 0x51eb
5000a164:	e0c10392 	smull	r0, r1, r2, r3
5000a168:	e1a013c1 	asr	r1, r1, #7
5000a16c:	e1a03fc2 	asr	r3, r2, #31
5000a170:	e0633001 	rsb	r3, r3, r1
5000a174:	e1a03203 	lsl	r3, r3, #4
5000a178:	e1a01103 	lsl	r1, r3, #2
5000a17c:	e0833001 	add	r3, r3, r1
5000a180:	e1a01103 	lsl	r1, r3, #2
5000a184:	e0833001 	add	r3, r3, r1
5000a188:	e0633002 	rsb	r3, r3, r2
5000a18c:	e3530000 	cmp	r3, #0
5000a190:	0a000012 	beq	5000a1e0 <isLeapyear+0x98>
5000a194:	e51b3008 	ldr	r3, [fp, #-8]
5000a198:	e2033003 	and	r3, r3, #3
5000a19c:	e3530000 	cmp	r3, #0
5000a1a0:	1a000010 	bne	5000a1e8 <isLeapyear+0xa0>
5000a1a4:	e51b2008 	ldr	r2, [fp, #-8]
5000a1a8:	e308351f 	movw	r3, #34079	; 0x851f
5000a1ac:	e34531eb 	movt	r3, #20971	; 0x51eb
5000a1b0:	e0c10392 	smull	r0, r1, r2, r3
5000a1b4:	e1a012c1 	asr	r1, r1, #5
5000a1b8:	e1a03fc2 	asr	r3, r2, #31
5000a1bc:	e0633001 	rsb	r3, r3, r1
5000a1c0:	e1a03103 	lsl	r3, r3, #2
5000a1c4:	e1a01103 	lsl	r1, r3, #2
5000a1c8:	e0833001 	add	r3, r3, r1
5000a1cc:	e1a01103 	lsl	r1, r3, #2
5000a1d0:	e0833001 	add	r3, r3, r1
5000a1d4:	e0633002 	rsb	r3, r3, r2
5000a1d8:	e3530000 	cmp	r3, #0
5000a1dc:	0a000001 	beq	5000a1e8 <isLeapyear+0xa0>
5000a1e0:	e3a03001 	mov	r3, #1
5000a1e4:	ea000000 	b	5000a1ec <isLeapyear+0xa4>
5000a1e8:	e3a03000 	mov	r3, #0
5000a1ec:	e1a00003 	mov	r0, r3
5000a1f0:	e24bd000 	sub	sp, fp, #0
5000a1f4:	e49db004 	pop	{fp}		; (ldr fp, [sp], #4)
5000a1f8:	e12fff1e 	bx	lr

5000a1fc <monthDays>:
5000a1fc:	e92d4800 	push	{fp, lr}
5000a200:	e28db004 	add	fp, sp, #4
5000a204:	e24dd008 	sub	sp, sp, #8
5000a208:	e50b0008 	str	r0, [fp, #-8]
5000a20c:	e50b100c 	str	r1, [fp, #-12]
5000a210:	e51b300c 	ldr	r3, [fp, #-12]
5000a214:	e2433001 	sub	r3, r3, #1
5000a218:	e353000b 	cmp	r3, #11
5000a21c:	979ff103 	ldrls	pc, [pc, r3, lsl #2]
5000a220:	ea000018 	b	5000a288 <monthDays+0x8c>
5000a224:	5000a254 	.word	0x5000a254
5000a228:	5000a264 	.word	0x5000a264
5000a22c:	5000a254 	.word	0x5000a254
5000a230:	5000a25c 	.word	0x5000a25c
5000a234:	5000a254 	.word	0x5000a254
5000a238:	5000a25c 	.word	0x5000a25c
5000a23c:	5000a254 	.word	0x5000a254
5000a240:	5000a254 	.word	0x5000a254
5000a244:	5000a25c 	.word	0x5000a25c
5000a248:	5000a254 	.word	0x5000a254
5000a24c:	5000a25c 	.word	0x5000a25c
5000a250:	5000a254 	.word	0x5000a254
5000a254:	e3a0301f 	mov	r3, #31
5000a258:	ea00000b 	b	5000a28c <monthDays+0x90>
5000a25c:	e3a0301e 	mov	r3, #30
5000a260:	ea000009 	b	5000a28c <monthDays+0x90>
5000a264:	e51b0008 	ldr	r0, [fp, #-8]
5000a268:	ebffffb6 	bl	5000a148 <isLeapyear>
5000a26c:	e1a03000 	mov	r3, r0
5000a270:	e3530000 	cmp	r3, #0
5000a274:	0a000001 	beq	5000a280 <monthDays+0x84>
5000a278:	e3a0301d 	mov	r3, #29
5000a27c:	ea000002 	b	5000a28c <monthDays+0x90>
5000a280:	e3a0301c 	mov	r3, #28
5000a284:	ea000000 	b	5000a28c <monthDays+0x90>
5000a288:	e3a03000 	mov	r3, #0
5000a28c:	e1a00003 	mov	r0, r3
5000a290:	e24bd004 	sub	sp, fp, #4
5000a294:	e8bd8800 	pop	{fp, pc}

5000a298 <C_date>:
5000a298:	e92d4800 	push	{fp, lr}
5000a29c:	e28db004 	add	fp, sp, #4
5000a2a0:	e24dd0f0 	sub	sp, sp, #240	; 0xf0
5000a2a4:	e50b00c0 	str	r0, [fp, #-192]	; 0xc0
5000a2a8:	e50b10c4 	str	r1, [fp, #-196]	; 0xc4
5000a2ac:	e24b30e4 	sub	r3, fp, #228	; 0xe4
5000a2b0:	e1a00003 	mov	r0, r3
5000a2b4:	eb0003a1 	bl	5000b140 <timeGet>
5000a2b8:	e24bc09c 	sub	ip, fp, #156	; 0x9c
5000a2bc:	e24be0e4 	sub	lr, fp, #228	; 0xe4
5000a2c0:	e8be000f 	ldm	lr!, {r0, r1, r2, r3}
5000a2c4:	e8ac000f 	stmia	ip!, {r0, r1, r2, r3}
5000a2c8:	e89e000f 	ldm	lr, {r0, r1, r2, r3}
5000a2cc:	e88c000f 	stm	ip, {r0, r1, r2, r3}
5000a2d0:	e51b30c0 	ldr	r3, [fp, #-192]	; 0xc0
5000a2d4:	e3530001 	cmp	r3, #1
5000a2d8:	da00000d 	ble	5000a314 <C_date+0x7c>
5000a2dc:	e51b30c4 	ldr	r3, [fp, #-196]	; 0xc4
5000a2e0:	e2833004 	add	r3, r3, #4
5000a2e4:	e5932000 	ldr	r2, [r3]
5000a2e8:	e24b3014 	sub	r3, fp, #20
5000a2ec:	e1a00002 	mov	r0, r2
5000a2f0:	e30612cc 	movw	r1, #25292	; 0x62cc
5000a2f4:	e3451001 	movt	r1, #20481	; 0x5001
5000a2f8:	e1a02003 	mov	r2, r3
5000a2fc:	ebfff020 	bl	50006384 <sscanf>
5000a300:	e51b3014 	ldr	r3, [fp, #-20]
5000a304:	e3530000 	cmp	r3, #0
5000a308:	0a000001 	beq	5000a314 <C_date+0x7c>
5000a30c:	e51b3014 	ldr	r3, [fp, #-20]
5000a310:	e50b309c 	str	r3, [fp, #-156]	; 0x9c
5000a314:	e51b30c0 	ldr	r3, [fp, #-192]	; 0xc0
5000a318:	e3530002 	cmp	r3, #2
5000a31c:	da00000d 	ble	5000a358 <C_date+0xc0>
5000a320:	e51b30c4 	ldr	r3, [fp, #-196]	; 0xc4
5000a324:	e2833008 	add	r3, r3, #8
5000a328:	e5932000 	ldr	r2, [r3]
5000a32c:	e24b3014 	sub	r3, fp, #20
5000a330:	e1a00002 	mov	r0, r2
5000a334:	e30612cc 	movw	r1, #25292	; 0x62cc
5000a338:	e3451001 	movt	r1, #20481	; 0x5001
5000a33c:	e1a02003 	mov	r2, r3
5000a340:	ebfff00f 	bl	50006384 <sscanf>
5000a344:	e51b3014 	ldr	r3, [fp, #-20]
5000a348:	e3530000 	cmp	r3, #0
5000a34c:	0a000001 	beq	5000a358 <C_date+0xc0>
5000a350:	e51b3014 	ldr	r3, [fp, #-20]
5000a354:	e50b3098 	str	r3, [fp, #-152]	; 0x98
5000a358:	e51b30c0 	ldr	r3, [fp, #-192]	; 0xc0
5000a35c:	e3530003 	cmp	r3, #3
5000a360:	da00000d 	ble	5000a39c <C_date+0x104>
5000a364:	e51b30c4 	ldr	r3, [fp, #-196]	; 0xc4
5000a368:	e283300c 	add	r3, r3, #12
5000a36c:	e5932000 	ldr	r2, [r3]
5000a370:	e24b3014 	sub	r3, fp, #20
5000a374:	e1a00002 	mov	r0, r2
5000a378:	e30612cc 	movw	r1, #25292	; 0x62cc
5000a37c:	e3451001 	movt	r1, #20481	; 0x5001
5000a380:	e1a02003 	mov	r2, r3
5000a384:	ebffeffe 	bl	50006384 <sscanf>
5000a388:	e51b3014 	ldr	r3, [fp, #-20]
5000a38c:	e3530000 	cmp	r3, #0
5000a390:	0a000001 	beq	5000a39c <C_date+0x104>
5000a394:	e51b3014 	ldr	r3, [fp, #-20]
5000a398:	e50b3094 	str	r3, [fp, #-148]	; 0x94
5000a39c:	e51b30c0 	ldr	r3, [fp, #-192]	; 0xc0
5000a3a0:	e3530004 	cmp	r3, #4
5000a3a4:	da000009 	ble	5000a3d0 <C_date+0x138>
5000a3a8:	e51b30c4 	ldr	r3, [fp, #-196]	; 0xc4
5000a3ac:	e2833010 	add	r3, r3, #16
5000a3b0:	e5932000 	ldr	r2, [r3]
5000a3b4:	e24b309c 	sub	r3, fp, #156	; 0x9c
5000a3b8:	e283300c 	add	r3, r3, #12
5000a3bc:	e1a00002 	mov	r0, r2
5000a3c0:	e30612cc 	movw	r1, #25292	; 0x62cc
5000a3c4:	e3451001 	movt	r1, #20481	; 0x5001
5000a3c8:	e1a02003 	mov	r2, r3
5000a3cc:	ebffefec 	bl	50006384 <sscanf>
5000a3d0:	e51b30c0 	ldr	r3, [fp, #-192]	; 0xc0
5000a3d4:	e3530005 	cmp	r3, #5
5000a3d8:	da000009 	ble	5000a404 <C_date+0x16c>
5000a3dc:	e51b30c4 	ldr	r3, [fp, #-196]	; 0xc4
5000a3e0:	e2833014 	add	r3, r3, #20
5000a3e4:	e5932000 	ldr	r2, [r3]
5000a3e8:	e24b309c 	sub	r3, fp, #156	; 0x9c
5000a3ec:	e2833010 	add	r3, r3, #16
5000a3f0:	e1a00002 	mov	r0, r2
5000a3f4:	e30612cc 	movw	r1, #25292	; 0x62cc
5000a3f8:	e3451001 	movt	r1, #20481	; 0x5001
5000a3fc:	e1a02003 	mov	r2, r3
5000a400:	ebffefdf 	bl	50006384 <sscanf>
5000a404:	e51b30c0 	ldr	r3, [fp, #-192]	; 0xc0
5000a408:	e3530006 	cmp	r3, #6
5000a40c:	da000009 	ble	5000a438 <C_date+0x1a0>
5000a410:	e51b30c4 	ldr	r3, [fp, #-196]	; 0xc4
5000a414:	e2833018 	add	r3, r3, #24
5000a418:	e5932000 	ldr	r2, [r3]
5000a41c:	e24b309c 	sub	r3, fp, #156	; 0x9c
5000a420:	e2833014 	add	r3, r3, #20
5000a424:	e1a00002 	mov	r0, r2
5000a428:	e30612cc 	movw	r1, #25292	; 0x62cc
5000a42c:	e3451001 	movt	r1, #20481	; 0x5001
5000a430:	e1a02003 	mov	r2, r3
5000a434:	ebffefd2 	bl	50006384 <sscanf>
5000a438:	e51b30c0 	ldr	r3, [fp, #-192]	; 0xc0
5000a43c:	e3530001 	cmp	r3, #1
5000a440:	da000006 	ble	5000a460 <C_date+0x1c8>
5000a444:	e1a0c00d 	mov	ip, sp
5000a448:	e24b308c 	sub	r3, fp, #140	; 0x8c
5000a44c:	e893000f 	ldm	r3, {r0, r1, r2, r3}
5000a450:	e88c000f 	stm	ip, {r0, r1, r2, r3}
5000a454:	e24b309c 	sub	r3, fp, #156	; 0x9c
5000a458:	e893000f 	ldm	r3, {r0, r1, r2, r3}
5000a45c:	eb000300 	bl	5000b064 <timeSet>
5000a460:	e24b30bc 	sub	r3, fp, #188	; 0xbc
5000a464:	e1a00003 	mov	r0, r3
5000a468:	eb000334 	bl	5000b140 <timeGet>
5000a46c:	e51b30b4 	ldr	r3, [fp, #-180]	; 0xb4
5000a470:	e2433001 	sub	r3, r3, #1
5000a474:	e3022493 	movw	r2, #9363	; 0x2493
5000a478:	e3492249 	movt	r2, #37449	; 0x9249
5000a47c:	e0c10293 	smull	r0, r1, r3, r2
5000a480:	e0832001 	add	r2, r3, r1
5000a484:	e1a01142 	asr	r1, r2, #2
5000a488:	e1a02fc3 	asr	r2, r3, #31
5000a48c:	e0621001 	rsb	r1, r2, r1
5000a490:	e1a02001 	mov	r2, r1
5000a494:	e1a02182 	lsl	r2, r2, #3
5000a498:	e0612002 	rsb	r2, r1, r2
5000a49c:	e0621003 	rsb	r1, r2, r3
5000a4a0:	e2612007 	rsb	r2, r1, #7
5000a4a4:	e51b30a4 	ldr	r3, [fp, #-164]	; 0xa4
5000a4a8:	e0823003 	add	r3, r2, r3
5000a4ac:	e3022493 	movw	r2, #9363	; 0x2493
5000a4b0:	e3492249 	movt	r2, #37449	; 0x9249
5000a4b4:	e0c10293 	smull	r0, r1, r3, r2
5000a4b8:	e0832001 	add	r2, r3, r1
5000a4bc:	e1a01142 	asr	r1, r2, #2
5000a4c0:	e1a02fc3 	asr	r2, r3, #31
5000a4c4:	e0621001 	rsb	r1, r2, r1
5000a4c8:	e1a02001 	mov	r2, r1
5000a4cc:	e1a02182 	lsl	r2, r2, #3
5000a4d0:	e0612002 	rsb	r2, r1, r2
5000a4d4:	e0623003 	rsb	r3, r2, r3
5000a4d8:	e50b3008 	str	r3, [fp, #-8]
5000a4dc:	e51b20bc 	ldr	r2, [fp, #-188]	; 0xbc
5000a4e0:	e51b30b8 	ldr	r3, [fp, #-184]	; 0xb8
5000a4e4:	e1a00002 	mov	r0, r2
5000a4e8:	e1a01003 	mov	r1, r3
5000a4ec:	ebffff42 	bl	5000a1fc <monthDays>
5000a4f0:	e50b0010 	str	r0, [fp, #-16]
5000a4f4:	e30602d0 	movw	r0, #25296	; 0x62d0
5000a4f8:	e3450001 	movt	r0, #20481	; 0x5001
5000a4fc:	ebffe86c 	bl	500046b4 <serial_printf>
5000a500:	e51b10bc 	ldr	r1, [fp, #-188]	; 0xbc
5000a504:	e51be0b8 	ldr	lr, [fp, #-184]	; 0xb8
5000a508:	e51bc0b4 	ldr	ip, [fp, #-180]	; 0xb4
5000a50c:	e51b20a4 	ldr	r2, [fp, #-164]	; 0xa4
5000a510:	e30734ac 	movw	r3, #29868	; 0x74ac
5000a514:	e3453001 	movt	r3, #20481	; 0x5001
5000a518:	e7933102 	ldr	r3, [r3, r2, lsl #2]
5000a51c:	e58d3000 	str	r3, [sp]
5000a520:	e30602d8 	movw	r0, #25304	; 0x62d8
5000a524:	e3450001 	movt	r0, #20481	; 0x5001
5000a528:	e1a0200e 	mov	r2, lr
5000a52c:	e1a0300c 	mov	r3, ip
5000a530:	ebffe85f 	bl	500046b4 <serial_printf>
5000a534:	e30602fc 	movw	r0, #25340	; 0x62fc
5000a538:	e3450001 	movt	r0, #20481	; 0x5001
5000a53c:	ebffe85c 	bl	500046b4 <serial_printf>
5000a540:	e3060304 	movw	r0, #25348	; 0x6304
5000a544:	e3450001 	movt	r0, #20481	; 0x5001
5000a548:	ebffe859 	bl	500046b4 <serial_printf>
5000a54c:	e3a03000 	mov	r3, #0
5000a550:	e50b300c 	str	r3, [fp, #-12]
5000a554:	ea00000a 	b	5000a584 <C_date+0x2ec>
5000a558:	e30734c8 	movw	r3, #29896	; 0x74c8
5000a55c:	e3453001 	movt	r3, #20481	; 0x5001
5000a560:	e51b200c 	ldr	r2, [fp, #-12]
5000a564:	e7933102 	ldr	r3, [r3, r2, lsl #2]
5000a568:	e3060324 	movw	r0, #25380	; 0x6324
5000a56c:	e3450001 	movt	r0, #20481	; 0x5001
5000a570:	e1a01003 	mov	r1, r3
5000a574:	ebffe84e 	bl	500046b4 <serial_printf>
5000a578:	e51b300c 	ldr	r3, [fp, #-12]
5000a57c:	e2833001 	add	r3, r3, #1
5000a580:	e50b300c 	str	r3, [fp, #-12]
5000a584:	e51b300c 	ldr	r3, [fp, #-12]
5000a588:	e3530006 	cmp	r3, #6
5000a58c:	dafffff1 	ble	5000a558 <C_date+0x2c0>
5000a590:	e3060328 	movw	r0, #25384	; 0x6328
5000a594:	e3450001 	movt	r0, #20481	; 0x5001
5000a598:	ebffe845 	bl	500046b4 <serial_printf>
5000a59c:	e3060304 	movw	r0, #25348	; 0x6304
5000a5a0:	e3450001 	movt	r0, #20481	; 0x5001
5000a5a4:	ebffe842 	bl	500046b4 <serial_printf>
5000a5a8:	e3a03000 	mov	r3, #0
5000a5ac:	e50b300c 	str	r3, [fp, #-12]
5000a5b0:	ea000005 	b	5000a5cc <C_date+0x334>
5000a5b4:	e306032c 	movw	r0, #25388	; 0x632c
5000a5b8:	e3450001 	movt	r0, #20481	; 0x5001
5000a5bc:	ebffe83c 	bl	500046b4 <serial_printf>
5000a5c0:	e51b300c 	ldr	r3, [fp, #-12]
5000a5c4:	e2833001 	add	r3, r3, #1
5000a5c8:	e50b300c 	str	r3, [fp, #-12]
5000a5cc:	e51b200c 	ldr	r2, [fp, #-12]
5000a5d0:	e51b3008 	ldr	r3, [fp, #-8]
5000a5d4:	e1520003 	cmp	r2, r3
5000a5d8:	bafffff5 	blt	5000a5b4 <C_date+0x31c>
5000a5dc:	e3a03001 	mov	r3, #1
5000a5e0:	e50b300c 	str	r3, [fp, #-12]
5000a5e4:	ea00003c 	b	5000a6dc <C_date+0x444>
5000a5e8:	e51b3008 	ldr	r3, [fp, #-8]
5000a5ec:	e3530006 	cmp	r3, #6
5000a5f0:	0a000002 	beq	5000a600 <C_date+0x368>
5000a5f4:	e51b3008 	ldr	r3, [fp, #-8]
5000a5f8:	e3530000 	cmp	r3, #0
5000a5fc:	1a000003 	bne	5000a610 <C_date+0x378>
5000a600:	e3060334 	movw	r0, #25396	; 0x6334
5000a604:	e3450001 	movt	r0, #20481	; 0x5001
5000a608:	ebffe829 	bl	500046b4 <serial_printf>
5000a60c:	ea000002 	b	5000a61c <C_date+0x384>
5000a610:	e306033c 	movw	r0, #25404	; 0x633c
5000a614:	e3450001 	movt	r0, #20481	; 0x5001
5000a618:	ebffe825 	bl	500046b4 <serial_printf>
5000a61c:	e51b20b4 	ldr	r2, [fp, #-180]	; 0xb4
5000a620:	e51b300c 	ldr	r3, [fp, #-12]
5000a624:	e1520003 	cmp	r2, r3
5000a628:	1a000010 	bne	5000a670 <C_date+0x3d8>
5000a62c:	e3060344 	movw	r0, #25412	; 0x6344
5000a630:	e3450001 	movt	r0, #20481	; 0x5001
5000a634:	ebffe81e 	bl	500046b4 <serial_printf>
5000a638:	e3060348 	movw	r0, #25416	; 0x6348
5000a63c:	e3450001 	movt	r0, #20481	; 0x5001
5000a640:	ebffe81b 	bl	500046b4 <serial_printf>
5000a644:	e3060350 	movw	r0, #25424	; 0x6350
5000a648:	e3450001 	movt	r0, #20481	; 0x5001
5000a64c:	ebffe818 	bl	500046b4 <serial_printf>
5000a650:	e3060358 	movw	r0, #25432	; 0x6358
5000a654:	e3450001 	movt	r0, #20481	; 0x5001
5000a658:	e51b100c 	ldr	r1, [fp, #-12]
5000a65c:	ebffe814 	bl	500046b4 <serial_printf>
5000a660:	e306035c 	movw	r0, #25436	; 0x635c
5000a664:	e3450001 	movt	r0, #20481	; 0x5001
5000a668:	ebffe811 	bl	500046b4 <serial_printf>
5000a66c:	ea000003 	b	5000a680 <C_date+0x3e8>
5000a670:	e3060364 	movw	r0, #25444	; 0x6364
5000a674:	e3450001 	movt	r0, #20481	; 0x5001
5000a678:	e51b100c 	ldr	r1, [fp, #-12]
5000a67c:	ebffe80c 	bl	500046b4 <serial_printf>
5000a680:	e51b3008 	ldr	r3, [fp, #-8]
5000a684:	e2833001 	add	r3, r3, #1
5000a688:	e3022493 	movw	r2, #9363	; 0x2493
5000a68c:	e3492249 	movt	r2, #37449	; 0x9249
5000a690:	e0c10293 	smull	r0, r1, r3, r2
5000a694:	e0832001 	add	r2, r3, r1
5000a698:	e1a01142 	asr	r1, r2, #2
5000a69c:	e1a02fc3 	asr	r2, r3, #31
5000a6a0:	e0621001 	rsb	r1, r2, r1
5000a6a4:	e1a02001 	mov	r2, r1
5000a6a8:	e1a02182 	lsl	r2, r2, #3
5000a6ac:	e0612002 	rsb	r2, r1, r2
5000a6b0:	e0623003 	rsb	r3, r2, r3
5000a6b4:	e50b3008 	str	r3, [fp, #-8]
5000a6b8:	e51b3008 	ldr	r3, [fp, #-8]
5000a6bc:	e3530000 	cmp	r3, #0
5000a6c0:	1a000002 	bne	5000a6d0 <C_date+0x438>
5000a6c4:	e3060328 	movw	r0, #25384	; 0x6328
5000a6c8:	e3450001 	movt	r0, #20481	; 0x5001
5000a6cc:	ebffe7f8 	bl	500046b4 <serial_printf>
5000a6d0:	e51b300c 	ldr	r3, [fp, #-12]
5000a6d4:	e2833001 	add	r3, r3, #1
5000a6d8:	e50b300c 	str	r3, [fp, #-12]
5000a6dc:	e51b200c 	ldr	r2, [fp, #-12]
5000a6e0:	e51b3010 	ldr	r3, [fp, #-16]
5000a6e4:	e1520003 	cmp	r2, r3
5000a6e8:	daffffbe 	ble	5000a5e8 <C_date+0x350>
5000a6ec:	e51b3008 	ldr	r3, [fp, #-8]
5000a6f0:	e3530000 	cmp	r3, #0
5000a6f4:	0a000002 	beq	5000a704 <C_date+0x46c>
5000a6f8:	e3060328 	movw	r0, #25384	; 0x6328
5000a6fc:	e3450001 	movt	r0, #20481	; 0x5001
5000a700:	ebffe7eb 	bl	500046b4 <serial_printf>
5000a704:	e30602fc 	movw	r0, #25340	; 0x62fc
5000a708:	e3450001 	movt	r0, #20481	; 0x5001
5000a70c:	ebffe7e8 	bl	500046b4 <serial_printf>
5000a710:	e3060304 	movw	r0, #25348	; 0x6304
5000a714:	e3450001 	movt	r0, #20481	; 0x5001
5000a718:	ebffe7e5 	bl	500046b4 <serial_printf>
5000a71c:	e30602d0 	movw	r0, #25296	; 0x62d0
5000a720:	e3450001 	movt	r0, #20481	; 0x5001
5000a724:	ebffe7e2 	bl	500046b4 <serial_printf>
5000a728:	e51b10b0 	ldr	r1, [fp, #-176]	; 0xb0
5000a72c:	e51b20ac 	ldr	r2, [fp, #-172]	; 0xac
5000a730:	e51b30a8 	ldr	r3, [fp, #-168]	; 0xa8
5000a734:	e3060368 	movw	r0, #25448	; 0x6368
5000a738:	e3450001 	movt	r0, #20481	; 0x5001
5000a73c:	ebffe7dc 	bl	500046b4 <serial_printf>
5000a740:	e51b00bc 	ldr	r0, [fp, #-188]	; 0xbc
5000a744:	e51b10b8 	ldr	r1, [fp, #-184]	; 0xb8
5000a748:	e51b20b4 	ldr	r2, [fp, #-180]	; 0xb4
5000a74c:	e24b307c 	sub	r3, fp, #124	; 0x7c
5000a750:	ebfffd4a 	bl	50009c80 <nongli_get_date>
5000a754:	e3060380 	movw	r0, #25472	; 0x6380
5000a758:	e3450001 	movt	r0, #20481	; 0x5001
5000a75c:	ebffe7d4 	bl	500046b4 <serial_printf>
5000a760:	e24b307c 	sub	r3, fp, #124	; 0x7c
5000a764:	e2831015 	add	r1, r3, #21
5000a768:	e24b307c 	sub	r3, fp, #124	; 0x7c
5000a76c:	e283200c 	add	r2, r3, #12
5000a770:	e24b307c 	sub	r3, fp, #124	; 0x7c
5000a774:	e283301a 	add	r3, r3, #26
5000a778:	e306038c 	movw	r0, #25484	; 0x638c
5000a77c:	e3450001 	movt	r0, #20481	; 0x5001
5000a780:	ebffe7cb 	bl	500046b4 <serial_printf>
5000a784:	e24b307c 	sub	r3, fp, #124	; 0x7c
5000a788:	e283201d 	add	r2, r3, #29
5000a78c:	e24b307c 	sub	r3, fp, #124	; 0x7c
5000a790:	e2833028 	add	r3, r3, #40	; 0x28
5000a794:	e306039c 	movw	r0, #25500	; 0x639c
5000a798:	e3450001 	movt	r0, #20481	; 0x5001
5000a79c:	e1a01002 	mov	r1, r2
5000a7a0:	e1a02003 	mov	r2, r3
5000a7a4:	ebffe7c2 	bl	500046b4 <serial_printf>
5000a7a8:	e306033c 	movw	r0, #25404	; 0x633c
5000a7ac:	e3450001 	movt	r0, #20481	; 0x5001
5000a7b0:	ebffe7bf 	bl	500046b4 <serial_printf>
5000a7b4:	e306035c 	movw	r0, #25436	; 0x635c
5000a7b8:	e3450001 	movt	r0, #20481	; 0x5001
5000a7bc:	ebffe7bc 	bl	500046b4 <serial_printf>
5000a7c0:	e3a03000 	mov	r3, #0
5000a7c4:	e1a00003 	mov	r0, r3
5000a7c8:	e24bd004 	sub	sp, fp, #4
5000a7cc:	e8bd8800 	pop	{fp, pc}

5000a7d0 <isLeapyear>:
5000a7d0:	e52db004 	push	{fp}		; (str fp, [sp, #-4]!)
5000a7d4:	e28db000 	add	fp, sp, #0
5000a7d8:	e24dd00c 	sub	sp, sp, #12
5000a7dc:	e50b0008 	str	r0, [fp, #-8]
5000a7e0:	e51b2008 	ldr	r2, [fp, #-8]
5000a7e4:	e308351f 	movw	r3, #34079	; 0x851f
5000a7e8:	e34531eb 	movt	r3, #20971	; 0x51eb
5000a7ec:	e0c10392 	smull	r0, r1, r2, r3
5000a7f0:	e1a013c1 	asr	r1, r1, #7
5000a7f4:	e1a03fc2 	asr	r3, r2, #31
5000a7f8:	e0633001 	rsb	r3, r3, r1
5000a7fc:	e1a03203 	lsl	r3, r3, #4
5000a800:	e1a01103 	lsl	r1, r3, #2
5000a804:	e0833001 	add	r3, r3, r1
5000a808:	e1a01103 	lsl	r1, r3, #2
5000a80c:	e0833001 	add	r3, r3, r1
5000a810:	e0633002 	rsb	r3, r3, r2
5000a814:	e3530000 	cmp	r3, #0
5000a818:	0a000012 	beq	5000a868 <isLeapyear+0x98>
5000a81c:	e51b3008 	ldr	r3, [fp, #-8]
5000a820:	e2033003 	and	r3, r3, #3
5000a824:	e3530000 	cmp	r3, #0
5000a828:	1a000010 	bne	5000a870 <isLeapyear+0xa0>
5000a82c:	e51b2008 	ldr	r2, [fp, #-8]
5000a830:	e308351f 	movw	r3, #34079	; 0x851f
5000a834:	e34531eb 	movt	r3, #20971	; 0x51eb
5000a838:	e0c10392 	smull	r0, r1, r2, r3
5000a83c:	e1a012c1 	asr	r1, r1, #5
5000a840:	e1a03fc2 	asr	r3, r2, #31
5000a844:	e0633001 	rsb	r3, r3, r1
5000a848:	e1a03103 	lsl	r3, r3, #2
5000a84c:	e1a01103 	lsl	r1, r3, #2
5000a850:	e0833001 	add	r3, r3, r1
5000a854:	e1a01103 	lsl	r1, r3, #2
5000a858:	e0833001 	add	r3, r3, r1
5000a85c:	e0633002 	rsb	r3, r3, r2
5000a860:	e3530000 	cmp	r3, #0
5000a864:	0a000001 	beq	5000a870 <isLeapyear+0xa0>
5000a868:	e3a03001 	mov	r3, #1
5000a86c:	ea000000 	b	5000a874 <isLeapyear+0xa4>
5000a870:	e3a03000 	mov	r3, #0
5000a874:	e1a00003 	mov	r0, r3
5000a878:	e24bd000 	sub	sp, fp, #0
5000a87c:	e49db004 	pop	{fp}		; (ldr fp, [sp], #4)
5000a880:	e12fff1e 	bx	lr

5000a884 <monthDays>:
5000a884:	e92d4800 	push	{fp, lr}
5000a888:	e28db004 	add	fp, sp, #4
5000a88c:	e24dd008 	sub	sp, sp, #8
5000a890:	e50b0008 	str	r0, [fp, #-8]
5000a894:	e50b100c 	str	r1, [fp, #-12]
5000a898:	e51b300c 	ldr	r3, [fp, #-12]
5000a89c:	e2433001 	sub	r3, r3, #1
5000a8a0:	e353000b 	cmp	r3, #11
5000a8a4:	979ff103 	ldrls	pc, [pc, r3, lsl #2]
5000a8a8:	ea000018 	b	5000a910 <monthDays+0x8c>
5000a8ac:	5000a8dc 	.word	0x5000a8dc
5000a8b0:	5000a8ec 	.word	0x5000a8ec
5000a8b4:	5000a8dc 	.word	0x5000a8dc
5000a8b8:	5000a8e4 	.word	0x5000a8e4
5000a8bc:	5000a8dc 	.word	0x5000a8dc
5000a8c0:	5000a8e4 	.word	0x5000a8e4
5000a8c4:	5000a8dc 	.word	0x5000a8dc
5000a8c8:	5000a8dc 	.word	0x5000a8dc
5000a8cc:	5000a8e4 	.word	0x5000a8e4
5000a8d0:	5000a8dc 	.word	0x5000a8dc
5000a8d4:	5000a8e4 	.word	0x5000a8e4
5000a8d8:	5000a8dc 	.word	0x5000a8dc
5000a8dc:	e3a0301f 	mov	r3, #31
5000a8e0:	ea00000b 	b	5000a914 <monthDays+0x90>
5000a8e4:	e3a0301e 	mov	r3, #30
5000a8e8:	ea000009 	b	5000a914 <monthDays+0x90>
5000a8ec:	e51b0008 	ldr	r0, [fp, #-8]
5000a8f0:	ebffffb6 	bl	5000a7d0 <isLeapyear>
5000a8f4:	e1a03000 	mov	r3, r0
5000a8f8:	e3530000 	cmp	r3, #0
5000a8fc:	0a000001 	beq	5000a908 <monthDays+0x84>
5000a900:	e3a0301d 	mov	r3, #29
5000a904:	ea000002 	b	5000a914 <monthDays+0x90>
5000a908:	e3a0301c 	mov	r3, #28
5000a90c:	ea000000 	b	5000a914 <monthDays+0x90>
5000a910:	e3a03000 	mov	r3, #0
5000a914:	e1a00003 	mov	r0, r3
5000a918:	e24bd004 	sub	sp, fp, #4
5000a91c:	e8bd8800 	pop	{fp, pc}

5000a920 <checkTime>:
5000a920:	e92d4810 	push	{r4, fp, lr}
5000a924:	e28db008 	add	fp, sp, #8
5000a928:	e24dd014 	sub	sp, sp, #20
5000a92c:	e50b0018 	str	r0, [fp, #-24]
5000a930:	e3a03000 	mov	r3, #0
5000a934:	e50b3010 	str	r3, [fp, #-16]
5000a938:	e51b3018 	ldr	r3, [fp, #-24]
5000a93c:	e5933014 	ldr	r3, [r3, #20]
5000a940:	e3530000 	cmp	r3, #0
5000a944:	ba000003 	blt	5000a958 <checkTime+0x38>
5000a948:	e51b3018 	ldr	r3, [fp, #-24]
5000a94c:	e5933014 	ldr	r3, [r3, #20]
5000a950:	e353003b 	cmp	r3, #59	; 0x3b
5000a954:	da000007 	ble	5000a978 <checkTime+0x58>
5000a958:	e51b3018 	ldr	r3, [fp, #-24]
5000a95c:	e5933014 	ldr	r3, [r3, #20]
5000a960:	e30603a4 	movw	r0, #25508	; 0x63a4
5000a964:	e3450001 	movt	r0, #20481	; 0x5001
5000a968:	e1a01003 	mov	r1, r3
5000a96c:	ebffe750 	bl	500046b4 <serial_printf>
5000a970:	e3e03000 	mvn	r3, #0
5000a974:	e50b3010 	str	r3, [fp, #-16]
5000a978:	e51b3018 	ldr	r3, [fp, #-24]
5000a97c:	e5933010 	ldr	r3, [r3, #16]
5000a980:	e3530000 	cmp	r3, #0
5000a984:	ba000003 	blt	5000a998 <checkTime+0x78>
5000a988:	e51b3018 	ldr	r3, [fp, #-24]
5000a98c:	e5933010 	ldr	r3, [r3, #16]
5000a990:	e353003b 	cmp	r3, #59	; 0x3b
5000a994:	da000007 	ble	5000a9b8 <checkTime+0x98>
5000a998:	e51b3018 	ldr	r3, [fp, #-24]
5000a99c:	e5933010 	ldr	r3, [r3, #16]
5000a9a0:	e30603d0 	movw	r0, #25552	; 0x63d0
5000a9a4:	e3450001 	movt	r0, #20481	; 0x5001
5000a9a8:	e1a01003 	mov	r1, r3
5000a9ac:	ebffe740 	bl	500046b4 <serial_printf>
5000a9b0:	e3e03000 	mvn	r3, #0
5000a9b4:	e50b3010 	str	r3, [fp, #-16]
5000a9b8:	e51b3018 	ldr	r3, [fp, #-24]
5000a9bc:	e593300c 	ldr	r3, [r3, #12]
5000a9c0:	e3530000 	cmp	r3, #0
5000a9c4:	ba000003 	blt	5000a9d8 <checkTime+0xb8>
5000a9c8:	e51b3018 	ldr	r3, [fp, #-24]
5000a9cc:	e593300c 	ldr	r3, [r3, #12]
5000a9d0:	e3530017 	cmp	r3, #23
5000a9d4:	da000007 	ble	5000a9f8 <checkTime+0xd8>
5000a9d8:	e51b3018 	ldr	r3, [fp, #-24]
5000a9dc:	e593300c 	ldr	r3, [r3, #12]
5000a9e0:	e30603fc 	movw	r0, #25596	; 0x63fc
5000a9e4:	e3450001 	movt	r0, #20481	; 0x5001
5000a9e8:	e1a01003 	mov	r1, r3
5000a9ec:	ebffe730 	bl	500046b4 <serial_printf>
5000a9f0:	e3e03000 	mvn	r3, #0
5000a9f4:	e50b3010 	str	r3, [fp, #-16]
5000a9f8:	e51b3018 	ldr	r3, [fp, #-24]
5000a9fc:	e5933000 	ldr	r3, [r3]
5000aa00:	e3530ffa 	cmp	r3, #1000	; 0x3e8
5000aa04:	ba000004 	blt	5000aa1c <checkTime+0xfc>
5000aa08:	e51b3018 	ldr	r3, [fp, #-24]
5000aa0c:	e5933000 	ldr	r3, [r3]
5000aa10:	e302270f 	movw	r2, #9999	; 0x270f
5000aa14:	e1530002 	cmp	r3, r2
5000aa18:	da000007 	ble	5000aa3c <checkTime+0x11c>
5000aa1c:	e51b3018 	ldr	r3, [fp, #-24]
5000aa20:	e5933000 	ldr	r3, [r3]
5000aa24:	e3060428 	movw	r0, #25640	; 0x6428
5000aa28:	e3450001 	movt	r0, #20481	; 0x5001
5000aa2c:	e1a01003 	mov	r1, r3
5000aa30:	ebffe71f 	bl	500046b4 <serial_printf>
5000aa34:	e3e03000 	mvn	r3, #0
5000aa38:	e50b3010 	str	r3, [fp, #-16]
5000aa3c:	e51b3018 	ldr	r3, [fp, #-24]
5000aa40:	e5933004 	ldr	r3, [r3, #4]
5000aa44:	e3530000 	cmp	r3, #0
5000aa48:	da000003 	ble	5000aa5c <checkTime+0x13c>
5000aa4c:	e51b3018 	ldr	r3, [fp, #-24]
5000aa50:	e5933004 	ldr	r3, [r3, #4]
5000aa54:	e353000c 	cmp	r3, #12
5000aa58:	da000007 	ble	5000aa7c <checkTime+0x15c>
5000aa5c:	e51b3018 	ldr	r3, [fp, #-24]
5000aa60:	e5933004 	ldr	r3, [r3, #4]
5000aa64:	e3060454 	movw	r0, #25684	; 0x6454
5000aa68:	e3450001 	movt	r0, #20481	; 0x5001
5000aa6c:	e1a01003 	mov	r1, r3
5000aa70:	ebffe70f 	bl	500046b4 <serial_printf>
5000aa74:	e3e03000 	mvn	r3, #0
5000aa78:	e50b3010 	str	r3, [fp, #-16]
5000aa7c:	e51b3018 	ldr	r3, [fp, #-24]
5000aa80:	e5933008 	ldr	r3, [r3, #8]
5000aa84:	e3530000 	cmp	r3, #0
5000aa88:	da00000b 	ble	5000aabc <checkTime+0x19c>
5000aa8c:	e51b3018 	ldr	r3, [fp, #-24]
5000aa90:	e5934008 	ldr	r4, [r3, #8]
5000aa94:	e51b3018 	ldr	r3, [fp, #-24]
5000aa98:	e5932000 	ldr	r2, [r3]
5000aa9c:	e51b3018 	ldr	r3, [fp, #-24]
5000aaa0:	e5933004 	ldr	r3, [r3, #4]
5000aaa4:	e1a00002 	mov	r0, r2
5000aaa8:	e1a01003 	mov	r1, r3
5000aaac:	ebffff74 	bl	5000a884 <monthDays>
5000aab0:	e1a03000 	mov	r3, r0
5000aab4:	e1540003 	cmp	r4, r3
5000aab8:	da000007 	ble	5000aadc <checkTime+0x1bc>
5000aabc:	e51b3018 	ldr	r3, [fp, #-24]
5000aac0:	e5933008 	ldr	r3, [r3, #8]
5000aac4:	e3060480 	movw	r0, #25728	; 0x6480
5000aac8:	e3450001 	movt	r0, #20481	; 0x5001
5000aacc:	e1a01003 	mov	r1, r3
5000aad0:	ebffe6f7 	bl	500046b4 <serial_printf>
5000aad4:	e3e03000 	mvn	r3, #0
5000aad8:	e50b3010 	str	r3, [fp, #-16]
5000aadc:	e51b3010 	ldr	r3, [fp, #-16]
5000aae0:	e1a00003 	mov	r0, r3
5000aae4:	e24bd008 	sub	sp, fp, #8
5000aae8:	e8bd8810 	pop	{r4, fp, pc}

5000aaec <updateDayOfYear>:
5000aaec:	e92d4800 	push	{fp, lr}
5000aaf0:	e28db004 	add	fp, sp, #4
5000aaf4:	e24dd010 	sub	sp, sp, #16
5000aaf8:	e50b0010 	str	r0, [fp, #-16]
5000aafc:	e51b3010 	ldr	r3, [fp, #-16]
5000ab00:	e5933008 	ldr	r3, [r3, #8]
5000ab04:	e2432001 	sub	r2, r3, #1
5000ab08:	e51b3010 	ldr	r3, [fp, #-16]
5000ab0c:	e583201c 	str	r2, [r3, #28]
5000ab10:	e51b3010 	ldr	r3, [fp, #-16]
5000ab14:	e5933004 	ldr	r3, [r3, #4]
5000ab18:	e2433001 	sub	r3, r3, #1
5000ab1c:	e50b3008 	str	r3, [fp, #-8]
5000ab20:	ea00000d 	b	5000ab5c <updateDayOfYear+0x70>
5000ab24:	e51b3010 	ldr	r3, [fp, #-16]
5000ab28:	e5933000 	ldr	r3, [r3]
5000ab2c:	e1a00003 	mov	r0, r3
5000ab30:	e51b1008 	ldr	r1, [fp, #-8]
5000ab34:	ebffff52 	bl	5000a884 <monthDays>
5000ab38:	e1a02000 	mov	r2, r0
5000ab3c:	e51b3010 	ldr	r3, [fp, #-16]
5000ab40:	e593301c 	ldr	r3, [r3, #28]
5000ab44:	e0832002 	add	r2, r3, r2
5000ab48:	e51b3010 	ldr	r3, [fp, #-16]
5000ab4c:	e583201c 	str	r2, [r3, #28]
5000ab50:	e51b3008 	ldr	r3, [fp, #-8]
5000ab54:	e2433001 	sub	r3, r3, #1
5000ab58:	e50b3008 	str	r3, [fp, #-8]
5000ab5c:	e51b3008 	ldr	r3, [fp, #-8]
5000ab60:	e3530000 	cmp	r3, #0
5000ab64:	caffffee 	bgt	5000ab24 <updateDayOfYear+0x38>
5000ab68:	e24bd004 	sub	sp, fp, #4
5000ab6c:	e8bd8800 	pop	{fp, pc}

5000ab70 <updateWeekday>:
5000ab70:	e92d4800 	push	{fp, lr}
5000ab74:	e28db004 	add	fp, sp, #4
5000ab78:	e24dd010 	sub	sp, sp, #16
5000ab7c:	e50b0010 	str	r0, [fp, #-16]
5000ab80:	e51b3010 	ldr	r3, [fp, #-16]
5000ab84:	e5933000 	ldr	r3, [r3]
5000ab88:	e50b3008 	str	r3, [fp, #-8]
5000ab8c:	e51b0010 	ldr	r0, [fp, #-16]
5000ab90:	ebffffd5 	bl	5000aaec <updateDayOfYear>
5000ab94:	e51b3008 	ldr	r3, [fp, #-8]
5000ab98:	e2431001 	sub	r1, r3, #1
5000ab9c:	e308351f 	movw	r3, #34079	; 0x851f
5000aba0:	e34531eb 	movt	r3, #20971	; 0x51eb
5000aba4:	e0c32391 	smull	r2, r3, r1, r3
5000aba8:	e1a023c3 	asr	r2, r3, #7
5000abac:	e1a03fc1 	asr	r3, r1, #31
5000abb0:	e0632002 	rsb	r2, r3, r2
5000abb4:	e51b3008 	ldr	r3, [fp, #-8]
5000abb8:	e0820003 	add	r0, r2, r3
5000abbc:	e51b3008 	ldr	r3, [fp, #-8]
5000abc0:	e2431001 	sub	r1, r3, #1
5000abc4:	e308351f 	movw	r3, #34079	; 0x851f
5000abc8:	e34531eb 	movt	r3, #20971	; 0x51eb
5000abcc:	e0c32391 	smull	r2, r3, r1, r3
5000abd0:	e1a022c3 	asr	r2, r3, #5
5000abd4:	e1a03fc1 	asr	r3, r1, #31
5000abd8:	e0633002 	rsb	r3, r3, r2
5000abdc:	e0632000 	rsb	r2, r3, r0
5000abe0:	e51b3008 	ldr	r3, [fp, #-8]
5000abe4:	e2433001 	sub	r3, r3, #1
5000abe8:	e2831003 	add	r1, r3, #3
5000abec:	e3530000 	cmp	r3, #0
5000abf0:	b1a03001 	movlt	r3, r1
5000abf4:	a1a03003 	movge	r3, r3
5000abf8:	e1a03143 	asr	r3, r3, #2
5000abfc:	e0823003 	add	r3, r2, r3
5000ac00:	e3022493 	movw	r2, #9363	; 0x2493
5000ac04:	e3492249 	movt	r2, #37449	; 0x9249
5000ac08:	e0c10293 	smull	r0, r1, r3, r2
5000ac0c:	e0832001 	add	r2, r3, r1
5000ac10:	e1a01142 	asr	r1, r2, #2
5000ac14:	e1a02fc3 	asr	r2, r3, #31
5000ac18:	e0621001 	rsb	r1, r2, r1
5000ac1c:	e1a02001 	mov	r2, r1
5000ac20:	e1a02182 	lsl	r2, r2, #3
5000ac24:	e0612002 	rsb	r2, r1, r2
5000ac28:	e0623003 	rsb	r3, r2, r3
5000ac2c:	e50b300c 	str	r3, [fp, #-12]
5000ac30:	e51b3010 	ldr	r3, [fp, #-16]
5000ac34:	e593201c 	ldr	r2, [r3, #28]
5000ac38:	e51b300c 	ldr	r3, [fp, #-12]
5000ac3c:	e0823003 	add	r3, r2, r3
5000ac40:	e3022493 	movw	r2, #9363	; 0x2493
5000ac44:	e3492249 	movt	r2, #37449	; 0x9249
5000ac48:	e0c10293 	smull	r0, r1, r3, r2
5000ac4c:	e0832001 	add	r2, r3, r1
5000ac50:	e1a01142 	asr	r1, r2, #2
5000ac54:	e1a02fc3 	asr	r2, r3, #31
5000ac58:	e0621001 	rsb	r1, r2, r1
5000ac5c:	e1a02001 	mov	r2, r1
5000ac60:	e1a02182 	lsl	r2, r2, #3
5000ac64:	e0612002 	rsb	r2, r1, r2
5000ac68:	e0621003 	rsb	r1, r2, r3
5000ac6c:	e51b3010 	ldr	r3, [fp, #-16]
5000ac70:	e5831018 	str	r1, [r3, #24]
5000ac74:	e24bd004 	sub	sp, fp, #4
5000ac78:	e8bd8800 	pop	{fp, pc}

5000ac7c <addDays>:
5000ac7c:	e92d4810 	push	{r4, fp, lr}
5000ac80:	e28db008 	add	fp, sp, #8
5000ac84:	e24dd00c 	sub	sp, sp, #12
5000ac88:	e50b0010 	str	r0, [fp, #-16]
5000ac8c:	e50b1014 	str	r1, [fp, #-20]
5000ac90:	ea000028 	b	5000ad38 <addDays+0xbc>
5000ac94:	e51b3010 	ldr	r3, [fp, #-16]
5000ac98:	e5934008 	ldr	r4, [r3, #8]
5000ac9c:	e51b3010 	ldr	r3, [fp, #-16]
5000aca0:	e5932000 	ldr	r2, [r3]
5000aca4:	e51b3010 	ldr	r3, [fp, #-16]
5000aca8:	e5933004 	ldr	r3, [r3, #4]
5000acac:	e1a00002 	mov	r0, r2
5000acb0:	e1a01003 	mov	r1, r3
5000acb4:	ebfffef2 	bl	5000a884 <monthDays>
5000acb8:	e1a03000 	mov	r3, r0
5000acbc:	e1540003 	cmp	r4, r3
5000acc0:	aa000005 	bge	5000acdc <addDays+0x60>
5000acc4:	e51b3010 	ldr	r3, [fp, #-16]
5000acc8:	e5933008 	ldr	r3, [r3, #8]
5000accc:	e2832001 	add	r2, r3, #1
5000acd0:	e51b3010 	ldr	r3, [fp, #-16]
5000acd4:	e5832008 	str	r2, [r3, #8]
5000acd8:	ea000013 	b	5000ad2c <addDays+0xb0>
5000acdc:	e51b3010 	ldr	r3, [fp, #-16]
5000ace0:	e3a02001 	mov	r2, #1
5000ace4:	e5832008 	str	r2, [r3, #8]
5000ace8:	e51b3010 	ldr	r3, [fp, #-16]
5000acec:	e5933004 	ldr	r3, [r3, #4]
5000acf0:	e2832001 	add	r2, r3, #1
5000acf4:	e51b3010 	ldr	r3, [fp, #-16]
5000acf8:	e5832004 	str	r2, [r3, #4]
5000acfc:	e51b3010 	ldr	r3, [fp, #-16]
5000ad00:	e5933004 	ldr	r3, [r3, #4]
5000ad04:	e353000d 	cmp	r3, #13
5000ad08:	1a000007 	bne	5000ad2c <addDays+0xb0>
5000ad0c:	e51b3010 	ldr	r3, [fp, #-16]
5000ad10:	e3a02001 	mov	r2, #1
5000ad14:	e5832004 	str	r2, [r3, #4]
5000ad18:	e51b3010 	ldr	r3, [fp, #-16]
5000ad1c:	e5933000 	ldr	r3, [r3]
5000ad20:	e2832001 	add	r2, r3, #1
5000ad24:	e51b3010 	ldr	r3, [fp, #-16]
5000ad28:	e5832000 	str	r2, [r3]
5000ad2c:	e51b3014 	ldr	r3, [fp, #-20]
5000ad30:	e2433001 	sub	r3, r3, #1
5000ad34:	e50b3014 	str	r3, [fp, #-20]
5000ad38:	e51b3014 	ldr	r3, [fp, #-20]
5000ad3c:	e3530000 	cmp	r3, #0
5000ad40:	caffffd3 	bgt	5000ac94 <addDays+0x18>
5000ad44:	e24bd008 	sub	sp, fp, #8
5000ad48:	e8bd8810 	pop	{r4, fp, pc}

5000ad4c <calculateNowTime>:
5000ad4c:	e92d4800 	push	{fp, lr}
5000ad50:	e28db004 	add	fp, sp, #4
5000ad54:	e24dd040 	sub	sp, sp, #64	; 0x40
5000ad58:	e50b0040 	str	r0, [fp, #-64]	; 0x40
5000ad5c:	ebfff5b9 	bl	50008448 <tick_get>
5000ad60:	e1a03000 	mov	r3, r0
5000ad64:	e1a02003 	mov	r2, r3
5000ad68:	e30c3d24 	movw	r3, #52516	; 0xcd24
5000ad6c:	e3453001 	movt	r3, #20481	; 0x5001
5000ad70:	e5933000 	ldr	r3, [r3]
5000ad74:	e0632002 	rsb	r2, r3, r2
5000ad78:	e308351f 	movw	r3, #34079	; 0x851f
5000ad7c:	e34531eb 	movt	r3, #20971	; 0x51eb
5000ad80:	e0832392 	umull	r2, r3, r2, r3
5000ad84:	e1a032a3 	lsr	r3, r3, #5
5000ad88:	e50b300c 	str	r3, [fp, #-12]
5000ad8c:	e30734e4 	movw	r3, #29924	; 0x74e4
5000ad90:	e3453001 	movt	r3, #20481	; 0x5001
5000ad94:	e593c014 	ldr	ip, [r3, #20]
5000ad98:	e51b300c 	ldr	r3, [fp, #-12]
5000ad9c:	e3082889 	movw	r2, #34953	; 0x8889
5000ada0:	e3482888 	movt	r2, #34952	; 0x8888
5000ada4:	e0c10293 	smull	r0, r1, r3, r2
5000ada8:	e0832001 	add	r2, r3, r1
5000adac:	e1a012c2 	asr	r1, r2, #5
5000adb0:	e1a02fc3 	asr	r2, r3, #31
5000adb4:	e0622001 	rsb	r2, r2, r1
5000adb8:	e1a01002 	mov	r1, r2
5000adbc:	e1a02101 	lsl	r2, r1, #2
5000adc0:	e1a01002 	mov	r1, r2
5000adc4:	e1a02201 	lsl	r2, r1, #4
5000adc8:	e0612002 	rsb	r2, r1, r2
5000adcc:	e0622003 	rsb	r2, r2, r3
5000add0:	e08c3002 	add	r3, ip, r2
5000add4:	e50b3024 	str	r3, [fp, #-36]	; 0x24
5000add8:	e51b3024 	ldr	r3, [fp, #-36]	; 0x24
5000addc:	e353003b 	cmp	r3, #59	; 0x3b
5000ade0:	da000011 	ble	5000ae2c <calculateNowTime+0xe0>
5000ade4:	e51b3024 	ldr	r3, [fp, #-36]	; 0x24
5000ade8:	e3082889 	movw	r2, #34953	; 0x8889
5000adec:	e3482888 	movt	r2, #34952	; 0x8888
5000adf0:	e0c10293 	smull	r0, r1, r3, r2
5000adf4:	e0832001 	add	r2, r3, r1
5000adf8:	e1a012c2 	asr	r1, r2, #5
5000adfc:	e1a02fc3 	asr	r2, r3, #31
5000ae00:	e0622001 	rsb	r2, r2, r1
5000ae04:	e1a01002 	mov	r1, r2
5000ae08:	e1a02101 	lsl	r2, r1, #2
5000ae0c:	e1a01002 	mov	r1, r2
5000ae10:	e1a02201 	lsl	r2, r1, #4
5000ae14:	e0612002 	rsb	r2, r1, r2
5000ae18:	e0622003 	rsb	r2, r2, r3
5000ae1c:	e50b2024 	str	r2, [fp, #-36]	; 0x24
5000ae20:	e3a03001 	mov	r3, #1
5000ae24:	e50b3008 	str	r3, [fp, #-8]
5000ae28:	ea000001 	b	5000ae34 <calculateNowTime+0xe8>
5000ae2c:	e3a03000 	mov	r3, #0
5000ae30:	e50b3008 	str	r3, [fp, #-8]
5000ae34:	e51b300c 	ldr	r3, [fp, #-12]
5000ae38:	e3082889 	movw	r2, #34953	; 0x8889
5000ae3c:	e3482888 	movt	r2, #34952	; 0x8888
5000ae40:	e0c10293 	smull	r0, r1, r3, r2
5000ae44:	e0832001 	add	r2, r3, r1
5000ae48:	e1a022c2 	asr	r2, r2, #5
5000ae4c:	e1a03fc3 	asr	r3, r3, #31
5000ae50:	e0632002 	rsb	r2, r3, r2
5000ae54:	e51b3008 	ldr	r3, [fp, #-8]
5000ae58:	e0823003 	add	r3, r2, r3
5000ae5c:	e50b3010 	str	r3, [fp, #-16]
5000ae60:	e30734e4 	movw	r3, #29924	; 0x74e4
5000ae64:	e3453001 	movt	r3, #20481	; 0x5001
5000ae68:	e593c010 	ldr	ip, [r3, #16]
5000ae6c:	e51b3010 	ldr	r3, [fp, #-16]
5000ae70:	e3082889 	movw	r2, #34953	; 0x8889
5000ae74:	e3482888 	movt	r2, #34952	; 0x8888
5000ae78:	e0c10293 	smull	r0, r1, r3, r2
5000ae7c:	e0832001 	add	r2, r3, r1
5000ae80:	e1a012c2 	asr	r1, r2, #5
5000ae84:	e1a02fc3 	asr	r2, r3, #31
5000ae88:	e0622001 	rsb	r2, r2, r1
5000ae8c:	e1a01002 	mov	r1, r2
5000ae90:	e1a02101 	lsl	r2, r1, #2
5000ae94:	e1a01002 	mov	r1, r2
5000ae98:	e1a02201 	lsl	r2, r1, #4
5000ae9c:	e0612002 	rsb	r2, r1, r2
5000aea0:	e0622003 	rsb	r2, r2, r3
5000aea4:	e08c3002 	add	r3, ip, r2
5000aea8:	e50b3028 	str	r3, [fp, #-40]	; 0x28
5000aeac:	e51b3028 	ldr	r3, [fp, #-40]	; 0x28
5000aeb0:	e353003b 	cmp	r3, #59	; 0x3b
5000aeb4:	da000011 	ble	5000af00 <calculateNowTime+0x1b4>
5000aeb8:	e51b3028 	ldr	r3, [fp, #-40]	; 0x28
5000aebc:	e3082889 	movw	r2, #34953	; 0x8889
5000aec0:	e3482888 	movt	r2, #34952	; 0x8888
5000aec4:	e0c10293 	smull	r0, r1, r3, r2
5000aec8:	e0832001 	add	r2, r3, r1
5000aecc:	e1a012c2 	asr	r1, r2, #5
5000aed0:	e1a02fc3 	asr	r2, r3, #31
5000aed4:	e0622001 	rsb	r2, r2, r1
5000aed8:	e1a01002 	mov	r1, r2
5000aedc:	e1a02101 	lsl	r2, r1, #2
5000aee0:	e1a01002 	mov	r1, r2
5000aee4:	e1a02201 	lsl	r2, r1, #4
5000aee8:	e0612002 	rsb	r2, r1, r2
5000aeec:	e0622003 	rsb	r2, r2, r3
5000aef0:	e50b2028 	str	r2, [fp, #-40]	; 0x28
5000aef4:	e3a03001 	mov	r3, #1
5000aef8:	e50b3008 	str	r3, [fp, #-8]
5000aefc:	ea000001 	b	5000af08 <calculateNowTime+0x1bc>
5000af00:	e3a03000 	mov	r3, #0
5000af04:	e50b3008 	str	r3, [fp, #-8]
5000af08:	e51b3010 	ldr	r3, [fp, #-16]
5000af0c:	e3082889 	movw	r2, #34953	; 0x8889
5000af10:	e3482888 	movt	r2, #34952	; 0x8888
5000af14:	e0c10293 	smull	r0, r1, r3, r2
5000af18:	e0832001 	add	r2, r3, r1
5000af1c:	e1a022c2 	asr	r2, r2, #5
5000af20:	e1a03fc3 	asr	r3, r3, #31
5000af24:	e0632002 	rsb	r2, r3, r2
5000af28:	e51b3008 	ldr	r3, [fp, #-8]
5000af2c:	e0823003 	add	r3, r2, r3
5000af30:	e50b3014 	str	r3, [fp, #-20]
5000af34:	e30734e4 	movw	r3, #29924	; 0x74e4
5000af38:	e3453001 	movt	r3, #20481	; 0x5001
5000af3c:	e593c00c 	ldr	ip, [r3, #12]
5000af40:	e51b2014 	ldr	r2, [fp, #-20]
5000af44:	e30a3aab 	movw	r3, #43691	; 0xaaab
5000af48:	e3423aaa 	movt	r3, #10922	; 0x2aaa
5000af4c:	e0c10392 	smull	r0, r1, r2, r3
5000af50:	e1a01141 	asr	r1, r1, #2
5000af54:	e1a03fc2 	asr	r3, r2, #31
5000af58:	e0633001 	rsb	r3, r3, r1
5000af5c:	e1a01003 	mov	r1, r3
5000af60:	e1a03181 	lsl	r3, r1, #3
5000af64:	e1a01003 	mov	r1, r3
5000af68:	e1a03101 	lsl	r3, r1, #2
5000af6c:	e0613003 	rsb	r3, r1, r3
5000af70:	e0633002 	rsb	r3, r3, r2
5000af74:	e08c3003 	add	r3, ip, r3
5000af78:	e50b302c 	str	r3, [fp, #-44]	; 0x2c
5000af7c:	e51b302c 	ldr	r3, [fp, #-44]	; 0x2c
5000af80:	e3530017 	cmp	r3, #23
5000af84:	da000010 	ble	5000afcc <calculateNowTime+0x280>
5000af88:	e51b202c 	ldr	r2, [fp, #-44]	; 0x2c
5000af8c:	e30a3aab 	movw	r3, #43691	; 0xaaab
5000af90:	e3423aaa 	movt	r3, #10922	; 0x2aaa
5000af94:	e0c10392 	smull	r0, r1, r2, r3
5000af98:	e1a01141 	asr	r1, r1, #2
5000af9c:	e1a03fc2 	asr	r3, r2, #31
5000afa0:	e0633001 	rsb	r3, r3, r1
5000afa4:	e1a01003 	mov	r1, r3
5000afa8:	e1a03181 	lsl	r3, r1, #3
5000afac:	e1a01003 	mov	r1, r3
5000afb0:	e1a03101 	lsl	r3, r1, #2
5000afb4:	e0613003 	rsb	r3, r1, r3
5000afb8:	e0633002 	rsb	r3, r3, r2
5000afbc:	e50b302c 	str	r3, [fp, #-44]	; 0x2c
5000afc0:	e3a03001 	mov	r3, #1
5000afc4:	e50b3008 	str	r3, [fp, #-8]
5000afc8:	ea000001 	b	5000afd4 <calculateNowTime+0x288>
5000afcc:	e3a03000 	mov	r3, #0
5000afd0:	e50b3008 	str	r3, [fp, #-8]
5000afd4:	e51b1014 	ldr	r1, [fp, #-20]
5000afd8:	e30a3aab 	movw	r3, #43691	; 0xaaab
5000afdc:	e3423aaa 	movt	r3, #10922	; 0x2aaa
5000afe0:	e0c32391 	smull	r2, r3, r1, r3
5000afe4:	e1a02143 	asr	r2, r3, #2
5000afe8:	e1a03fc1 	asr	r3, r1, #31
5000afec:	e0632002 	rsb	r2, r3, r2
5000aff0:	e51b3008 	ldr	r3, [fp, #-8]
5000aff4:	e0823003 	add	r3, r2, r3
5000aff8:	e50b3018 	str	r3, [fp, #-24]
5000affc:	e30734e4 	movw	r3, #29924	; 0x74e4
5000b000:	e3453001 	movt	r3, #20481	; 0x5001
5000b004:	e5933000 	ldr	r3, [r3]
5000b008:	e50b3038 	str	r3, [fp, #-56]	; 0x38
5000b00c:	e30734e4 	movw	r3, #29924	; 0x74e4
5000b010:	e3453001 	movt	r3, #20481	; 0x5001
5000b014:	e5933004 	ldr	r3, [r3, #4]
5000b018:	e50b3034 	str	r3, [fp, #-52]	; 0x34
5000b01c:	e30734e4 	movw	r3, #29924	; 0x74e4
5000b020:	e3453001 	movt	r3, #20481	; 0x5001
5000b024:	e5933008 	ldr	r3, [r3, #8]
5000b028:	e50b3030 	str	r3, [fp, #-48]	; 0x30
5000b02c:	e24b3038 	sub	r3, fp, #56	; 0x38
5000b030:	e1a00003 	mov	r0, r3
5000b034:	e51b1018 	ldr	r1, [fp, #-24]
5000b038:	ebffff0f 	bl	5000ac7c <addDays>
5000b03c:	e51b3040 	ldr	r3, [fp, #-64]	; 0x40
5000b040:	e1a0e003 	mov	lr, r3
5000b044:	e24bc038 	sub	ip, fp, #56	; 0x38
5000b048:	e8bc000f 	ldm	ip!, {r0, r1, r2, r3}
5000b04c:	e8ae000f 	stmia	lr!, {r0, r1, r2, r3}
5000b050:	e89c000f 	ldm	ip, {r0, r1, r2, r3}
5000b054:	e88e000f 	stm	lr, {r0, r1, r2, r3}
5000b058:	e51b0040 	ldr	r0, [fp, #-64]	; 0x40
5000b05c:	e24bd004 	sub	sp, fp, #4
5000b060:	e8bd8800 	pop	{fp, pc}

5000b064 <timeSet>:
5000b064:	e24dd010 	sub	sp, sp, #16
5000b068:	e92d4800 	push	{fp, lr}
5000b06c:	e28db004 	add	fp, sp, #4
5000b070:	e28bc004 	add	ip, fp, #4
5000b074:	e88c000f 	stm	ip, {r0, r1, r2, r3}
5000b078:	e28b3004 	add	r3, fp, #4
5000b07c:	e1a00003 	mov	r0, r3
5000b080:	ebfffe26 	bl	5000a920 <checkTime>
5000b084:	e1a03000 	mov	r3, r0
5000b088:	e3730001 	cmn	r3, #1
5000b08c:	1a000001 	bne	5000b098 <timeSet+0x34>
5000b090:	e3e03000 	mvn	r3, #0
5000b094:	ea000024 	b	5000b12c <timeSet+0xc8>
5000b098:	e30c3d20 	movw	r3, #52512	; 0xcd20
5000b09c:	e3453001 	movt	r3, #20481	; 0x5001
5000b0a0:	e5933000 	ldr	r3, [r3]
5000b0a4:	e3530000 	cmp	r3, #0
5000b0a8:	1a000005 	bne	5000b0c4 <timeSet+0x60>
5000b0ac:	e3a00000 	mov	r0, #0
5000b0b0:	ebffe2c9 	bl	50003bdc <semM_init>
5000b0b4:	e1a02000 	mov	r2, r0
5000b0b8:	e30c3d20 	movw	r3, #52512	; 0xcd20
5000b0bc:	e3453001 	movt	r3, #20481	; 0x5001
5000b0c0:	e5832000 	str	r2, [r3]
5000b0c4:	e30c3d20 	movw	r3, #52512	; 0xcd20
5000b0c8:	e3453001 	movt	r3, #20481	; 0x5001
5000b0cc:	e5933000 	ldr	r3, [r3]
5000b0d0:	e1a00003 	mov	r0, r3
5000b0d4:	e3e01000 	mvn	r1, #0
5000b0d8:	ebffe2e4 	bl	50003c70 <semM_take>
5000b0dc:	e30734e4 	movw	r3, #29924	; 0x74e4
5000b0e0:	e3453001 	movt	r3, #20481	; 0x5001
5000b0e4:	e1a0e003 	mov	lr, r3
5000b0e8:	e28bc004 	add	ip, fp, #4
5000b0ec:	e8bc000f 	ldm	ip!, {r0, r1, r2, r3}
5000b0f0:	e8ae000f 	stmia	lr!, {r0, r1, r2, r3}
5000b0f4:	e89c000f 	ldm	ip, {r0, r1, r2, r3}
5000b0f8:	e88e000f 	stm	lr, {r0, r1, r2, r3}
5000b0fc:	e30c3d20 	movw	r3, #52512	; 0xcd20
5000b100:	e3453001 	movt	r3, #20481	; 0x5001
5000b104:	e5933000 	ldr	r3, [r3]
5000b108:	e1a00003 	mov	r0, r3
5000b10c:	ebffe335 	bl	50003de8 <semM_give>
5000b110:	ebfff4cc 	bl	50008448 <tick_get>
5000b114:	e1a03000 	mov	r3, r0
5000b118:	e1a02003 	mov	r2, r3
5000b11c:	e30c3d24 	movw	r3, #52516	; 0xcd24
5000b120:	e3453001 	movt	r3, #20481	; 0x5001
5000b124:	e5832000 	str	r2, [r3]
5000b128:	e3a03000 	mov	r3, #0
5000b12c:	e1a00003 	mov	r0, r3
5000b130:	e24bd004 	sub	sp, fp, #4
5000b134:	e8bd4800 	pop	{fp, lr}
5000b138:	e28dd010 	add	sp, sp, #16
5000b13c:	e12fff1e 	bx	lr

5000b140 <timeGet>:
5000b140:	e92d4800 	push	{fp, lr}
5000b144:	e28db004 	add	fp, sp, #4
5000b148:	e24dd048 	sub	sp, sp, #72	; 0x48
5000b14c:	e50b0028 	str	r0, [fp, #-40]	; 0x28
5000b150:	e30c3d20 	movw	r3, #52512	; 0xcd20
5000b154:	e3453001 	movt	r3, #20481	; 0x5001
5000b158:	e5933000 	ldr	r3, [r3]
5000b15c:	e3530000 	cmp	r3, #0
5000b160:	1a000005 	bne	5000b17c <timeGet+0x3c>
5000b164:	e3a00000 	mov	r0, #0
5000b168:	ebffe29b 	bl	50003bdc <semM_init>
5000b16c:	e1a02000 	mov	r2, r0
5000b170:	e30c3d20 	movw	r3, #52512	; 0xcd20
5000b174:	e3453001 	movt	r3, #20481	; 0x5001
5000b178:	e5832000 	str	r2, [r3]
5000b17c:	e30c3d20 	movw	r3, #52512	; 0xcd20
5000b180:	e3453001 	movt	r3, #20481	; 0x5001
5000b184:	e5933000 	ldr	r3, [r3]
5000b188:	e1a00003 	mov	r0, r3
5000b18c:	e3e01000 	mvn	r1, #0
5000b190:	ebffe2b6 	bl	50003c70 <semM_take>
5000b194:	e24b304c 	sub	r3, fp, #76	; 0x4c
5000b198:	e1a00003 	mov	r0, r3
5000b19c:	ebfffeea 	bl	5000ad4c <calculateNowTime>
5000b1a0:	e24bc024 	sub	ip, fp, #36	; 0x24
5000b1a4:	e24be04c 	sub	lr, fp, #76	; 0x4c
5000b1a8:	e8be000f 	ldm	lr!, {r0, r1, r2, r3}
5000b1ac:	e8ac000f 	stmia	ip!, {r0, r1, r2, r3}
5000b1b0:	e89e000f 	ldm	lr, {r0, r1, r2, r3}
5000b1b4:	e88c000f 	stm	ip, {r0, r1, r2, r3}
5000b1b8:	e30c3d20 	movw	r3, #52512	; 0xcd20
5000b1bc:	e3453001 	movt	r3, #20481	; 0x5001
5000b1c0:	e5933000 	ldr	r3, [r3]
5000b1c4:	e1a00003 	mov	r0, r3
5000b1c8:	ebffe306 	bl	50003de8 <semM_give>
5000b1cc:	e24b3024 	sub	r3, fp, #36	; 0x24
5000b1d0:	e1a00003 	mov	r0, r3
5000b1d4:	ebfffe65 	bl	5000ab70 <updateWeekday>
5000b1d8:	e51b3028 	ldr	r3, [fp, #-40]	; 0x28
5000b1dc:	e1a0e003 	mov	lr, r3
5000b1e0:	e24bc024 	sub	ip, fp, #36	; 0x24
5000b1e4:	e8bc000f 	ldm	ip!, {r0, r1, r2, r3}
5000b1e8:	e8ae000f 	stmia	lr!, {r0, r1, r2, r3}
5000b1ec:	e89c000f 	ldm	ip, {r0, r1, r2, r3}
5000b1f0:	e88e000f 	stm	lr, {r0, r1, r2, r3}
5000b1f4:	e51b0028 	ldr	r0, [fp, #-40]	; 0x28
5000b1f8:	e24bd004 	sub	sp, fp, #4
5000b1fc:	e8bd8800 	pop	{fp, pc}

5000b200 <setYear>:
5000b200:	e92d4800 	push	{fp, lr}
5000b204:	e28db004 	add	fp, sp, #4
5000b208:	e24dd038 	sub	sp, sp, #56	; 0x38
5000b20c:	e50b0028 	str	r0, [fp, #-40]	; 0x28
5000b210:	e24b3024 	sub	r3, fp, #36	; 0x24
5000b214:	e1a00003 	mov	r0, r3
5000b218:	ebffffc8 	bl	5000b140 <timeGet>
5000b21c:	e51b3028 	ldr	r3, [fp, #-40]	; 0x28
5000b220:	e50b3024 	str	r3, [fp, #-36]	; 0x24
5000b224:	e1a0c00d 	mov	ip, sp
5000b228:	e24b3014 	sub	r3, fp, #20
5000b22c:	e893000f 	ldm	r3, {r0, r1, r2, r3}
5000b230:	e88c000f 	stm	ip, {r0, r1, r2, r3}
5000b234:	e24b3024 	sub	r3, fp, #36	; 0x24
5000b238:	e893000f 	ldm	r3, {r0, r1, r2, r3}
5000b23c:	ebffff88 	bl	5000b064 <timeSet>
5000b240:	e1a03000 	mov	r3, r0
5000b244:	e1a00003 	mov	r0, r3
5000b248:	e24bd004 	sub	sp, fp, #4
5000b24c:	e8bd8800 	pop	{fp, pc}

5000b250 <setMonth>:
5000b250:	e92d4800 	push	{fp, lr}
5000b254:	e28db004 	add	fp, sp, #4
5000b258:	e24dd038 	sub	sp, sp, #56	; 0x38
5000b25c:	e50b0028 	str	r0, [fp, #-40]	; 0x28
5000b260:	e24b3024 	sub	r3, fp, #36	; 0x24
5000b264:	e1a00003 	mov	r0, r3
5000b268:	ebffffb4 	bl	5000b140 <timeGet>
5000b26c:	e51b3028 	ldr	r3, [fp, #-40]	; 0x28
5000b270:	e50b3020 	str	r3, [fp, #-32]
5000b274:	e1a0c00d 	mov	ip, sp
5000b278:	e24b3014 	sub	r3, fp, #20
5000b27c:	e893000f 	ldm	r3, {r0, r1, r2, r3}
5000b280:	e88c000f 	stm	ip, {r0, r1, r2, r3}
5000b284:	e24b3024 	sub	r3, fp, #36	; 0x24
5000b288:	e893000f 	ldm	r3, {r0, r1, r2, r3}
5000b28c:	ebffff74 	bl	5000b064 <timeSet>
5000b290:	e1a03000 	mov	r3, r0
5000b294:	e1a00003 	mov	r0, r3
5000b298:	e24bd004 	sub	sp, fp, #4
5000b29c:	e8bd8800 	pop	{fp, pc}

5000b2a0 <setDay>:
5000b2a0:	e92d4800 	push	{fp, lr}
5000b2a4:	e28db004 	add	fp, sp, #4
5000b2a8:	e24dd038 	sub	sp, sp, #56	; 0x38
5000b2ac:	e50b0028 	str	r0, [fp, #-40]	; 0x28
5000b2b0:	e24b3024 	sub	r3, fp, #36	; 0x24
5000b2b4:	e1a00003 	mov	r0, r3
5000b2b8:	ebffffa0 	bl	5000b140 <timeGet>
5000b2bc:	e51b3028 	ldr	r3, [fp, #-40]	; 0x28
5000b2c0:	e50b301c 	str	r3, [fp, #-28]
5000b2c4:	e1a0c00d 	mov	ip, sp
5000b2c8:	e24b3014 	sub	r3, fp, #20
5000b2cc:	e893000f 	ldm	r3, {r0, r1, r2, r3}
5000b2d0:	e88c000f 	stm	ip, {r0, r1, r2, r3}
5000b2d4:	e24b3024 	sub	r3, fp, #36	; 0x24
5000b2d8:	e893000f 	ldm	r3, {r0, r1, r2, r3}
5000b2dc:	ebffff60 	bl	5000b064 <timeSet>
5000b2e0:	e1a03000 	mov	r3, r0
5000b2e4:	e1a00003 	mov	r0, r3
5000b2e8:	e24bd004 	sub	sp, fp, #4
5000b2ec:	e8bd8800 	pop	{fp, pc}

5000b2f0 <setHour>:
5000b2f0:	e92d4800 	push	{fp, lr}
5000b2f4:	e28db004 	add	fp, sp, #4
5000b2f8:	e24dd038 	sub	sp, sp, #56	; 0x38
5000b2fc:	e50b0028 	str	r0, [fp, #-40]	; 0x28
5000b300:	e24b3024 	sub	r3, fp, #36	; 0x24
5000b304:	e1a00003 	mov	r0, r3
5000b308:	ebffff8c 	bl	5000b140 <timeGet>
5000b30c:	e51b3028 	ldr	r3, [fp, #-40]	; 0x28
5000b310:	e50b3018 	str	r3, [fp, #-24]
5000b314:	e1a0c00d 	mov	ip, sp
5000b318:	e24b3014 	sub	r3, fp, #20
5000b31c:	e893000f 	ldm	r3, {r0, r1, r2, r3}
5000b320:	e88c000f 	stm	ip, {r0, r1, r2, r3}
5000b324:	e24b3024 	sub	r3, fp, #36	; 0x24
5000b328:	e893000f 	ldm	r3, {r0, r1, r2, r3}
5000b32c:	ebffff4c 	bl	5000b064 <timeSet>
5000b330:	e1a03000 	mov	r3, r0
5000b334:	e1a00003 	mov	r0, r3
5000b338:	e24bd004 	sub	sp, fp, #4
5000b33c:	e8bd8800 	pop	{fp, pc}

5000b340 <setMinute>:
5000b340:	e92d4800 	push	{fp, lr}
5000b344:	e28db004 	add	fp, sp, #4
5000b348:	e24dd038 	sub	sp, sp, #56	; 0x38
5000b34c:	e50b0028 	str	r0, [fp, #-40]	; 0x28
5000b350:	e24b3024 	sub	r3, fp, #36	; 0x24
5000b354:	e1a00003 	mov	r0, r3
5000b358:	ebffff78 	bl	5000b140 <timeGet>
5000b35c:	e51b3028 	ldr	r3, [fp, #-40]	; 0x28
5000b360:	e50b3014 	str	r3, [fp, #-20]
5000b364:	e1a0c00d 	mov	ip, sp
5000b368:	e24b3014 	sub	r3, fp, #20
5000b36c:	e893000f 	ldm	r3, {r0, r1, r2, r3}
5000b370:	e88c000f 	stm	ip, {r0, r1, r2, r3}
5000b374:	e24b3024 	sub	r3, fp, #36	; 0x24
5000b378:	e893000f 	ldm	r3, {r0, r1, r2, r3}
5000b37c:	ebffff38 	bl	5000b064 <timeSet>
5000b380:	e1a03000 	mov	r3, r0
5000b384:	e1a00003 	mov	r0, r3
5000b388:	e24bd004 	sub	sp, fp, #4
5000b38c:	e8bd8800 	pop	{fp, pc}

5000b390 <setSecond>:
5000b390:	e92d4800 	push	{fp, lr}
5000b394:	e28db004 	add	fp, sp, #4
5000b398:	e24dd038 	sub	sp, sp, #56	; 0x38
5000b39c:	e50b0028 	str	r0, [fp, #-40]	; 0x28
5000b3a0:	e24b3024 	sub	r3, fp, #36	; 0x24
5000b3a4:	e1a00003 	mov	r0, r3
5000b3a8:	ebffff64 	bl	5000b140 <timeGet>
5000b3ac:	e51b3028 	ldr	r3, [fp, #-40]	; 0x28
5000b3b0:	e50b3010 	str	r3, [fp, #-16]
5000b3b4:	e1a0c00d 	mov	ip, sp
5000b3b8:	e24b3014 	sub	r3, fp, #20
5000b3bc:	e893000f 	ldm	r3, {r0, r1, r2, r3}
5000b3c0:	e88c000f 	stm	ip, {r0, r1, r2, r3}
5000b3c4:	e24b3024 	sub	r3, fp, #36	; 0x24
5000b3c8:	e893000f 	ldm	r3, {r0, r1, r2, r3}
5000b3cc:	ebffff24 	bl	5000b064 <timeSet>
5000b3d0:	e1a03000 	mov	r3, r0
5000b3d4:	e1a00003 	mov	r0, r3
5000b3d8:	e24bd004 	sub	sp, fp, #4
5000b3dc:	e8bd8800 	pop	{fp, pc}

5000b3e0 <getYear>:
5000b3e0:	e92d4800 	push	{fp, lr}
5000b3e4:	e28db004 	add	fp, sp, #4
5000b3e8:	e24dd020 	sub	sp, sp, #32
5000b3ec:	e24b3024 	sub	r3, fp, #36	; 0x24
5000b3f0:	e1a00003 	mov	r0, r3
5000b3f4:	ebffff51 	bl	5000b140 <timeGet>
5000b3f8:	e51b3024 	ldr	r3, [fp, #-36]	; 0x24
5000b3fc:	e1a00003 	mov	r0, r3
5000b400:	e24bd004 	sub	sp, fp, #4
5000b404:	e8bd8800 	pop	{fp, pc}

5000b408 <getMonth>:
5000b408:	e92d4800 	push	{fp, lr}
5000b40c:	e28db004 	add	fp, sp, #4
5000b410:	e24dd020 	sub	sp, sp, #32
5000b414:	e24b3024 	sub	r3, fp, #36	; 0x24
5000b418:	e1a00003 	mov	r0, r3
5000b41c:	ebffff47 	bl	5000b140 <timeGet>
5000b420:	e51b3020 	ldr	r3, [fp, #-32]
5000b424:	e1a00003 	mov	r0, r3
5000b428:	e24bd004 	sub	sp, fp, #4
5000b42c:	e8bd8800 	pop	{fp, pc}

5000b430 <getDay>:
5000b430:	e92d4800 	push	{fp, lr}
5000b434:	e28db004 	add	fp, sp, #4
5000b438:	e24dd020 	sub	sp, sp, #32
5000b43c:	e24b3024 	sub	r3, fp, #36	; 0x24
5000b440:	e1a00003 	mov	r0, r3
5000b444:	ebffff3d 	bl	5000b140 <timeGet>
5000b448:	e51b301c 	ldr	r3, [fp, #-28]
5000b44c:	e1a00003 	mov	r0, r3
5000b450:	e24bd004 	sub	sp, fp, #4
5000b454:	e8bd8800 	pop	{fp, pc}

5000b458 <getHour>:
5000b458:	e92d4800 	push	{fp, lr}
5000b45c:	e28db004 	add	fp, sp, #4
5000b460:	e24dd020 	sub	sp, sp, #32
5000b464:	e24b3024 	sub	r3, fp, #36	; 0x24
5000b468:	e1a00003 	mov	r0, r3
5000b46c:	ebffff33 	bl	5000b140 <timeGet>
5000b470:	e51b3018 	ldr	r3, [fp, #-24]
5000b474:	e1a00003 	mov	r0, r3
5000b478:	e24bd004 	sub	sp, fp, #4
5000b47c:	e8bd8800 	pop	{fp, pc}

5000b480 <getMinute>:
5000b480:	e92d4800 	push	{fp, lr}
5000b484:	e28db004 	add	fp, sp, #4
5000b488:	e24dd020 	sub	sp, sp, #32
5000b48c:	e24b3024 	sub	r3, fp, #36	; 0x24
5000b490:	e1a00003 	mov	r0, r3
5000b494:	ebffff29 	bl	5000b140 <timeGet>
5000b498:	e51b3014 	ldr	r3, [fp, #-20]
5000b49c:	e1a00003 	mov	r0, r3
5000b4a0:	e24bd004 	sub	sp, fp, #4
5000b4a4:	e8bd8800 	pop	{fp, pc}

5000b4a8 <getSecond>:
5000b4a8:	e92d4800 	push	{fp, lr}
5000b4ac:	e28db004 	add	fp, sp, #4
5000b4b0:	e24dd020 	sub	sp, sp, #32
5000b4b4:	e24b3024 	sub	r3, fp, #36	; 0x24
5000b4b8:	e1a00003 	mov	r0, r3
5000b4bc:	ebffff1f 	bl	5000b140 <timeGet>
5000b4c0:	e51b3010 	ldr	r3, [fp, #-16]
5000b4c4:	e1a00003 	mov	r0, r3
5000b4c8:	e24bd004 	sub	sp, fp, #4
5000b4cc:	e8bd8800 	pop	{fp, pc}

5000b4d0 <lian_cmd_init>:
5000b4d0:	e92d4800 	push	{fp, lr}
5000b4d4:	e28db004 	add	fp, sp, #4
5000b4d8:	e3070504 	movw	r0, #29956	; 0x7504
5000b4dc:	e3450001 	movt	r0, #20481	; 0x5001
5000b4e0:	ebffd5ee 	bl	50000ca0 <cmd_add>
5000b4e4:	e8bd8800 	pop	{fp, pc}

5000b4e8 <bridge_init>:
5000b4e8:	e92d4800 	push	{fp, lr}
5000b4ec:	e28db004 	add	fp, sp, #4
5000b4f0:	e24dd008 	sub	sp, sp, #8
5000b4f4:	e30c3d38 	movw	r3, #52536	; 0xcd38
5000b4f8:	e3453001 	movt	r3, #20481	; 0x5001
5000b4fc:	e3a02000 	mov	r2, #0
5000b500:	e5832000 	str	r2, [r3]
5000b504:	e30c3d38 	movw	r3, #52536	; 0xcd38
5000b508:	e3453001 	movt	r3, #20481	; 0x5001
5000b50c:	e5933000 	ldr	r3, [r3]
5000b510:	e1a00003 	mov	r0, r3
5000b514:	eb0002dd 	bl	5000c090 <_start_level>
5000b518:	e1a03000 	mov	r3, r0
5000b51c:	e3530000 	cmp	r3, #0
5000b520:	ca000001 	bgt	5000b52c <bridge_init+0x44>
5000b524:	e3e03000 	mvn	r3, #0
5000b528:	ea000015 	b	5000b584 <bridge_init+0x9c>
5000b52c:	e30c3d3c 	movw	r3, #52540	; 0xcd3c
5000b530:	e3453001 	movt	r3, #20481	; 0x5001
5000b534:	e3a020c8 	mov	r2, #200	; 0xc8
5000b538:	e5832000 	str	r2, [r3]
5000b53c:	e3a03000 	mov	r3, #0
5000b540:	e58d3000 	str	r3, [sp]
5000b544:	e3a03000 	mov	r3, #0
5000b548:	e58d3004 	str	r3, [sp, #4]
5000b54c:	e30604c4 	movw	r0, #25796	; 0x64c4
5000b550:	e3450001 	movt	r0, #20481	; 0x5001
5000b554:	e3a01a01 	mov	r1, #4096	; 0x1000
5000b558:	e3a020c8 	mov	r2, #200	; 0xc8
5000b55c:	e30c3c4c 	movw	r3, #52300	; 0xcc4c
5000b560:	e3453000 	movt	r3, #20480	; 0x5000
5000b564:	ebfff243 	bl	50007e78 <task_create>
5000b568:	e1a02000 	mov	r2, r0
5000b56c:	e30c3d28 	movw	r3, #52520	; 0xcd28
5000b570:	e3453001 	movt	r3, #20481	; 0x5001
5000b574:	e5832000 	str	r2, [r3]
5000b578:	e30c3d34 	movw	r3, #52532	; 0xcd34
5000b57c:	e3453001 	movt	r3, #20481	; 0x5001
5000b580:	e5933000 	ldr	r3, [r3]
5000b584:	e1a00003 	mov	r0, r3
5000b588:	e24bd004 	sub	sp, fp, #4
5000b58c:	e8bd8800 	pop	{fp, pc}

5000b590 <bridge_next>:
5000b590:	e92d4800 	push	{fp, lr}
5000b594:	e28db004 	add	fp, sp, #4
5000b598:	e30c3d3c 	movw	r3, #52540	; 0xcd3c
5000b59c:	e3453001 	movt	r3, #20481	; 0x5001
5000b5a0:	e5933000 	ldr	r3, [r3]
5000b5a4:	e3530000 	cmp	r3, #0
5000b5a8:	ca000000 	bgt	5000b5b0 <bridge_next+0x20>
5000b5ac:	ea00000d 	b	5000b5e8 <bridge_next+0x58>
5000b5b0:	e3a00001 	mov	r0, #1
5000b5b4:	eb000eb8 	bl	5000f09c <tty_beep>
5000b5b8:	e30c3d2c 	movw	r3, #52524	; 0xcd2c
5000b5bc:	e3453001 	movt	r3, #20481	; 0x5001
5000b5c0:	e1d330b2 	ldrh	r3, [r3, #2]
5000b5c4:	e6bf2073 	sxth	r2, r3
5000b5c8:	e30c3d2c 	movw	r3, #52524	; 0xcd2c
5000b5cc:	e3453001 	movt	r3, #20481	; 0x5001
5000b5d0:	e1d330b0 	ldrh	r3, [r3]
5000b5d4:	e6bf3073 	sxth	r3, r3
5000b5d8:	e2833001 	add	r3, r3, #1
5000b5dc:	e1a00002 	mov	r0, r2
5000b5e0:	e1a01003 	mov	r1, r3
5000b5e4:	eb000445 	bl	5000c700 <_make_cur>
5000b5e8:	e8bd8800 	pop	{fp, pc}

5000b5ec <bridge_move>:
5000b5ec:	e92d4800 	push	{fp, lr}
5000b5f0:	e28db004 	add	fp, sp, #4
5000b5f4:	e24dd018 	sub	sp, sp, #24
5000b5f8:	e50b0018 	str	r0, [fp, #-24]
5000b5fc:	e3a03000 	mov	r3, #0
5000b600:	e50b3010 	str	r3, [fp, #-16]
5000b604:	e30c3d3c 	movw	r3, #52540	; 0xcd3c
5000b608:	e3453001 	movt	r3, #20481	; 0x5001
5000b60c:	e5933000 	ldr	r3, [r3]
5000b610:	e3530000 	cmp	r3, #0
5000b614:	ca000001 	bgt	5000b620 <bridge_move+0x34>
5000b618:	e3a03000 	mov	r3, #0
5000b61c:	ea000133 	b	5000baf0 <bridge_move+0x504>
5000b620:	e51b3018 	ldr	r3, [fp, #-24]
5000b624:	e2433001 	sub	r3, r3, #1
5000b628:	e3530003 	cmp	r3, #3
5000b62c:	979ff103 	ldrls	pc, [pc, r3, lsl #2]
5000b630:	ea000127 	b	5000bad4 <bridge_move+0x4e8>
5000b634:	5000b644 	.word	0x5000b644
5000b638:	5000b88c 	.word	0x5000b88c
5000b63c:	5000b768 	.word	0x5000b768
5000b640:	5000b9b0 	.word	0x5000b9b0
5000b644:	e30c3d2c 	movw	r3, #52524	; 0xcd2c
5000b648:	e3453001 	movt	r3, #20481	; 0x5001
5000b64c:	e1d330b0 	ldrh	r3, [r3]
5000b650:	e6bf3073 	sxth	r3, r3
5000b654:	e50b3008 	str	r3, [fp, #-8]
5000b658:	e1a00000 	nop			; (mov r0, r0)
5000b65c:	e30c3d2c 	movw	r3, #52524	; 0xcd2c
5000b660:	e3453001 	movt	r3, #20481	; 0x5001
5000b664:	e1d330b2 	ldrh	r3, [r3, #2]
5000b668:	e6bf1073 	sxth	r1, r3
5000b66c:	e51b3008 	ldr	r3, [fp, #-8]
5000b670:	e2433001 	sub	r3, r3, #1
5000b674:	e50b3008 	str	r3, [fp, #-8]
5000b678:	e3072524 	movw	r2, #29988	; 0x7524
5000b67c:	e3452001 	movt	r2, #20481	; 0x5001
5000b680:	e1a03101 	lsl	r3, r1, #2
5000b684:	e1a01003 	mov	r1, r3
5000b688:	e1a03101 	lsl	r3, r1, #2
5000b68c:	e0613003 	rsb	r3, r1, r3
5000b690:	e51b1008 	ldr	r1, [fp, #-8]
5000b694:	e0833001 	add	r3, r3, r1
5000b698:	e7923103 	ldr	r3, [r2, r3, lsl #2]
5000b69c:	e3530000 	cmp	r3, #0
5000b6a0:	0affffed 	beq	5000b65c <bridge_move+0x70>
5000b6a4:	e51b3008 	ldr	r3, [fp, #-8]
5000b6a8:	e3530000 	cmp	r3, #0
5000b6ac:	0a00002c 	beq	5000b764 <bridge_move+0x178>
5000b6b0:	e30c3d2c 	movw	r3, #52524	; 0xcd2c
5000b6b4:	e3453001 	movt	r3, #20481	; 0x5001
5000b6b8:	e1d330b0 	ldrh	r3, [r3]
5000b6bc:	e6bf2073 	sxth	r2, r3
5000b6c0:	e51b3008 	ldr	r3, [fp, #-8]
5000b6c4:	e0633002 	rsb	r3, r3, r2
5000b6c8:	e50b3010 	str	r3, [fp, #-16]
5000b6cc:	e30c0d2c 	movw	r0, #52524	; 0xcd2c
5000b6d0:	e3450001 	movt	r0, #20481	; 0x5001
5000b6d4:	eb0004f9 	bl	5000cac0 <_leave>
5000b6d8:	e51b3008 	ldr	r3, [fp, #-8]
5000b6dc:	e6ff2073 	uxth	r2, r3
5000b6e0:	e30c3d2c 	movw	r3, #52524	; 0xcd2c
5000b6e4:	e3453001 	movt	r3, #20481	; 0x5001
5000b6e8:	e1c320b0 	strh	r2, [r3]
5000b6ec:	e30c3d2c 	movw	r3, #52524	; 0xcd2c
5000b6f0:	e3453001 	movt	r3, #20481	; 0x5001
5000b6f4:	e1d330b2 	ldrh	r3, [r3, #2]
5000b6f8:	e6bfe073 	sxth	lr, r3
5000b6fc:	e30c3d2c 	movw	r3, #52524	; 0xcd2c
5000b700:	e3453001 	movt	r3, #20481	; 0x5001
5000b704:	e1d330b0 	ldrh	r3, [r3]
5000b708:	e6bfc073 	sxth	ip, r3
5000b70c:	e30c3d2c 	movw	r3, #52524	; 0xcd2c
5000b710:	e3453001 	movt	r3, #20481	; 0x5001
5000b714:	e1d330b2 	ldrh	r3, [r3, #2]
5000b718:	e6bf1073 	sxth	r1, r3
5000b71c:	e30c3d2c 	movw	r3, #52524	; 0xcd2c
5000b720:	e3453001 	movt	r3, #20481	; 0x5001
5000b724:	e1d330b0 	ldrh	r3, [r3]
5000b728:	e6bf0073 	sxth	r0, r3
5000b72c:	e3072524 	movw	r2, #29988	; 0x7524
5000b730:	e3452001 	movt	r2, #20481	; 0x5001
5000b734:	e1a03101 	lsl	r3, r1, #2
5000b738:	e1a01003 	mov	r1, r3
5000b73c:	e1a03101 	lsl	r3, r1, #2
5000b740:	e0613003 	rsb	r3, r1, r3
5000b744:	e0833000 	add	r3, r3, r0
5000b748:	e7923103 	ldr	r3, [r2, r3, lsl #2]
5000b74c:	e1a0000e 	mov	r0, lr
5000b750:	e1a0100c 	mov	r1, ip
5000b754:	e1a02003 	mov	r2, r3
5000b758:	e3a03001 	mov	r3, #1
5000b75c:	eb000d31 	bl	5000ec28 <tty_show>
5000b760:	ea0000dc 	b	5000bad8 <bridge_move+0x4ec>
5000b764:	ea0000db 	b	5000bad8 <bridge_move+0x4ec>
5000b768:	e30c3d2c 	movw	r3, #52524	; 0xcd2c
5000b76c:	e3453001 	movt	r3, #20481	; 0x5001
5000b770:	e1d330b2 	ldrh	r3, [r3, #2]
5000b774:	e6bf3073 	sxth	r3, r3
5000b778:	e50b300c 	str	r3, [fp, #-12]
5000b77c:	e51b300c 	ldr	r3, [fp, #-12]
5000b780:	e2433001 	sub	r3, r3, #1
5000b784:	e50b300c 	str	r3, [fp, #-12]
5000b788:	e30c3d2c 	movw	r3, #52524	; 0xcd2c
5000b78c:	e3453001 	movt	r3, #20481	; 0x5001
5000b790:	e1d330b0 	ldrh	r3, [r3]
5000b794:	e6bf0073 	sxth	r0, r3
5000b798:	e3072524 	movw	r2, #29988	; 0x7524
5000b79c:	e3452001 	movt	r2, #20481	; 0x5001
5000b7a0:	e51b300c 	ldr	r3, [fp, #-12]
5000b7a4:	e1a01003 	mov	r1, r3
5000b7a8:	e1a03101 	lsl	r3, r1, #2
5000b7ac:	e1a01003 	mov	r1, r3
5000b7b0:	e1a03101 	lsl	r3, r1, #2
5000b7b4:	e0613003 	rsb	r3, r1, r3
5000b7b8:	e0833000 	add	r3, r3, r0
5000b7bc:	e7923103 	ldr	r3, [r2, r3, lsl #2]
5000b7c0:	e3530000 	cmp	r3, #0
5000b7c4:	0affffec 	beq	5000b77c <bridge_move+0x190>
5000b7c8:	e51b300c 	ldr	r3, [fp, #-12]
5000b7cc:	e3530000 	cmp	r3, #0
5000b7d0:	0a00002c 	beq	5000b888 <bridge_move+0x29c>
5000b7d4:	e30c3d2c 	movw	r3, #52524	; 0xcd2c
5000b7d8:	e3453001 	movt	r3, #20481	; 0x5001
5000b7dc:	e1d330b2 	ldrh	r3, [r3, #2]
5000b7e0:	e6bf2073 	sxth	r2, r3
5000b7e4:	e51b300c 	ldr	r3, [fp, #-12]
5000b7e8:	e0633002 	rsb	r3, r3, r2
5000b7ec:	e50b3010 	str	r3, [fp, #-16]
5000b7f0:	e30c0d2c 	movw	r0, #52524	; 0xcd2c
5000b7f4:	e3450001 	movt	r0, #20481	; 0x5001
5000b7f8:	eb0004b0 	bl	5000cac0 <_leave>
5000b7fc:	e51b300c 	ldr	r3, [fp, #-12]
5000b800:	e6ff2073 	uxth	r2, r3
5000b804:	e30c3d2c 	movw	r3, #52524	; 0xcd2c
5000b808:	e3453001 	movt	r3, #20481	; 0x5001
5000b80c:	e1c320b2 	strh	r2, [r3, #2]
5000b810:	e30c3d2c 	movw	r3, #52524	; 0xcd2c
5000b814:	e3453001 	movt	r3, #20481	; 0x5001
5000b818:	e1d330b2 	ldrh	r3, [r3, #2]
5000b81c:	e6bfe073 	sxth	lr, r3
5000b820:	e30c3d2c 	movw	r3, #52524	; 0xcd2c
5000b824:	e3453001 	movt	r3, #20481	; 0x5001
5000b828:	e1d330b0 	ldrh	r3, [r3]
5000b82c:	e6bfc073 	sxth	ip, r3
5000b830:	e30c3d2c 	movw	r3, #52524	; 0xcd2c
5000b834:	e3453001 	movt	r3, #20481	; 0x5001
5000b838:	e1d330b2 	ldrh	r3, [r3, #2]
5000b83c:	e6bf1073 	sxth	r1, r3
5000b840:	e30c3d2c 	movw	r3, #52524	; 0xcd2c
5000b844:	e3453001 	movt	r3, #20481	; 0x5001
5000b848:	e1d330b0 	ldrh	r3, [r3]
5000b84c:	e6bf0073 	sxth	r0, r3
5000b850:	e3072524 	movw	r2, #29988	; 0x7524
5000b854:	e3452001 	movt	r2, #20481	; 0x5001
5000b858:	e1a03101 	lsl	r3, r1, #2
5000b85c:	e1a01003 	mov	r1, r3
5000b860:	e1a03101 	lsl	r3, r1, #2
5000b864:	e0613003 	rsb	r3, r1, r3
5000b868:	e0833000 	add	r3, r3, r0
5000b86c:	e7923103 	ldr	r3, [r2, r3, lsl #2]
5000b870:	e1a0000e 	mov	r0, lr
5000b874:	e1a0100c 	mov	r1, ip
5000b878:	e1a02003 	mov	r2, r3
5000b87c:	e3a03001 	mov	r3, #1
5000b880:	eb000ce8 	bl	5000ec28 <tty_show>
5000b884:	ea000093 	b	5000bad8 <bridge_move+0x4ec>
5000b888:	ea000092 	b	5000bad8 <bridge_move+0x4ec>
5000b88c:	e30c3d2c 	movw	r3, #52524	; 0xcd2c
5000b890:	e3453001 	movt	r3, #20481	; 0x5001
5000b894:	e1d330b0 	ldrh	r3, [r3]
5000b898:	e6bf3073 	sxth	r3, r3
5000b89c:	e50b3008 	str	r3, [fp, #-8]
5000b8a0:	e1a00000 	nop			; (mov r0, r0)
5000b8a4:	e30c3d2c 	movw	r3, #52524	; 0xcd2c
5000b8a8:	e3453001 	movt	r3, #20481	; 0x5001
5000b8ac:	e1d330b2 	ldrh	r3, [r3, #2]
5000b8b0:	e6bf1073 	sxth	r1, r3
5000b8b4:	e51b3008 	ldr	r3, [fp, #-8]
5000b8b8:	e2833001 	add	r3, r3, #1
5000b8bc:	e50b3008 	str	r3, [fp, #-8]
5000b8c0:	e3072524 	movw	r2, #29988	; 0x7524
5000b8c4:	e3452001 	movt	r2, #20481	; 0x5001
5000b8c8:	e1a03101 	lsl	r3, r1, #2
5000b8cc:	e1a01003 	mov	r1, r3
5000b8d0:	e1a03101 	lsl	r3, r1, #2
5000b8d4:	e0613003 	rsb	r3, r1, r3
5000b8d8:	e51b1008 	ldr	r1, [fp, #-8]
5000b8dc:	e0833001 	add	r3, r3, r1
5000b8e0:	e7923103 	ldr	r3, [r2, r3, lsl #2]
5000b8e4:	e3530000 	cmp	r3, #0
5000b8e8:	0affffed 	beq	5000b8a4 <bridge_move+0x2b8>
5000b8ec:	e51b3008 	ldr	r3, [fp, #-8]
5000b8f0:	e353000b 	cmp	r3, #11
5000b8f4:	0a00002c 	beq	5000b9ac <bridge_move+0x3c0>
5000b8f8:	e30c3d2c 	movw	r3, #52524	; 0xcd2c
5000b8fc:	e3453001 	movt	r3, #20481	; 0x5001
5000b900:	e1d330b0 	ldrh	r3, [r3]
5000b904:	e6bf3073 	sxth	r3, r3
5000b908:	e51b2008 	ldr	r2, [fp, #-8]
5000b90c:	e0633002 	rsb	r3, r3, r2
5000b910:	e50b3010 	str	r3, [fp, #-16]
5000b914:	e30c0d2c 	movw	r0, #52524	; 0xcd2c
5000b918:	e3450001 	movt	r0, #20481	; 0x5001
5000b91c:	eb000467 	bl	5000cac0 <_leave>
5000b920:	e51b3008 	ldr	r3, [fp, #-8]
5000b924:	e6ff2073 	uxth	r2, r3
5000b928:	e30c3d2c 	movw	r3, #52524	; 0xcd2c
5000b92c:	e3453001 	movt	r3, #20481	; 0x5001
5000b930:	e1c320b0 	strh	r2, [r3]
5000b934:	e30c3d2c 	movw	r3, #52524	; 0xcd2c
5000b938:	e3453001 	movt	r3, #20481	; 0x5001
5000b93c:	e1d330b2 	ldrh	r3, [r3, #2]
5000b940:	e6bfe073 	sxth	lr, r3
5000b944:	e30c3d2c 	movw	r3, #52524	; 0xcd2c
5000b948:	e3453001 	movt	r3, #20481	; 0x5001
5000b94c:	e1d330b0 	ldrh	r3, [r3]
5000b950:	e6bfc073 	sxth	ip, r3
5000b954:	e30c3d2c 	movw	r3, #52524	; 0xcd2c
5000b958:	e3453001 	movt	r3, #20481	; 0x5001
5000b95c:	e1d330b2 	ldrh	r3, [r3, #2]
5000b960:	e6bf1073 	sxth	r1, r3
5000b964:	e30c3d2c 	movw	r3, #52524	; 0xcd2c
5000b968:	e3453001 	movt	r3, #20481	; 0x5001
5000b96c:	e1d330b0 	ldrh	r3, [r3]
5000b970:	e6bf0073 	sxth	r0, r3
5000b974:	e3072524 	movw	r2, #29988	; 0x7524
5000b978:	e3452001 	movt	r2, #20481	; 0x5001
5000b97c:	e1a03101 	lsl	r3, r1, #2
5000b980:	e1a01003 	mov	r1, r3
5000b984:	e1a03101 	lsl	r3, r1, #2
5000b988:	e0613003 	rsb	r3, r1, r3
5000b98c:	e0833000 	add	r3, r3, r0
5000b990:	e7923103 	ldr	r3, [r2, r3, lsl #2]
5000b994:	e1a0000e 	mov	r0, lr
5000b998:	e1a0100c 	mov	r1, ip
5000b99c:	e1a02003 	mov	r2, r3
5000b9a0:	e3a03001 	mov	r3, #1
5000b9a4:	eb000c9f 	bl	5000ec28 <tty_show>
5000b9a8:	ea00004a 	b	5000bad8 <bridge_move+0x4ec>
5000b9ac:	ea000049 	b	5000bad8 <bridge_move+0x4ec>
5000b9b0:	e30c3d2c 	movw	r3, #52524	; 0xcd2c
5000b9b4:	e3453001 	movt	r3, #20481	; 0x5001
5000b9b8:	e1d330b2 	ldrh	r3, [r3, #2]
5000b9bc:	e6bf3073 	sxth	r3, r3
5000b9c0:	e50b300c 	str	r3, [fp, #-12]
5000b9c4:	e51b300c 	ldr	r3, [fp, #-12]
5000b9c8:	e2833001 	add	r3, r3, #1
5000b9cc:	e50b300c 	str	r3, [fp, #-12]
5000b9d0:	e30c3d2c 	movw	r3, #52524	; 0xcd2c
5000b9d4:	e3453001 	movt	r3, #20481	; 0x5001
5000b9d8:	e1d330b0 	ldrh	r3, [r3]
5000b9dc:	e6bf0073 	sxth	r0, r3
5000b9e0:	e3072524 	movw	r2, #29988	; 0x7524
5000b9e4:	e3452001 	movt	r2, #20481	; 0x5001
5000b9e8:	e51b300c 	ldr	r3, [fp, #-12]
5000b9ec:	e1a01003 	mov	r1, r3
5000b9f0:	e1a03101 	lsl	r3, r1, #2
5000b9f4:	e1a01003 	mov	r1, r3
5000b9f8:	e1a03101 	lsl	r3, r1, #2
5000b9fc:	e0613003 	rsb	r3, r1, r3
5000ba00:	e0833000 	add	r3, r3, r0
5000ba04:	e7923103 	ldr	r3, [r2, r3, lsl #2]
5000ba08:	e3530000 	cmp	r3, #0
5000ba0c:	0affffec 	beq	5000b9c4 <bridge_move+0x3d8>
5000ba10:	e51b300c 	ldr	r3, [fp, #-12]
5000ba14:	e353000b 	cmp	r3, #11
5000ba18:	0a00002c 	beq	5000bad0 <bridge_move+0x4e4>
5000ba1c:	e30c3d2c 	movw	r3, #52524	; 0xcd2c
5000ba20:	e3453001 	movt	r3, #20481	; 0x5001
5000ba24:	e1d330b2 	ldrh	r3, [r3, #2]
5000ba28:	e6bf3073 	sxth	r3, r3
5000ba2c:	e51b200c 	ldr	r2, [fp, #-12]
5000ba30:	e0633002 	rsb	r3, r3, r2
5000ba34:	e50b3010 	str	r3, [fp, #-16]
5000ba38:	e30c0d2c 	movw	r0, #52524	; 0xcd2c
5000ba3c:	e3450001 	movt	r0, #20481	; 0x5001
5000ba40:	eb00041e 	bl	5000cac0 <_leave>
5000ba44:	e51b300c 	ldr	r3, [fp, #-12]
5000ba48:	e6ff2073 	uxth	r2, r3
5000ba4c:	e30c3d2c 	movw	r3, #52524	; 0xcd2c
5000ba50:	e3453001 	movt	r3, #20481	; 0x5001
5000ba54:	e1c320b2 	strh	r2, [r3, #2]
5000ba58:	e30c3d2c 	movw	r3, #52524	; 0xcd2c
5000ba5c:	e3453001 	movt	r3, #20481	; 0x5001
5000ba60:	e1d330b2 	ldrh	r3, [r3, #2]
5000ba64:	e6bfe073 	sxth	lr, r3
5000ba68:	e30c3d2c 	movw	r3, #52524	; 0xcd2c
5000ba6c:	e3453001 	movt	r3, #20481	; 0x5001
5000ba70:	e1d330b0 	ldrh	r3, [r3]
5000ba74:	e6bfc073 	sxth	ip, r3
5000ba78:	e30c3d2c 	movw	r3, #52524	; 0xcd2c
5000ba7c:	e3453001 	movt	r3, #20481	; 0x5001
5000ba80:	e1d330b2 	ldrh	r3, [r3, #2]
5000ba84:	e6bf1073 	sxth	r1, r3
5000ba88:	e30c3d2c 	movw	r3, #52524	; 0xcd2c
5000ba8c:	e3453001 	movt	r3, #20481	; 0x5001
5000ba90:	e1d330b0 	ldrh	r3, [r3]
5000ba94:	e6bf0073 	sxth	r0, r3
5000ba98:	e3072524 	movw	r2, #29988	; 0x7524
5000ba9c:	e3452001 	movt	r2, #20481	; 0x5001
5000baa0:	e1a03101 	lsl	r3, r1, #2
5000baa4:	e1a01003 	mov	r1, r3
5000baa8:	e1a03101 	lsl	r3, r1, #2
5000baac:	e0613003 	rsb	r3, r1, r3
5000bab0:	e0833000 	add	r3, r3, r0
5000bab4:	e7923103 	ldr	r3, [r2, r3, lsl #2]
5000bab8:	e1a0000e 	mov	r0, lr
5000babc:	e1a0100c 	mov	r1, ip
5000bac0:	e1a02003 	mov	r2, r3
5000bac4:	e3a03001 	mov	r3, #1
5000bac8:	eb000c56 	bl	5000ec28 <tty_show>
5000bacc:	ea000001 	b	5000bad8 <bridge_move+0x4ec>
5000bad0:	ea000000 	b	5000bad8 <bridge_move+0x4ec>
5000bad4:	e1a00000 	nop			; (mov r0, r0)
5000bad8:	e51b3010 	ldr	r3, [fp, #-16]
5000badc:	e3530000 	cmp	r3, #0
5000bae0:	da000001 	ble	5000baec <bridge_move+0x500>
5000bae4:	e3a00001 	mov	r0, #1
5000bae8:	eb000d6b 	bl	5000f09c <tty_beep>
5000baec:	e51b3010 	ldr	r3, [fp, #-16]
5000baf0:	e1a00003 	mov	r0, r3
5000baf4:	e24bd004 	sub	sp, fp, #4
5000baf8:	e8bd8800 	pop	{fp, pc}

5000bafc <bridge_exit>:
5000bafc:	e92d4800 	push	{fp, lr}
5000bb00:	e28db004 	add	fp, sp, #4
5000bb04:	e30c3d28 	movw	r3, #52520	; 0xcd28
5000bb08:	e3453001 	movt	r3, #20481	; 0x5001
5000bb0c:	e5933000 	ldr	r3, [r3]
5000bb10:	e3530000 	cmp	r3, #0
5000bb14:	0a000004 	beq	5000bb2c <bridge_exit+0x30>
5000bb18:	e30c3d28 	movw	r3, #52520	; 0xcd28
5000bb1c:	e3453001 	movt	r3, #20481	; 0x5001
5000bb20:	e5933000 	ldr	r3, [r3]
5000bb24:	e1a00003 	mov	r0, r3
5000bb28:	ebfff130 	bl	50007ff0 <task_delete>
5000bb2c:	e30c3d3c 	movw	r3, #52540	; 0xcd3c
5000bb30:	e3453001 	movt	r3, #20481	; 0x5001
5000bb34:	e3a02000 	mov	r2, #0
5000bb38:	e5832000 	str	r2, [r3]
5000bb3c:	e3a00003 	mov	r0, #3
5000bb40:	eb000d55 	bl	5000f09c <tty_beep>
5000bb44:	e8bd8800 	pop	{fp, pc}

5000bb48 <bridge_mark>:
5000bb48:	e92d4800 	push	{fp, lr}
5000bb4c:	e28db004 	add	fp, sp, #4
5000bb50:	e24dd068 	sub	sp, sp, #104	; 0x68
5000bb54:	e30c3d3c 	movw	r3, #52540	; 0xcd3c
5000bb58:	e3453001 	movt	r3, #20481	; 0x5001
5000bb5c:	e5933000 	ldr	r3, [r3]
5000bb60:	e3530000 	cmp	r3, #0
5000bb64:	ca000001 	bgt	5000bb70 <bridge_mark+0x28>
5000bb68:	e3a03002 	mov	r3, #2
5000bb6c:	ea0000e4 	b	5000bf04 <bridge_mark+0x3bc>
5000bb70:	e30c3d30 	movw	r3, #52528	; 0xcd30
5000bb74:	e3453001 	movt	r3, #20481	; 0x5001
5000bb78:	e1d330b0 	ldrh	r3, [r3]
5000bb7c:	e3530000 	cmp	r3, #0
5000bb80:	1a000026 	bne	5000bc20 <bridge_mark+0xd8>
5000bb84:	e3a00001 	mov	r0, #1
5000bb88:	eb000d43 	bl	5000f09c <tty_beep>
5000bb8c:	e30c3d2c 	movw	r3, #52524	; 0xcd2c
5000bb90:	e3453001 	movt	r3, #20481	; 0x5001
5000bb94:	e1d330b2 	ldrh	r3, [r3, #2]
5000bb98:	e6bfe073 	sxth	lr, r3
5000bb9c:	e30c3d2c 	movw	r3, #52524	; 0xcd2c
5000bba0:	e3453001 	movt	r3, #20481	; 0x5001
5000bba4:	e1d330b0 	ldrh	r3, [r3]
5000bba8:	e6bfc073 	sxth	ip, r3
5000bbac:	e30c3d2c 	movw	r3, #52524	; 0xcd2c
5000bbb0:	e3453001 	movt	r3, #20481	; 0x5001
5000bbb4:	e1d330b2 	ldrh	r3, [r3, #2]
5000bbb8:	e6bf1073 	sxth	r1, r3
5000bbbc:	e30c3d2c 	movw	r3, #52524	; 0xcd2c
5000bbc0:	e3453001 	movt	r3, #20481	; 0x5001
5000bbc4:	e1d330b0 	ldrh	r3, [r3]
5000bbc8:	e6bf0073 	sxth	r0, r3
5000bbcc:	e3072524 	movw	r2, #29988	; 0x7524
5000bbd0:	e3452001 	movt	r2, #20481	; 0x5001
5000bbd4:	e1a03101 	lsl	r3, r1, #2
5000bbd8:	e1a01003 	mov	r1, r3
5000bbdc:	e1a03101 	lsl	r3, r1, #2
5000bbe0:	e0613003 	rsb	r3, r1, r3
5000bbe4:	e0833000 	add	r3, r3, r0
5000bbe8:	e7923103 	ldr	r3, [r2, r3, lsl #2]
5000bbec:	e1a0000e 	mov	r0, lr
5000bbf0:	e1a0100c 	mov	r1, ip
5000bbf4:	e1a02003 	mov	r2, r3
5000bbf8:	e3a03002 	mov	r3, #2
5000bbfc:	eb000c09 	bl	5000ec28 <tty_show>
5000bc00:	e30c3d30 	movw	r3, #52528	; 0xcd30
5000bc04:	e3453001 	movt	r3, #20481	; 0x5001
5000bc08:	e30c2d2c 	movw	r2, #52524	; 0xcd2c
5000bc0c:	e3452001 	movt	r2, #20481	; 0x5001
5000bc10:	e5922000 	ldr	r2, [r2]
5000bc14:	e5832000 	str	r2, [r3]
5000bc18:	e3a03001 	mov	r3, #1
5000bc1c:	ea0000b8 	b	5000bf04 <bridge_mark+0x3bc>
5000bc20:	e30c3d30 	movw	r3, #52528	; 0xcd30
5000bc24:	e3453001 	movt	r3, #20481	; 0x5001
5000bc28:	e1d320b0 	ldrh	r2, [r3]
5000bc2c:	e30c3d2c 	movw	r3, #52524	; 0xcd2c
5000bc30:	e3453001 	movt	r3, #20481	; 0x5001
5000bc34:	e1d330b0 	ldrh	r3, [r3]
5000bc38:	e6bf2072 	sxth	r2, r2
5000bc3c:	e6bf3073 	sxth	r3, r3
5000bc40:	e1520003 	cmp	r2, r3
5000bc44:	1a000009 	bne	5000bc70 <bridge_mark+0x128>
5000bc48:	e30c3d30 	movw	r3, #52528	; 0xcd30
5000bc4c:	e3453001 	movt	r3, #20481	; 0x5001
5000bc50:	e1d320b2 	ldrh	r2, [r3, #2]
5000bc54:	e30c3d2c 	movw	r3, #52524	; 0xcd2c
5000bc58:	e3453001 	movt	r3, #20481	; 0x5001
5000bc5c:	e1d330b2 	ldrh	r3, [r3, #2]
5000bc60:	e6bf2072 	sxth	r2, r2
5000bc64:	e6bf3073 	sxth	r3, r3
5000bc68:	e1520003 	cmp	r2, r3
5000bc6c:	0a000080 	beq	5000be74 <bridge_mark+0x32c>
5000bc70:	e3070524 	movw	r0, #29988	; 0x7524
5000bc74:	e3450001 	movt	r0, #20481	; 0x5001
5000bc78:	e30c1d30 	movw	r1, #52528	; 0xcd30
5000bc7c:	e3451001 	movt	r1, #20481	; 0x5001
5000bc80:	e30c2d2c 	movw	r2, #52524	; 0xcd2c
5000bc84:	e3452001 	movt	r2, #20481	; 0x5001
5000bc88:	eb000888 	bl	5000deb0 <lian_check>
5000bc8c:	e1a03000 	mov	r3, r0
5000bc90:	e3530001 	cmp	r3, #1
5000bc94:	1a000074 	bne	5000be6c <bridge_mark+0x324>
5000bc98:	e30c3d2c 	movw	r3, #52524	; 0xcd2c
5000bc9c:	e3453001 	movt	r3, #20481	; 0x5001
5000bca0:	e1d330b2 	ldrh	r3, [r3, #2]
5000bca4:	e6bfe073 	sxth	lr, r3
5000bca8:	e30c3d2c 	movw	r3, #52524	; 0xcd2c
5000bcac:	e3453001 	movt	r3, #20481	; 0x5001
5000bcb0:	e1d330b0 	ldrh	r3, [r3]
5000bcb4:	e6bfc073 	sxth	ip, r3
5000bcb8:	e30c3d2c 	movw	r3, #52524	; 0xcd2c
5000bcbc:	e3453001 	movt	r3, #20481	; 0x5001
5000bcc0:	e1d330b2 	ldrh	r3, [r3, #2]
5000bcc4:	e6bf1073 	sxth	r1, r3
5000bcc8:	e30c3d2c 	movw	r3, #52524	; 0xcd2c
5000bccc:	e3453001 	movt	r3, #20481	; 0x5001
5000bcd0:	e1d330b0 	ldrh	r3, [r3]
5000bcd4:	e6bf0073 	sxth	r0, r3
5000bcd8:	e3072524 	movw	r2, #29988	; 0x7524
5000bcdc:	e3452001 	movt	r2, #20481	; 0x5001
5000bce0:	e1a03101 	lsl	r3, r1, #2
5000bce4:	e1a01003 	mov	r1, r3
5000bce8:	e1a03101 	lsl	r3, r1, #2
5000bcec:	e0613003 	rsb	r3, r1, r3
5000bcf0:	e0833000 	add	r3, r3, r0
5000bcf4:	e7923103 	ldr	r3, [r2, r3, lsl #2]
5000bcf8:	e1a0000e 	mov	r0, lr
5000bcfc:	e1a0100c 	mov	r1, ip
5000bd00:	e1a02003 	mov	r2, r3
5000bd04:	e3a03002 	mov	r3, #2
5000bd08:	eb000bc6 	bl	5000ec28 <tty_show>
5000bd0c:	eb00015b 	bl	5000c280 <_delete_matched>
5000bd10:	e1a02000 	mov	r2, r0
5000bd14:	e30c3d34 	movw	r3, #52532	; 0xcd34
5000bd18:	e3453001 	movt	r3, #20481	; 0x5001
5000bd1c:	e5832000 	str	r2, [r3]
5000bd20:	e30c3d34 	movw	r3, #52532	; 0xcd34
5000bd24:	e3453001 	movt	r3, #20481	; 0x5001
5000bd28:	e5933000 	ldr	r3, [r3]
5000bd2c:	e3530000 	cmp	r3, #0
5000bd30:	1a000032 	bne	5000be00 <bridge_mark+0x2b8>
5000bd34:	e30c3d38 	movw	r3, #52536	; 0xcd38
5000bd38:	e3453001 	movt	r3, #20481	; 0x5001
5000bd3c:	e5933000 	ldr	r3, [r3]
5000bd40:	e2832001 	add	r2, r3, #1
5000bd44:	e30c3d38 	movw	r3, #52536	; 0xcd38
5000bd48:	e3453001 	movt	r3, #20481	; 0x5001
5000bd4c:	e5832000 	str	r2, [r3]
5000bd50:	e30c3d38 	movw	r3, #52536	; 0xcd38
5000bd54:	e3453001 	movt	r3, #20481	; 0x5001
5000bd58:	e5933000 	ldr	r3, [r3]
5000bd5c:	e353000e 	cmp	r3, #14
5000bd60:	ca000017 	bgt	5000bdc4 <bridge_mark+0x27c>
5000bd64:	e30c3d3c 	movw	r3, #52540	; 0xcd3c
5000bd68:	e3453001 	movt	r3, #20481	; 0x5001
5000bd6c:	e5933000 	ldr	r3, [r3]
5000bd70:	e28320c8 	add	r2, r3, #200	; 0xc8
5000bd74:	e30c3d3c 	movw	r3, #52540	; 0xcd3c
5000bd78:	e3453001 	movt	r3, #20481	; 0x5001
5000bd7c:	e5832000 	str	r2, [r3]
5000bd80:	e30c3d38 	movw	r3, #52536	; 0xcd38
5000bd84:	e3453001 	movt	r3, #20481	; 0x5001
5000bd88:	e5933000 	ldr	r3, [r3]
5000bd8c:	e1a00003 	mov	r0, r3
5000bd90:	eb0000be 	bl	5000c090 <_start_level>
5000bd94:	e1a02000 	mov	r2, r0
5000bd98:	e30c3d34 	movw	r3, #52532	; 0xcd34
5000bd9c:	e3453001 	movt	r3, #20481	; 0x5001
5000bda0:	e5832000 	str	r2, [r3]
5000bda4:	e30c3d34 	movw	r3, #52532	; 0xcd34
5000bda8:	e3453001 	movt	r3, #20481	; 0x5001
5000bdac:	e5933000 	ldr	r3, [r3]
5000bdb0:	e3530000 	cmp	r3, #0
5000bdb4:	ca00002a 	bgt	5000be64 <bridge_mark+0x31c>
5000bdb8:	ebffff4f 	bl	5000bafc <bridge_exit>
5000bdbc:	e3a03000 	mov	r3, #0
5000bdc0:	ea00004f 	b	5000bf04 <bridge_mark+0x3bc>
5000bdc4:	e30c3d3c 	movw	r3, #52540	; 0xcd3c
5000bdc8:	e3453001 	movt	r3, #20481	; 0x5001
5000bdcc:	e5933000 	ldr	r3, [r3]
5000bdd0:	e24b206c 	sub	r2, fp, #108	; 0x6c
5000bdd4:	e1a00002 	mov	r0, r2
5000bdd8:	e30614d0 	movw	r1, #25808	; 0x64d0
5000bddc:	e3451001 	movt	r1, #20481	; 0x5001
5000bde0:	e1a02003 	mov	r2, r3
5000bde4:	ebffe9d9 	bl	50006550 <sprintf>
5000bde8:	e24b306c 	sub	r3, fp, #108	; 0x6c
5000bdec:	e1a00003 	mov	r0, r3
5000bdf0:	eb000c8d 	bl	5000f02c <tty_msg>
5000bdf4:	ebffff40 	bl	5000bafc <bridge_exit>
5000bdf8:	e3a03000 	mov	r3, #0
5000bdfc:	ea000040 	b	5000bf04 <bridge_mark+0x3bc>
5000be00:	e30c3d30 	movw	r3, #52528	; 0xcd30
5000be04:	e3453001 	movt	r3, #20481	; 0x5001
5000be08:	e3a02000 	mov	r2, #0
5000be0c:	e1c320b0 	strh	r2, [r3]
5000be10:	e3a03001 	mov	r3, #1
5000be14:	e50b3008 	str	r3, [fp, #-8]
5000be18:	ea000008 	b	5000be40 <bridge_mark+0x2f8>
5000be1c:	e51b0008 	ldr	r0, [fp, #-8]
5000be20:	ebfffdf1 	bl	5000b5ec <bridge_move>
5000be24:	e1a03000 	mov	r3, r0
5000be28:	e3530000 	cmp	r3, #0
5000be2c:	0a000000 	beq	5000be34 <bridge_mark+0x2ec>
5000be30:	ea000005 	b	5000be4c <bridge_mark+0x304>
5000be34:	e51b3008 	ldr	r3, [fp, #-8]
5000be38:	e2833001 	add	r3, r3, #1
5000be3c:	e50b3008 	str	r3, [fp, #-8]
5000be40:	e51b3008 	ldr	r3, [fp, #-8]
5000be44:	e3530004 	cmp	r3, #4
5000be48:	dafffff3 	ble	5000be1c <bridge_mark+0x2d4>
5000be4c:	e51b3008 	ldr	r3, [fp, #-8]
5000be50:	e3530004 	cmp	r3, #4
5000be54:	da000002 	ble	5000be64 <bridge_mark+0x31c>
5000be58:	e3a00001 	mov	r0, #1
5000be5c:	e3a01001 	mov	r1, #1
5000be60:	eb000226 	bl	5000c700 <_make_cur>
5000be64:	e3a03002 	mov	r3, #2
5000be68:	ea000025 	b	5000bf04 <bridge_mark+0x3bc>
5000be6c:	e3a03001 	mov	r3, #1
5000be70:	ea000023 	b	5000bf04 <bridge_mark+0x3bc>
5000be74:	e3a00001 	mov	r0, #1
5000be78:	eb000c87 	bl	5000f09c <tty_beep>
5000be7c:	e30c3d2c 	movw	r3, #52524	; 0xcd2c
5000be80:	e3453001 	movt	r3, #20481	; 0x5001
5000be84:	e1d330b2 	ldrh	r3, [r3, #2]
5000be88:	e6bfe073 	sxth	lr, r3
5000be8c:	e30c3d2c 	movw	r3, #52524	; 0xcd2c
5000be90:	e3453001 	movt	r3, #20481	; 0x5001
5000be94:	e1d330b0 	ldrh	r3, [r3]
5000be98:	e6bfc073 	sxth	ip, r3
5000be9c:	e30c3d2c 	movw	r3, #52524	; 0xcd2c
5000bea0:	e3453001 	movt	r3, #20481	; 0x5001
5000bea4:	e1d330b2 	ldrh	r3, [r3, #2]
5000bea8:	e6bf1073 	sxth	r1, r3
5000beac:	e30c3d2c 	movw	r3, #52524	; 0xcd2c
5000beb0:	e3453001 	movt	r3, #20481	; 0x5001
5000beb4:	e1d330b0 	ldrh	r3, [r3]
5000beb8:	e6bf0073 	sxth	r0, r3
5000bebc:	e3072524 	movw	r2, #29988	; 0x7524
5000bec0:	e3452001 	movt	r2, #20481	; 0x5001
5000bec4:	e1a03101 	lsl	r3, r1, #2
5000bec8:	e1a01003 	mov	r1, r3
5000becc:	e1a03101 	lsl	r3, r1, #2
5000bed0:	e0613003 	rsb	r3, r1, r3
5000bed4:	e0833000 	add	r3, r3, r0
5000bed8:	e7923103 	ldr	r3, [r2, r3, lsl #2]
5000bedc:	e1a0000e 	mov	r0, lr
5000bee0:	e1a0100c 	mov	r1, ip
5000bee4:	e1a02003 	mov	r2, r3
5000bee8:	e3a03001 	mov	r3, #1
5000beec:	eb000b4d 	bl	5000ec28 <tty_show>
5000bef0:	e30c3d30 	movw	r3, #52528	; 0xcd30
5000bef4:	e3453001 	movt	r3, #20481	; 0x5001
5000bef8:	e3a02000 	mov	r2, #0
5000befc:	e1c320b0 	strh	r2, [r3]
5000bf00:	e3a03002 	mov	r3, #2
5000bf04:	e1a00003 	mov	r0, r3
5000bf08:	e24bd004 	sub	sp, fp, #4
5000bf0c:	e8bd8800 	pop	{fp, pc}

5000bf10 <bridge_help>:
5000bf10:	e92d4800 	push	{fp, lr}
5000bf14:	e28db004 	add	fp, sp, #4
5000bf18:	e30c3d34 	movw	r3, #52532	; 0xcd34
5000bf1c:	e3453001 	movt	r3, #20481	; 0x5001
5000bf20:	e5933000 	ldr	r3, [r3]
5000bf24:	e3530000 	cmp	r3, #0
5000bf28:	ca000001 	bgt	5000bf34 <bridge_help+0x24>
5000bf2c:	e3a03000 	mov	r3, #0
5000bf30:	ea000054 	b	5000c088 <bridge_help+0x178>
5000bf34:	e30c3d44 	movw	r3, #52548	; 0xcd44
5000bf38:	e3453001 	movt	r3, #20481	; 0x5001
5000bf3c:	e3a02000 	mov	r2, #0
5000bf40:	e5832000 	str	r2, [r3]
5000bf44:	e30c3d34 	movw	r3, #52532	; 0xcd34
5000bf48:	e3453001 	movt	r3, #20481	; 0x5001
5000bf4c:	e5933000 	ldr	r3, [r3]
5000bf50:	e3070524 	movw	r0, #29988	; 0x7524
5000bf54:	e3450001 	movt	r0, #20481	; 0x5001
5000bf58:	e1a01003 	mov	r1, r3
5000bf5c:	eb0008c8 	bl	5000e284 <lian_left>
5000bf60:	e1a03000 	mov	r3, r0
5000bf64:	e3530000 	cmp	r3, #0
5000bf68:	1a00001a 	bne	5000bfd8 <bridge_help+0xc8>
5000bf6c:	e30c0d2c 	movw	r0, #52524	; 0xcd2c
5000bf70:	e3450001 	movt	r0, #20481	; 0x5001
5000bf74:	eb0002d1 	bl	5000cac0 <_leave>
5000bf78:	e30c2d30 	movw	r2, #52528	; 0xcd30
5000bf7c:	e3452001 	movt	r2, #20481	; 0x5001
5000bf80:	e30d372c 	movw	r3, #55084	; 0xd72c
5000bf84:	e3453001 	movt	r3, #20481	; 0x5001
5000bf88:	e1a01002 	mov	r1, r2
5000bf8c:	e1a02003 	mov	r2, r3
5000bf90:	e3a03004 	mov	r3, #4
5000bf94:	e1a00001 	mov	r0, r1
5000bf98:	e1a01002 	mov	r1, r2
5000bf9c:	e1a02003 	mov	r2, r3
5000bfa0:	ebffe54e 	bl	500054e0 <memcpy>
5000bfa4:	e30c2d2c 	movw	r2, #52524	; 0xcd2c
5000bfa8:	e3452001 	movt	r2, #20481	; 0x5001
5000bfac:	e30d372c 	movw	r3, #55084	; 0xd72c
5000bfb0:	e3453001 	movt	r3, #20481	; 0x5001
5000bfb4:	e1a01002 	mov	r1, r2
5000bfb8:	e2833004 	add	r3, r3, #4
5000bfbc:	e3a02004 	mov	r2, #4
5000bfc0:	e1a00001 	mov	r0, r1
5000bfc4:	e1a01003 	mov	r1, r3
5000bfc8:	ebffe544 	bl	500054e0 <memcpy>
5000bfcc:	ebfffedd 	bl	5000bb48 <bridge_mark>
5000bfd0:	e3a03001 	mov	r3, #1
5000bfd4:	ea00002b 	b	5000c088 <bridge_help+0x178>
5000bfd8:	e30c3d44 	movw	r3, #52548	; 0xcd44
5000bfdc:	e3453001 	movt	r3, #20481	; 0x5001
5000bfe0:	e5933000 	ldr	r3, [r3]
5000bfe4:	e3530000 	cmp	r3, #0
5000bfe8:	1a000003 	bne	5000bffc <bridge_help+0xec>
5000bfec:	e30604f0 	movw	r0, #25840	; 0x64f0
5000bff0:	e3450001 	movt	r0, #20481	; 0x5001
5000bff4:	eb000c0c 	bl	5000f02c <tty_msg>
5000bff8:	ea00001b 	b	5000c06c <bridge_help+0x15c>
5000bffc:	e3060504 	movw	r0, #25860	; 0x6504
5000c000:	e3450001 	movt	r0, #20481	; 0x5001
5000c004:	eb000c08 	bl	5000f02c <tty_msg>
5000c008:	e30c0d2c 	movw	r0, #52524	; 0xcd2c
5000c00c:	e3450001 	movt	r0, #20481	; 0x5001
5000c010:	eb0002aa 	bl	5000cac0 <_leave>
5000c014:	e30c2d30 	movw	r2, #52528	; 0xcd30
5000c018:	e3452001 	movt	r2, #20481	; 0x5001
5000c01c:	e30d372c 	movw	r3, #55084	; 0xd72c
5000c020:	e3453001 	movt	r3, #20481	; 0x5001
5000c024:	e1a01002 	mov	r1, r2
5000c028:	e1a02003 	mov	r2, r3
5000c02c:	e3a03004 	mov	r3, #4
5000c030:	e1a00001 	mov	r0, r1
5000c034:	e1a01002 	mov	r1, r2
5000c038:	e1a02003 	mov	r2, r3
5000c03c:	ebffe527 	bl	500054e0 <memcpy>
5000c040:	e30c2d2c 	movw	r2, #52524	; 0xcd2c
5000c044:	e3452001 	movt	r2, #20481	; 0x5001
5000c048:	e30d372c 	movw	r3, #55084	; 0xd72c
5000c04c:	e3453001 	movt	r3, #20481	; 0x5001
5000c050:	e1a01002 	mov	r1, r2
5000c054:	e2833004 	add	r3, r3, #4
5000c058:	e3a02004 	mov	r2, #4
5000c05c:	e1a00001 	mov	r0, r1
5000c060:	e1a01003 	mov	r1, r3
5000c064:	ebffe51d 	bl	500054e0 <memcpy>
5000c068:	ebfffeb6 	bl	5000bb48 <bridge_mark>
5000c06c:	e3a00064 	mov	r0, #100	; 0x64
5000c070:	ebffd46e 	bl	50001230 <delayQ_delay>
5000c074:	e3a00064 	mov	r0, #100	; 0x64
5000c078:	ebffd46c 	bl	50001230 <delayQ_delay>
5000c07c:	e3a00064 	mov	r0, #100	; 0x64
5000c080:	ebffd46a 	bl	50001230 <delayQ_delay>
5000c084:	e3a03000 	mov	r3, #0
5000c088:	e1a00003 	mov	r0, r3
5000c08c:	e8bd8800 	pop	{fp, pc}

5000c090 <_start_level>:
5000c090:	e92d4800 	push	{fp, lr}
5000c094:	e28db004 	add	fp, sp, #4
5000c098:	e24dd010 	sub	sp, sp, #16
5000c09c:	e50b0010 	str	r0, [fp, #-16]
5000c0a0:	e51b0010 	ldr	r0, [fp, #-16]
5000c0a4:	eb00030f 	bl	5000cce8 <lian_init>
5000c0a8:	e1a02000 	mov	r2, r0
5000c0ac:	e30c3d34 	movw	r3, #52532	; 0xcd34
5000c0b0:	e3453001 	movt	r3, #20481	; 0x5001
5000c0b4:	e5832000 	str	r2, [r3]
5000c0b8:	e30c3d34 	movw	r3, #52532	; 0xcd34
5000c0bc:	e3453001 	movt	r3, #20481	; 0x5001
5000c0c0:	e5933000 	ldr	r3, [r3]
5000c0c4:	e3530000 	cmp	r3, #0
5000c0c8:	ca000003 	bgt	5000c0dc <_start_level+0x4c>
5000c0cc:	e30c3d34 	movw	r3, #52532	; 0xcd34
5000c0d0:	e3453001 	movt	r3, #20481	; 0x5001
5000c0d4:	e5933000 	ldr	r3, [r3]
5000c0d8:	ea000065 	b	5000c274 <_start_level+0x1e4>
5000c0dc:	e30c3d30 	movw	r3, #52528	; 0xcd30
5000c0e0:	e3453001 	movt	r3, #20481	; 0x5001
5000c0e4:	e3a02000 	mov	r2, #0
5000c0e8:	e1c320b0 	strh	r2, [r3]
5000c0ec:	e30c3d2c 	movw	r3, #52524	; 0xcd2c
5000c0f0:	e3453001 	movt	r3, #20481	; 0x5001
5000c0f4:	e3a02000 	mov	r2, #0
5000c0f8:	e1c320b0 	strh	r2, [r3]
5000c0fc:	e3a03001 	mov	r3, #1
5000c100:	e50b3008 	str	r3, [fp, #-8]
5000c104:	ea000037 	b	5000c1e8 <_start_level+0x158>
5000c108:	e3a03001 	mov	r3, #1
5000c10c:	e50b300c 	str	r3, [fp, #-12]
5000c110:	ea00002e 	b	5000c1d0 <_start_level+0x140>
5000c114:	e3072524 	movw	r2, #29988	; 0x7524
5000c118:	e3452001 	movt	r2, #20481	; 0x5001
5000c11c:	e51b3008 	ldr	r3, [fp, #-8]
5000c120:	e1a01003 	mov	r1, r3
5000c124:	e1a03101 	lsl	r3, r1, #2
5000c128:	e1a01003 	mov	r1, r3
5000c12c:	e1a03101 	lsl	r3, r1, #2
5000c130:	e0613003 	rsb	r3, r1, r3
5000c134:	e51b100c 	ldr	r1, [fp, #-12]
5000c138:	e0833001 	add	r3, r3, r1
5000c13c:	e7923103 	ldr	r3, [r2, r3, lsl #2]
5000c140:	e3530000 	cmp	r3, #0
5000c144:	0a00001e 	beq	5000c1c4 <_start_level+0x134>
5000c148:	e30c3d2c 	movw	r3, #52524	; 0xcd2c
5000c14c:	e3453001 	movt	r3, #20481	; 0x5001
5000c150:	e1d330b0 	ldrh	r3, [r3]
5000c154:	e3530000 	cmp	r3, #0
5000c158:	1a000009 	bne	5000c184 <_start_level+0xf4>
5000c15c:	e51b300c 	ldr	r3, [fp, #-12]
5000c160:	e6ff2073 	uxth	r2, r3
5000c164:	e30c3d2c 	movw	r3, #52524	; 0xcd2c
5000c168:	e3453001 	movt	r3, #20481	; 0x5001
5000c16c:	e1c320b0 	strh	r2, [r3]
5000c170:	e51b3008 	ldr	r3, [fp, #-8]
5000c174:	e6ff2073 	uxth	r2, r3
5000c178:	e30c3d2c 	movw	r3, #52524	; 0xcd2c
5000c17c:	e3453001 	movt	r3, #20481	; 0x5001
5000c180:	e1c320b2 	strh	r2, [r3, #2]
5000c184:	e3072524 	movw	r2, #29988	; 0x7524
5000c188:	e3452001 	movt	r2, #20481	; 0x5001
5000c18c:	e51b3008 	ldr	r3, [fp, #-8]
5000c190:	e1a01003 	mov	r1, r3
5000c194:	e1a03101 	lsl	r3, r1, #2
5000c198:	e1a01003 	mov	r1, r3
5000c19c:	e1a03101 	lsl	r3, r1, #2
5000c1a0:	e0613003 	rsb	r3, r1, r3
5000c1a4:	e51b100c 	ldr	r1, [fp, #-12]
5000c1a8:	e0833001 	add	r3, r3, r1
5000c1ac:	e7923103 	ldr	r3, [r2, r3, lsl #2]
5000c1b0:	e51b0008 	ldr	r0, [fp, #-8]
5000c1b4:	e51b100c 	ldr	r1, [fp, #-12]
5000c1b8:	e1a02003 	mov	r2, r3
5000c1bc:	e3a03000 	mov	r3, #0
5000c1c0:	eb000a98 	bl	5000ec28 <tty_show>
5000c1c4:	e51b300c 	ldr	r3, [fp, #-12]
5000c1c8:	e2833001 	add	r3, r3, #1
5000c1cc:	e50b300c 	str	r3, [fp, #-12]
5000c1d0:	e51b300c 	ldr	r3, [fp, #-12]
5000c1d4:	e353000a 	cmp	r3, #10
5000c1d8:	daffffcd 	ble	5000c114 <_start_level+0x84>
5000c1dc:	e51b3008 	ldr	r3, [fp, #-8]
5000c1e0:	e2833001 	add	r3, r3, #1
5000c1e4:	e50b3008 	str	r3, [fp, #-8]
5000c1e8:	e51b3008 	ldr	r3, [fp, #-8]
5000c1ec:	e353000a 	cmp	r3, #10
5000c1f0:	daffffc4 	ble	5000c108 <_start_level+0x78>
5000c1f4:	e30c3d2c 	movw	r3, #52524	; 0xcd2c
5000c1f8:	e3453001 	movt	r3, #20481	; 0x5001
5000c1fc:	e1d330b2 	ldrh	r3, [r3, #2]
5000c200:	e6bfe073 	sxth	lr, r3
5000c204:	e30c3d2c 	movw	r3, #52524	; 0xcd2c
5000c208:	e3453001 	movt	r3, #20481	; 0x5001
5000c20c:	e1d330b0 	ldrh	r3, [r3]
5000c210:	e6bfc073 	sxth	ip, r3
5000c214:	e30c3d2c 	movw	r3, #52524	; 0xcd2c
5000c218:	e3453001 	movt	r3, #20481	; 0x5001
5000c21c:	e1d330b2 	ldrh	r3, [r3, #2]
5000c220:	e6bf1073 	sxth	r1, r3
5000c224:	e30c3d2c 	movw	r3, #52524	; 0xcd2c
5000c228:	e3453001 	movt	r3, #20481	; 0x5001
5000c22c:	e1d330b0 	ldrh	r3, [r3]
5000c230:	e6bf0073 	sxth	r0, r3
5000c234:	e3072524 	movw	r2, #29988	; 0x7524
5000c238:	e3452001 	movt	r2, #20481	; 0x5001
5000c23c:	e1a03101 	lsl	r3, r1, #2
5000c240:	e1a01003 	mov	r1, r3
5000c244:	e1a03101 	lsl	r3, r1, #2
5000c248:	e0613003 	rsb	r3, r1, r3
5000c24c:	e0833000 	add	r3, r3, r0
5000c250:	e7923103 	ldr	r3, [r2, r3, lsl #2]
5000c254:	e1a0000e 	mov	r0, lr
5000c258:	e1a0100c 	mov	r1, ip
5000c25c:	e1a02003 	mov	r2, r3
5000c260:	e3a03001 	mov	r3, #1
5000c264:	eb000a6f 	bl	5000ec28 <tty_show>
5000c268:	e30c3d34 	movw	r3, #52532	; 0xcd34
5000c26c:	e3453001 	movt	r3, #20481	; 0x5001
5000c270:	e5933000 	ldr	r3, [r3]
5000c274:	e1a00003 	mov	r0, r3
5000c278:	e24bd004 	sub	sp, fp, #4
5000c27c:	e8bd8800 	pop	{fp, pc}

5000c280 <_delete_matched>:
5000c280:	e92d4830 	push	{r4, r5, fp, lr}
5000c284:	e28db00c 	add	fp, sp, #12
5000c288:	e24dd010 	sub	sp, sp, #16
5000c28c:	e3a03000 	mov	r3, #0
5000c290:	e50b3010 	str	r3, [fp, #-16]
5000c294:	ea000036 	b	5000c374 <_delete_matched+0xf4>
5000c298:	e30d38bc 	movw	r3, #55484	; 0xd8bc
5000c29c:	e3453001 	movt	r3, #20481	; 0x5001
5000c2a0:	e51b2010 	ldr	r2, [fp, #-16]
5000c2a4:	e1a02102 	lsl	r2, r2, #2
5000c2a8:	e0833002 	add	r3, r3, r2
5000c2ac:	e1d330b2 	ldrh	r3, [r3, #2]
5000c2b0:	e6bf5073 	sxth	r5, r3
5000c2b4:	e30d38bc 	movw	r3, #55484	; 0xd8bc
5000c2b8:	e3453001 	movt	r3, #20481	; 0x5001
5000c2bc:	e51b2010 	ldr	r2, [fp, #-16]
5000c2c0:	e1a02102 	lsl	r2, r2, #2
5000c2c4:	e0833002 	add	r3, r3, r2
5000c2c8:	e1d330b0 	ldrh	r3, [r3]
5000c2cc:	e6bf4073 	sxth	r4, r3
5000c2d0:	e51b3010 	ldr	r3, [fp, #-16]
5000c2d4:	e2832001 	add	r2, r3, #1
5000c2d8:	e30d38bc 	movw	r3, #55484	; 0xd8bc
5000c2dc:	e3453001 	movt	r3, #20481	; 0x5001
5000c2e0:	e1a02102 	lsl	r2, r2, #2
5000c2e4:	e0833002 	add	r3, r3, r2
5000c2e8:	e1d330b2 	ldrh	r3, [r3, #2]
5000c2ec:	e6bfe073 	sxth	lr, r3
5000c2f0:	e51b3010 	ldr	r3, [fp, #-16]
5000c2f4:	e2832001 	add	r2, r3, #1
5000c2f8:	e30d38bc 	movw	r3, #55484	; 0xd8bc
5000c2fc:	e3453001 	movt	r3, #20481	; 0x5001
5000c300:	e1a02102 	lsl	r2, r2, #2
5000c304:	e0833002 	add	r3, r3, r2
5000c308:	e1d330b0 	ldrh	r3, [r3]
5000c30c:	e6bfc073 	sxth	ip, r3
5000c310:	e30c3d2c 	movw	r3, #52524	; 0xcd2c
5000c314:	e3453001 	movt	r3, #20481	; 0x5001
5000c318:	e1d330b2 	ldrh	r3, [r3, #2]
5000c31c:	e6bf1073 	sxth	r1, r3
5000c320:	e30c3d2c 	movw	r3, #52524	; 0xcd2c
5000c324:	e3453001 	movt	r3, #20481	; 0x5001
5000c328:	e1d330b0 	ldrh	r3, [r3]
5000c32c:	e6bf0073 	sxth	r0, r3
5000c330:	e3072524 	movw	r2, #29988	; 0x7524
5000c334:	e3452001 	movt	r2, #20481	; 0x5001
5000c338:	e1a03101 	lsl	r3, r1, #2
5000c33c:	e1a01003 	mov	r1, r3
5000c340:	e1a03101 	lsl	r3, r1, #2
5000c344:	e0613003 	rsb	r3, r1, r3
5000c348:	e0833000 	add	r3, r3, r0
5000c34c:	e7923103 	ldr	r3, [r2, r3, lsl #2]
5000c350:	e58d3000 	str	r3, [sp]
5000c354:	e1a00005 	mov	r0, r5
5000c358:	e1a01004 	mov	r1, r4
5000c35c:	e1a0200e 	mov	r2, lr
5000c360:	e1a0300c 	mov	r3, ip
5000c364:	eb000aab 	bl	5000ee18 <tty_line>
5000c368:	e51b3010 	ldr	r3, [fp, #-16]
5000c36c:	e2833001 	add	r3, r3, #1
5000c370:	e50b3010 	str	r3, [fp, #-16]
5000c374:	e30c3d40 	movw	r3, #52544	; 0xcd40
5000c378:	e3453001 	movt	r3, #20481	; 0x5001
5000c37c:	e5933000 	ldr	r3, [r3]
5000c380:	e2432001 	sub	r2, r3, #1
5000c384:	e51b3010 	ldr	r3, [fp, #-16]
5000c388:	e1520003 	cmp	r2, r3
5000c38c:	caffffc1 	bgt	5000c298 <_delete_matched+0x18>
5000c390:	e3a00001 	mov	r0, #1
5000c394:	eb000b40 	bl	5000f09c <tty_beep>
5000c398:	e30806a0 	movw	r0, #34464	; 0x86a0
5000c39c:	e3400001 	movt	r0, #1
5000c3a0:	eb000211 	bl	5000cbec <_delay>
5000c3a4:	e30c3d2c 	movw	r3, #52524	; 0xcd2c
5000c3a8:	e3453001 	movt	r3, #20481	; 0x5001
5000c3ac:	e1d330b2 	ldrh	r3, [r3, #2]
5000c3b0:	e6bf2073 	sxth	r2, r3
5000c3b4:	e30c3d2c 	movw	r3, #52524	; 0xcd2c
5000c3b8:	e3453001 	movt	r3, #20481	; 0x5001
5000c3bc:	e1d330b0 	ldrh	r3, [r3]
5000c3c0:	e6bf3073 	sxth	r3, r3
5000c3c4:	e1a00002 	mov	r0, r2
5000c3c8:	e1a01003 	mov	r1, r3
5000c3cc:	e3a02000 	mov	r2, #0
5000c3d0:	e3a03000 	mov	r3, #0
5000c3d4:	eb000a13 	bl	5000ec28 <tty_show>
5000c3d8:	e30c3d30 	movw	r3, #52528	; 0xcd30
5000c3dc:	e3453001 	movt	r3, #20481	; 0x5001
5000c3e0:	e1d330b2 	ldrh	r3, [r3, #2]
5000c3e4:	e6bf2073 	sxth	r2, r3
5000c3e8:	e30c3d30 	movw	r3, #52528	; 0xcd30
5000c3ec:	e3453001 	movt	r3, #20481	; 0x5001
5000c3f0:	e1d330b0 	ldrh	r3, [r3]
5000c3f4:	e6bf3073 	sxth	r3, r3
5000c3f8:	e1a00002 	mov	r0, r2
5000c3fc:	e1a01003 	mov	r1, r3
5000c400:	e3a02000 	mov	r2, #0
5000c404:	e3a03000 	mov	r3, #0
5000c408:	eb000a06 	bl	5000ec28 <tty_show>
5000c40c:	e3a00001 	mov	r0, #1
5000c410:	eb000b21 	bl	5000f09c <tty_beep>
5000c414:	e30806a0 	movw	r0, #34464	; 0x86a0
5000c418:	e3400001 	movt	r0, #1
5000c41c:	eb0001f2 	bl	5000cbec <_delay>
5000c420:	e30c3d2c 	movw	r3, #52524	; 0xcd2c
5000c424:	e3453001 	movt	r3, #20481	; 0x5001
5000c428:	e1d330b2 	ldrh	r3, [r3, #2]
5000c42c:	e6bfe073 	sxth	lr, r3
5000c430:	e30c3d2c 	movw	r3, #52524	; 0xcd2c
5000c434:	e3453001 	movt	r3, #20481	; 0x5001
5000c438:	e1d330b0 	ldrh	r3, [r3]
5000c43c:	e6bfc073 	sxth	ip, r3
5000c440:	e30c3d2c 	movw	r3, #52524	; 0xcd2c
5000c444:	e3453001 	movt	r3, #20481	; 0x5001
5000c448:	e1d330b2 	ldrh	r3, [r3, #2]
5000c44c:	e6bf1073 	sxth	r1, r3
5000c450:	e30c3d2c 	movw	r3, #52524	; 0xcd2c
5000c454:	e3453001 	movt	r3, #20481	; 0x5001
5000c458:	e1d330b0 	ldrh	r3, [r3]
5000c45c:	e6bf0073 	sxth	r0, r3
5000c460:	e3072524 	movw	r2, #29988	; 0x7524
5000c464:	e3452001 	movt	r2, #20481	; 0x5001
5000c468:	e1a03101 	lsl	r3, r1, #2
5000c46c:	e1a01003 	mov	r1, r3
5000c470:	e1a03101 	lsl	r3, r1, #2
5000c474:	e0613003 	rsb	r3, r1, r3
5000c478:	e0833000 	add	r3, r3, r0
5000c47c:	e7923103 	ldr	r3, [r2, r3, lsl #2]
5000c480:	e1a0000e 	mov	r0, lr
5000c484:	e1a0100c 	mov	r1, ip
5000c488:	e1a02003 	mov	r2, r3
5000c48c:	e3a03002 	mov	r3, #2
5000c490:	eb0009e4 	bl	5000ec28 <tty_show>
5000c494:	e30c3d30 	movw	r3, #52528	; 0xcd30
5000c498:	e3453001 	movt	r3, #20481	; 0x5001
5000c49c:	e1d330b2 	ldrh	r3, [r3, #2]
5000c4a0:	e6bfe073 	sxth	lr, r3
5000c4a4:	e30c3d30 	movw	r3, #52528	; 0xcd30
5000c4a8:	e3453001 	movt	r3, #20481	; 0x5001
5000c4ac:	e1d330b0 	ldrh	r3, [r3]
5000c4b0:	e6bfc073 	sxth	ip, r3
5000c4b4:	e30c3d30 	movw	r3, #52528	; 0xcd30
5000c4b8:	e3453001 	movt	r3, #20481	; 0x5001
5000c4bc:	e1d330b2 	ldrh	r3, [r3, #2]
5000c4c0:	e6bf1073 	sxth	r1, r3
5000c4c4:	e30c3d30 	movw	r3, #52528	; 0xcd30
5000c4c8:	e3453001 	movt	r3, #20481	; 0x5001
5000c4cc:	e1d330b0 	ldrh	r3, [r3]
5000c4d0:	e6bf0073 	sxth	r0, r3
5000c4d4:	e3072524 	movw	r2, #29988	; 0x7524
5000c4d8:	e3452001 	movt	r2, #20481	; 0x5001
5000c4dc:	e1a03101 	lsl	r3, r1, #2
5000c4e0:	e1a01003 	mov	r1, r3
5000c4e4:	e1a03101 	lsl	r3, r1, #2
5000c4e8:	e0613003 	rsb	r3, r1, r3
5000c4ec:	e0833000 	add	r3, r3, r0
5000c4f0:	e7923103 	ldr	r3, [r2, r3, lsl #2]
5000c4f4:	e1a0000e 	mov	r0, lr
5000c4f8:	e1a0100c 	mov	r1, ip
5000c4fc:	e1a02003 	mov	r2, r3
5000c500:	e3a03002 	mov	r3, #2
5000c504:	eb0009c7 	bl	5000ec28 <tty_show>
5000c508:	e3a00001 	mov	r0, #1
5000c50c:	eb000ae2 	bl	5000f09c <tty_beep>
5000c510:	e30806a0 	movw	r0, #34464	; 0x86a0
5000c514:	e3400001 	movt	r0, #1
5000c518:	eb0001b3 	bl	5000cbec <_delay>
5000c51c:	e30c3d2c 	movw	r3, #52524	; 0xcd2c
5000c520:	e3453001 	movt	r3, #20481	; 0x5001
5000c524:	e1d330b2 	ldrh	r3, [r3, #2]
5000c528:	e6bf2073 	sxth	r2, r3
5000c52c:	e30c3d2c 	movw	r3, #52524	; 0xcd2c
5000c530:	e3453001 	movt	r3, #20481	; 0x5001
5000c534:	e1d330b0 	ldrh	r3, [r3]
5000c538:	e6bf3073 	sxth	r3, r3
5000c53c:	e1a00002 	mov	r0, r2
5000c540:	e1a01003 	mov	r1, r3
5000c544:	e3a02000 	mov	r2, #0
5000c548:	e3a03000 	mov	r3, #0
5000c54c:	eb0009b5 	bl	5000ec28 <tty_show>
5000c550:	e30c3d30 	movw	r3, #52528	; 0xcd30
5000c554:	e3453001 	movt	r3, #20481	; 0x5001
5000c558:	e1d330b2 	ldrh	r3, [r3, #2]
5000c55c:	e6bf2073 	sxth	r2, r3
5000c560:	e30c3d30 	movw	r3, #52528	; 0xcd30
5000c564:	e3453001 	movt	r3, #20481	; 0x5001
5000c568:	e1d330b0 	ldrh	r3, [r3]
5000c56c:	e6bf3073 	sxth	r3, r3
5000c570:	e1a00002 	mov	r0, r2
5000c574:	e1a01003 	mov	r1, r3
5000c578:	e3a02000 	mov	r2, #0
5000c57c:	e3a03000 	mov	r3, #0
5000c580:	eb0009a8 	bl	5000ec28 <tty_show>
5000c584:	e3a03000 	mov	r3, #0
5000c588:	e50b3010 	str	r3, [fp, #-16]
5000c58c:	ea000025 	b	5000c628 <_delete_matched+0x3a8>
5000c590:	e30d38bc 	movw	r3, #55484	; 0xd8bc
5000c594:	e3453001 	movt	r3, #20481	; 0x5001
5000c598:	e51b2010 	ldr	r2, [fp, #-16]
5000c59c:	e1a02102 	lsl	r2, r2, #2
5000c5a0:	e0833002 	add	r3, r3, r2
5000c5a4:	e1d330b2 	ldrh	r3, [r3, #2]
5000c5a8:	e6bf0073 	sxth	r0, r3
5000c5ac:	e30d38bc 	movw	r3, #55484	; 0xd8bc
5000c5b0:	e3453001 	movt	r3, #20481	; 0x5001
5000c5b4:	e51b2010 	ldr	r2, [fp, #-16]
5000c5b8:	e1a02102 	lsl	r2, r2, #2
5000c5bc:	e0833002 	add	r3, r3, r2
5000c5c0:	e1d330b0 	ldrh	r3, [r3]
5000c5c4:	e6bf1073 	sxth	r1, r3
5000c5c8:	e51b3010 	ldr	r3, [fp, #-16]
5000c5cc:	e2832001 	add	r2, r3, #1
5000c5d0:	e30d38bc 	movw	r3, #55484	; 0xd8bc
5000c5d4:	e3453001 	movt	r3, #20481	; 0x5001
5000c5d8:	e1a02102 	lsl	r2, r2, #2
5000c5dc:	e0833002 	add	r3, r3, r2
5000c5e0:	e1d330b2 	ldrh	r3, [r3, #2]
5000c5e4:	e6bfe073 	sxth	lr, r3
5000c5e8:	e51b3010 	ldr	r3, [fp, #-16]
5000c5ec:	e2832001 	add	r2, r3, #1
5000c5f0:	e30d38bc 	movw	r3, #55484	; 0xd8bc
5000c5f4:	e3453001 	movt	r3, #20481	; 0x5001
5000c5f8:	e1a02102 	lsl	r2, r2, #2
5000c5fc:	e0833002 	add	r3, r3, r2
5000c600:	e1d330b0 	ldrh	r3, [r3]
5000c604:	e6bfc073 	sxth	ip, r3
5000c608:	e3a03000 	mov	r3, #0
5000c60c:	e58d3000 	str	r3, [sp]
5000c610:	e1a0200e 	mov	r2, lr
5000c614:	e1a0300c 	mov	r3, ip
5000c618:	eb0009fe 	bl	5000ee18 <tty_line>
5000c61c:	e51b3010 	ldr	r3, [fp, #-16]
5000c620:	e2833001 	add	r3, r3, #1
5000c624:	e50b3010 	str	r3, [fp, #-16]
5000c628:	e30c3d40 	movw	r3, #52544	; 0xcd40
5000c62c:	e3453001 	movt	r3, #20481	; 0x5001
5000c630:	e5933000 	ldr	r3, [r3]
5000c634:	e2432001 	sub	r2, r3, #1
5000c638:	e51b3010 	ldr	r3, [fp, #-16]
5000c63c:	e1520003 	cmp	r2, r3
5000c640:	caffffd2 	bgt	5000c590 <_delete_matched+0x310>
5000c644:	e30c3d2c 	movw	r3, #52524	; 0xcd2c
5000c648:	e3453001 	movt	r3, #20481	; 0x5001
5000c64c:	e1d330b2 	ldrh	r3, [r3, #2]
5000c650:	e6bf1073 	sxth	r1, r3
5000c654:	e30c3d2c 	movw	r3, #52524	; 0xcd2c
5000c658:	e3453001 	movt	r3, #20481	; 0x5001
5000c65c:	e1d330b0 	ldrh	r3, [r3]
5000c660:	e6bf0073 	sxth	r0, r3
5000c664:	e3072524 	movw	r2, #29988	; 0x7524
5000c668:	e3452001 	movt	r2, #20481	; 0x5001
5000c66c:	e1a03101 	lsl	r3, r1, #2
5000c670:	e1a01003 	mov	r1, r3
5000c674:	e1a03101 	lsl	r3, r1, #2
5000c678:	e0613003 	rsb	r3, r1, r3
5000c67c:	e0833000 	add	r3, r3, r0
5000c680:	e3a01000 	mov	r1, #0
5000c684:	e7821103 	str	r1, [r2, r3, lsl #2]
5000c688:	e30c3d30 	movw	r3, #52528	; 0xcd30
5000c68c:	e3453001 	movt	r3, #20481	; 0x5001
5000c690:	e1d330b2 	ldrh	r3, [r3, #2]
5000c694:	e6bf1073 	sxth	r1, r3
5000c698:	e30c3d30 	movw	r3, #52528	; 0xcd30
5000c69c:	e3453001 	movt	r3, #20481	; 0x5001
5000c6a0:	e1d330b0 	ldrh	r3, [r3]
5000c6a4:	e6bf0073 	sxth	r0, r3
5000c6a8:	e3072524 	movw	r2, #29988	; 0x7524
5000c6ac:	e3452001 	movt	r2, #20481	; 0x5001
5000c6b0:	e1a03101 	lsl	r3, r1, #2
5000c6b4:	e1a01003 	mov	r1, r3
5000c6b8:	e1a03101 	lsl	r3, r1, #2
5000c6bc:	e0613003 	rsb	r3, r1, r3
5000c6c0:	e0833000 	add	r3, r3, r0
5000c6c4:	e3a01000 	mov	r1, #0
5000c6c8:	e7821103 	str	r1, [r2, r3, lsl #2]
5000c6cc:	e30c3d34 	movw	r3, #52532	; 0xcd34
5000c6d0:	e3453001 	movt	r3, #20481	; 0x5001
5000c6d4:	e5933000 	ldr	r3, [r3]
5000c6d8:	e2432002 	sub	r2, r3, #2
5000c6dc:	e30c3d34 	movw	r3, #52532	; 0xcd34
5000c6e0:	e3453001 	movt	r3, #20481	; 0x5001
5000c6e4:	e5832000 	str	r2, [r3]
5000c6e8:	e30c3d34 	movw	r3, #52532	; 0xcd34
5000c6ec:	e3453001 	movt	r3, #20481	; 0x5001
5000c6f0:	e5933000 	ldr	r3, [r3]
5000c6f4:	e1a00003 	mov	r0, r3
5000c6f8:	e24bd00c 	sub	sp, fp, #12
5000c6fc:	e8bd8830 	pop	{r4, r5, fp, pc}

5000c700 <_make_cur>:
5000c700:	e92d4800 	push	{fp, lr}
5000c704:	e28db004 	add	fp, sp, #4
5000c708:	e24dd010 	sub	sp, sp, #16
5000c70c:	e50b0010 	str	r0, [fp, #-16]
5000c710:	e50b1014 	str	r1, [fp, #-20]
5000c714:	e51b3010 	ldr	r3, [fp, #-16]
5000c718:	e50b3008 	str	r3, [fp, #-8]
5000c71c:	e51b3014 	ldr	r3, [fp, #-20]
5000c720:	e50b300c 	str	r3, [fp, #-12]
5000c724:	ea00002d 	b	5000c7e0 <_make_cur+0xe0>
5000c728:	e3072524 	movw	r2, #29988	; 0x7524
5000c72c:	e3452001 	movt	r2, #20481	; 0x5001
5000c730:	e51b3008 	ldr	r3, [fp, #-8]
5000c734:	e1a01003 	mov	r1, r3
5000c738:	e1a03101 	lsl	r3, r1, #2
5000c73c:	e1a01003 	mov	r1, r3
5000c740:	e1a03101 	lsl	r3, r1, #2
5000c744:	e0613003 	rsb	r3, r1, r3
5000c748:	e51b100c 	ldr	r1, [fp, #-12]
5000c74c:	e0833001 	add	r3, r3, r1
5000c750:	e7923103 	ldr	r3, [r2, r3, lsl #2]
5000c754:	e3530000 	cmp	r3, #0
5000c758:	0a00001d 	beq	5000c7d4 <_make_cur+0xd4>
5000c75c:	e30c0d2c 	movw	r0, #52524	; 0xcd2c
5000c760:	e3450001 	movt	r0, #20481	; 0x5001
5000c764:	eb0000d5 	bl	5000cac0 <_leave>
5000c768:	e51b300c 	ldr	r3, [fp, #-12]
5000c76c:	e6ff2073 	uxth	r2, r3
5000c770:	e30c3d2c 	movw	r3, #52524	; 0xcd2c
5000c774:	e3453001 	movt	r3, #20481	; 0x5001
5000c778:	e1c320b0 	strh	r2, [r3]
5000c77c:	e51b3008 	ldr	r3, [fp, #-8]
5000c780:	e6ff2073 	uxth	r2, r3
5000c784:	e30c3d2c 	movw	r3, #52524	; 0xcd2c
5000c788:	e3453001 	movt	r3, #20481	; 0x5001
5000c78c:	e1c320b2 	strh	r2, [r3, #2]
5000c790:	e3072524 	movw	r2, #29988	; 0x7524
5000c794:	e3452001 	movt	r2, #20481	; 0x5001
5000c798:	e51b3008 	ldr	r3, [fp, #-8]
5000c79c:	e1a01003 	mov	r1, r3
5000c7a0:	e1a03101 	lsl	r3, r1, #2
5000c7a4:	e1a01003 	mov	r1, r3
5000c7a8:	e1a03101 	lsl	r3, r1, #2
5000c7ac:	e0613003 	rsb	r3, r1, r3
5000c7b0:	e51b100c 	ldr	r1, [fp, #-12]
5000c7b4:	e0833001 	add	r3, r3, r1
5000c7b8:	e7923103 	ldr	r3, [r2, r3, lsl #2]
5000c7bc:	e51b0008 	ldr	r0, [fp, #-8]
5000c7c0:	e51b100c 	ldr	r1, [fp, #-12]
5000c7c4:	e1a02003 	mov	r2, r3
5000c7c8:	e3a03001 	mov	r3, #1
5000c7cc:	eb000915 	bl	5000ec28 <tty_show>
5000c7d0:	ea0000b8 	b	5000cab8 <_make_cur+0x3b8>
5000c7d4:	e51b300c 	ldr	r3, [fp, #-12]
5000c7d8:	e2833001 	add	r3, r3, #1
5000c7dc:	e50b300c 	str	r3, [fp, #-12]
5000c7e0:	e51b300c 	ldr	r3, [fp, #-12]
5000c7e4:	e353000a 	cmp	r3, #10
5000c7e8:	daffffce 	ble	5000c728 <_make_cur+0x28>
5000c7ec:	e51b3010 	ldr	r3, [fp, #-16]
5000c7f0:	e2833001 	add	r3, r3, #1
5000c7f4:	e50b3008 	str	r3, [fp, #-8]
5000c7f8:	ea000036 	b	5000c8d8 <_make_cur+0x1d8>
5000c7fc:	e3a03001 	mov	r3, #1
5000c800:	e50b300c 	str	r3, [fp, #-12]
5000c804:	ea00002d 	b	5000c8c0 <_make_cur+0x1c0>
5000c808:	e3072524 	movw	r2, #29988	; 0x7524
5000c80c:	e3452001 	movt	r2, #20481	; 0x5001
5000c810:	e51b3008 	ldr	r3, [fp, #-8]
5000c814:	e1a01003 	mov	r1, r3
5000c818:	e1a03101 	lsl	r3, r1, #2
5000c81c:	e1a01003 	mov	r1, r3
5000c820:	e1a03101 	lsl	r3, r1, #2
5000c824:	e0613003 	rsb	r3, r1, r3
5000c828:	e51b100c 	ldr	r1, [fp, #-12]
5000c82c:	e0833001 	add	r3, r3, r1
5000c830:	e7923103 	ldr	r3, [r2, r3, lsl #2]
5000c834:	e3530000 	cmp	r3, #0
5000c838:	0a00001d 	beq	5000c8b4 <_make_cur+0x1b4>
5000c83c:	e30c0d2c 	movw	r0, #52524	; 0xcd2c
5000c840:	e3450001 	movt	r0, #20481	; 0x5001
5000c844:	eb00009d 	bl	5000cac0 <_leave>
5000c848:	e51b300c 	ldr	r3, [fp, #-12]
5000c84c:	e6ff2073 	uxth	r2, r3
5000c850:	e30c3d2c 	movw	r3, #52524	; 0xcd2c
5000c854:	e3453001 	movt	r3, #20481	; 0x5001
5000c858:	e1c320b0 	strh	r2, [r3]
5000c85c:	e51b3008 	ldr	r3, [fp, #-8]
5000c860:	e6ff2073 	uxth	r2, r3
5000c864:	e30c3d2c 	movw	r3, #52524	; 0xcd2c
5000c868:	e3453001 	movt	r3, #20481	; 0x5001
5000c86c:	e1c320b2 	strh	r2, [r3, #2]
5000c870:	e3072524 	movw	r2, #29988	; 0x7524
5000c874:	e3452001 	movt	r2, #20481	; 0x5001
5000c878:	e51b3008 	ldr	r3, [fp, #-8]
5000c87c:	e1a01003 	mov	r1, r3
5000c880:	e1a03101 	lsl	r3, r1, #2
5000c884:	e1a01003 	mov	r1, r3
5000c888:	e1a03101 	lsl	r3, r1, #2
5000c88c:	e0613003 	rsb	r3, r1, r3
5000c890:	e51b100c 	ldr	r1, [fp, #-12]
5000c894:	e0833001 	add	r3, r3, r1
5000c898:	e7923103 	ldr	r3, [r2, r3, lsl #2]
5000c89c:	e51b0008 	ldr	r0, [fp, #-8]
5000c8a0:	e51b100c 	ldr	r1, [fp, #-12]
5000c8a4:	e1a02003 	mov	r2, r3
5000c8a8:	e3a03001 	mov	r3, #1
5000c8ac:	eb0008dd 	bl	5000ec28 <tty_show>
5000c8b0:	ea000080 	b	5000cab8 <_make_cur+0x3b8>
5000c8b4:	e51b300c 	ldr	r3, [fp, #-12]
5000c8b8:	e2833001 	add	r3, r3, #1
5000c8bc:	e50b300c 	str	r3, [fp, #-12]
5000c8c0:	e51b300c 	ldr	r3, [fp, #-12]
5000c8c4:	e353000a 	cmp	r3, #10
5000c8c8:	daffffce 	ble	5000c808 <_make_cur+0x108>
5000c8cc:	e51b3008 	ldr	r3, [fp, #-8]
5000c8d0:	e2833001 	add	r3, r3, #1
5000c8d4:	e50b3008 	str	r3, [fp, #-8]
5000c8d8:	e51b3008 	ldr	r3, [fp, #-8]
5000c8dc:	e353000a 	cmp	r3, #10
5000c8e0:	daffffc5 	ble	5000c7fc <_make_cur+0xfc>
5000c8e4:	e3a03001 	mov	r3, #1
5000c8e8:	e50b3008 	str	r3, [fp, #-8]
5000c8ec:	ea000036 	b	5000c9cc <_make_cur+0x2cc>
5000c8f0:	e3a03001 	mov	r3, #1
5000c8f4:	e50b300c 	str	r3, [fp, #-12]
5000c8f8:	ea00002d 	b	5000c9b4 <_make_cur+0x2b4>
5000c8fc:	e3072524 	movw	r2, #29988	; 0x7524
5000c900:	e3452001 	movt	r2, #20481	; 0x5001
5000c904:	e51b3008 	ldr	r3, [fp, #-8]
5000c908:	e1a01003 	mov	r1, r3
5000c90c:	e1a03101 	lsl	r3, r1, #2
5000c910:	e1a01003 	mov	r1, r3
5000c914:	e1a03101 	lsl	r3, r1, #2
5000c918:	e0613003 	rsb	r3, r1, r3
5000c91c:	e51b100c 	ldr	r1, [fp, #-12]
5000c920:	e0833001 	add	r3, r3, r1
5000c924:	e7923103 	ldr	r3, [r2, r3, lsl #2]
5000c928:	e3530000 	cmp	r3, #0
5000c92c:	0a00001d 	beq	5000c9a8 <_make_cur+0x2a8>
5000c930:	e30c0d2c 	movw	r0, #52524	; 0xcd2c
5000c934:	e3450001 	movt	r0, #20481	; 0x5001
5000c938:	eb000060 	bl	5000cac0 <_leave>
5000c93c:	e51b300c 	ldr	r3, [fp, #-12]
5000c940:	e6ff2073 	uxth	r2, r3
5000c944:	e30c3d2c 	movw	r3, #52524	; 0xcd2c
5000c948:	e3453001 	movt	r3, #20481	; 0x5001
5000c94c:	e1c320b0 	strh	r2, [r3]
5000c950:	e51b3008 	ldr	r3, [fp, #-8]
5000c954:	e6ff2073 	uxth	r2, r3
5000c958:	e30c3d2c 	movw	r3, #52524	; 0xcd2c
5000c95c:	e3453001 	movt	r3, #20481	; 0x5001
5000c960:	e1c320b2 	strh	r2, [r3, #2]
5000c964:	e3072524 	movw	r2, #29988	; 0x7524
5000c968:	e3452001 	movt	r2, #20481	; 0x5001
5000c96c:	e51b3008 	ldr	r3, [fp, #-8]
5000c970:	e1a01003 	mov	r1, r3
5000c974:	e1a03101 	lsl	r3, r1, #2
5000c978:	e1a01003 	mov	r1, r3
5000c97c:	e1a03101 	lsl	r3, r1, #2
5000c980:	e0613003 	rsb	r3, r1, r3
5000c984:	e51b100c 	ldr	r1, [fp, #-12]
5000c988:	e0833001 	add	r3, r3, r1
5000c98c:	e7923103 	ldr	r3, [r2, r3, lsl #2]
5000c990:	e51b0008 	ldr	r0, [fp, #-8]
5000c994:	e51b100c 	ldr	r1, [fp, #-12]
5000c998:	e1a02003 	mov	r2, r3
5000c99c:	e3a03001 	mov	r3, #1
5000c9a0:	eb0008a0 	bl	5000ec28 <tty_show>
5000c9a4:	ea000043 	b	5000cab8 <_make_cur+0x3b8>
5000c9a8:	e51b300c 	ldr	r3, [fp, #-12]
5000c9ac:	e2833001 	add	r3, r3, #1
5000c9b0:	e50b300c 	str	r3, [fp, #-12]
5000c9b4:	e51b300c 	ldr	r3, [fp, #-12]
5000c9b8:	e353000a 	cmp	r3, #10
5000c9bc:	daffffce 	ble	5000c8fc <_make_cur+0x1fc>
5000c9c0:	e51b3008 	ldr	r3, [fp, #-8]
5000c9c4:	e2833001 	add	r3, r3, #1
5000c9c8:	e50b3008 	str	r3, [fp, #-8]
5000c9cc:	e51b2008 	ldr	r2, [fp, #-8]
5000c9d0:	e51b3010 	ldr	r3, [fp, #-16]
5000c9d4:	e1520003 	cmp	r2, r3
5000c9d8:	baffffc4 	blt	5000c8f0 <_make_cur+0x1f0>
5000c9dc:	e51b3010 	ldr	r3, [fp, #-16]
5000c9e0:	e50b3008 	str	r3, [fp, #-8]
5000c9e4:	e3a03001 	mov	r3, #1
5000c9e8:	e50b300c 	str	r3, [fp, #-12]
5000c9ec:	ea00002d 	b	5000caa8 <_make_cur+0x3a8>
5000c9f0:	e3072524 	movw	r2, #29988	; 0x7524
5000c9f4:	e3452001 	movt	r2, #20481	; 0x5001
5000c9f8:	e51b3008 	ldr	r3, [fp, #-8]
5000c9fc:	e1a01003 	mov	r1, r3
5000ca00:	e1a03101 	lsl	r3, r1, #2
5000ca04:	e1a01003 	mov	r1, r3
5000ca08:	e1a03101 	lsl	r3, r1, #2
5000ca0c:	e0613003 	rsb	r3, r1, r3
5000ca10:	e51b100c 	ldr	r1, [fp, #-12]
5000ca14:	e0833001 	add	r3, r3, r1
5000ca18:	e7923103 	ldr	r3, [r2, r3, lsl #2]
5000ca1c:	e3530000 	cmp	r3, #0
5000ca20:	0a00001d 	beq	5000ca9c <_make_cur+0x39c>
5000ca24:	e30c0d2c 	movw	r0, #52524	; 0xcd2c
5000ca28:	e3450001 	movt	r0, #20481	; 0x5001
5000ca2c:	eb000023 	bl	5000cac0 <_leave>
5000ca30:	e51b300c 	ldr	r3, [fp, #-12]
5000ca34:	e6ff2073 	uxth	r2, r3
5000ca38:	e30c3d2c 	movw	r3, #52524	; 0xcd2c
5000ca3c:	e3453001 	movt	r3, #20481	; 0x5001
5000ca40:	e1c320b0 	strh	r2, [r3]
5000ca44:	e51b3008 	ldr	r3, [fp, #-8]
5000ca48:	e6ff2073 	uxth	r2, r3
5000ca4c:	e30c3d2c 	movw	r3, #52524	; 0xcd2c
5000ca50:	e3453001 	movt	r3, #20481	; 0x5001
5000ca54:	e1c320b2 	strh	r2, [r3, #2]
5000ca58:	e3072524 	movw	r2, #29988	; 0x7524
5000ca5c:	e3452001 	movt	r2, #20481	; 0x5001
5000ca60:	e51b3008 	ldr	r3, [fp, #-8]
5000ca64:	e1a01003 	mov	r1, r3
5000ca68:	e1a03101 	lsl	r3, r1, #2
5000ca6c:	e1a01003 	mov	r1, r3
5000ca70:	e1a03101 	lsl	r3, r1, #2
5000ca74:	e0613003 	rsb	r3, r1, r3
5000ca78:	e51b100c 	ldr	r1, [fp, #-12]
5000ca7c:	e0833001 	add	r3, r3, r1
5000ca80:	e7923103 	ldr	r3, [r2, r3, lsl #2]
5000ca84:	e51b0008 	ldr	r0, [fp, #-8]
5000ca88:	e51b100c 	ldr	r1, [fp, #-12]
5000ca8c:	e1a02003 	mov	r2, r3
5000ca90:	e3a03001 	mov	r3, #1
5000ca94:	eb000863 	bl	5000ec28 <tty_show>
5000ca98:	ea000006 	b	5000cab8 <_make_cur+0x3b8>
5000ca9c:	e51b300c 	ldr	r3, [fp, #-12]
5000caa0:	e2833001 	add	r3, r3, #1
5000caa4:	e50b300c 	str	r3, [fp, #-12]
5000caa8:	e51b200c 	ldr	r2, [fp, #-12]
5000caac:	e51b3014 	ldr	r3, [fp, #-20]
5000cab0:	e1520003 	cmp	r2, r3
5000cab4:	baffffcd 	blt	5000c9f0 <_make_cur+0x2f0>
5000cab8:	e24bd004 	sub	sp, fp, #4
5000cabc:	e8bd8800 	pop	{fp, pc}

5000cac0 <_leave>:
5000cac0:	e92d4800 	push	{fp, lr}
5000cac4:	e28db004 	add	fp, sp, #4
5000cac8:	e24dd008 	sub	sp, sp, #8
5000cacc:	e50b0008 	str	r0, [fp, #-8]
5000cad0:	e51b3008 	ldr	r3, [fp, #-8]
5000cad4:	e1d320b0 	ldrh	r2, [r3]
5000cad8:	e30c3d30 	movw	r3, #52528	; 0xcd30
5000cadc:	e3453001 	movt	r3, #20481	; 0x5001
5000cae0:	e1d330b0 	ldrh	r3, [r3]
5000cae4:	e6bf2072 	sxth	r2, r2
5000cae8:	e6bf3073 	sxth	r3, r3
5000caec:	e1520003 	cmp	r2, r3
5000caf0:	1a000008 	bne	5000cb18 <_leave+0x58>
5000caf4:	e51b3008 	ldr	r3, [fp, #-8]
5000caf8:	e1d320b2 	ldrh	r2, [r3, #2]
5000cafc:	e30c3d30 	movw	r3, #52528	; 0xcd30
5000cb00:	e3453001 	movt	r3, #20481	; 0x5001
5000cb04:	e1d330b2 	ldrh	r3, [r3, #2]
5000cb08:	e6bf2072 	sxth	r2, r2
5000cb0c:	e6bf3073 	sxth	r3, r3
5000cb10:	e1520003 	cmp	r2, r3
5000cb14:	0a000019 	beq	5000cb80 <_leave+0xc0>
5000cb18:	e51b3008 	ldr	r3, [fp, #-8]
5000cb1c:	e1d330b2 	ldrh	r3, [r3, #2]
5000cb20:	e6bfe073 	sxth	lr, r3
5000cb24:	e51b3008 	ldr	r3, [fp, #-8]
5000cb28:	e1d330b0 	ldrh	r3, [r3]
5000cb2c:	e6bfc073 	sxth	ip, r3
5000cb30:	e51b3008 	ldr	r3, [fp, #-8]
5000cb34:	e1d330b2 	ldrh	r3, [r3, #2]
5000cb38:	e6bf1073 	sxth	r1, r3
5000cb3c:	e51b3008 	ldr	r3, [fp, #-8]
5000cb40:	e1d330b0 	ldrh	r3, [r3]
5000cb44:	e6bf0073 	sxth	r0, r3
5000cb48:	e3072524 	movw	r2, #29988	; 0x7524
5000cb4c:	e3452001 	movt	r2, #20481	; 0x5001
5000cb50:	e1a03101 	lsl	r3, r1, #2
5000cb54:	e1a01003 	mov	r1, r3
5000cb58:	e1a03101 	lsl	r3, r1, #2
5000cb5c:	e0613003 	rsb	r3, r1, r3
5000cb60:	e0833000 	add	r3, r3, r0
5000cb64:	e7923103 	ldr	r3, [r2, r3, lsl #2]
5000cb68:	e1a0000e 	mov	r0, lr
5000cb6c:	e1a0100c 	mov	r1, ip
5000cb70:	e1a02003 	mov	r2, r3
5000cb74:	e3a03000 	mov	r3, #0
5000cb78:	eb00082a 	bl	5000ec28 <tty_show>
5000cb7c:	ea000018 	b	5000cbe4 <_leave+0x124>
5000cb80:	e51b3008 	ldr	r3, [fp, #-8]
5000cb84:	e1d330b2 	ldrh	r3, [r3, #2]
5000cb88:	e6bfe073 	sxth	lr, r3
5000cb8c:	e51b3008 	ldr	r3, [fp, #-8]
5000cb90:	e1d330b0 	ldrh	r3, [r3]
5000cb94:	e6bfc073 	sxth	ip, r3
5000cb98:	e51b3008 	ldr	r3, [fp, #-8]
5000cb9c:	e1d330b2 	ldrh	r3, [r3, #2]
5000cba0:	e6bf1073 	sxth	r1, r3
5000cba4:	e51b3008 	ldr	r3, [fp, #-8]
5000cba8:	e1d330b0 	ldrh	r3, [r3]
5000cbac:	e6bf0073 	sxth	r0, r3
5000cbb0:	e3072524 	movw	r2, #29988	; 0x7524
5000cbb4:	e3452001 	movt	r2, #20481	; 0x5001
5000cbb8:	e1a03101 	lsl	r3, r1, #2
5000cbbc:	e1a01003 	mov	r1, r3
5000cbc0:	e1a03101 	lsl	r3, r1, #2
5000cbc4:	e0613003 	rsb	r3, r1, r3
5000cbc8:	e0833000 	add	r3, r3, r0
5000cbcc:	e7923103 	ldr	r3, [r2, r3, lsl #2]
5000cbd0:	e1a0000e 	mov	r0, lr
5000cbd4:	e1a0100c 	mov	r1, ip
5000cbd8:	e1a02003 	mov	r2, r3
5000cbdc:	e3a03002 	mov	r3, #2
5000cbe0:	eb000810 	bl	5000ec28 <tty_show>
5000cbe4:	e24bd004 	sub	sp, fp, #4
5000cbe8:	e8bd8800 	pop	{fp, pc}

5000cbec <_delay>:
5000cbec:	e52db004 	push	{fp}		; (str fp, [sp, #-4]!)
5000cbf0:	e28db000 	add	fp, sp, #0
5000cbf4:	e24dd014 	sub	sp, sp, #20
5000cbf8:	e50b0010 	str	r0, [fp, #-16]
5000cbfc:	e3a03000 	mov	r3, #0
5000cc00:	e50b3008 	str	r3, [fp, #-8]
5000cc04:	ea00000a 	b	5000cc34 <_delay+0x48>
5000cc08:	e51b3010 	ldr	r3, [fp, #-16]
5000cc0c:	e50b300c 	str	r3, [fp, #-12]
5000cc10:	e1a00000 	nop			; (mov r0, r0)
5000cc14:	e51b300c 	ldr	r3, [fp, #-12]
5000cc18:	e2432001 	sub	r2, r3, #1
5000cc1c:	e50b200c 	str	r2, [fp, #-12]
5000cc20:	e3530000 	cmp	r3, #0
5000cc24:	1afffffa 	bne	5000cc14 <_delay+0x28>
5000cc28:	e51b3008 	ldr	r3, [fp, #-8]
5000cc2c:	e2833001 	add	r3, r3, #1
5000cc30:	e50b3008 	str	r3, [fp, #-8]
5000cc34:	e51b3008 	ldr	r3, [fp, #-8]
5000cc38:	e3530063 	cmp	r3, #99	; 0x63
5000cc3c:	dafffff1 	ble	5000cc08 <_delay+0x1c>
5000cc40:	e24bd000 	sub	sp, fp, #0
5000cc44:	e49db004 	pop	{fp}		; (ldr fp, [sp], #4)
5000cc48:	e12fff1e 	bx	lr

5000cc4c <_T_time>:
5000cc4c:	e92d4800 	push	{fp, lr}
5000cc50:	e28db004 	add	fp, sp, #4
5000cc54:	e24dd068 	sub	sp, sp, #104	; 0x68
5000cc58:	ea000014 	b	5000ccb0 <_T_time+0x64>
5000cc5c:	e30c3d3c 	movw	r3, #52540	; 0xcd3c
5000cc60:	e3453001 	movt	r3, #20481	; 0x5001
5000cc64:	e5933000 	ldr	r3, [r3]
5000cc68:	e24b2068 	sub	r2, fp, #104	; 0x68
5000cc6c:	e1a00002 	mov	r0, r2
5000cc70:	e3061518 	movw	r1, #25880	; 0x6518
5000cc74:	e3451001 	movt	r1, #20481	; 0x5001
5000cc78:	e1a02003 	mov	r2, r3
5000cc7c:	ebffe633 	bl	50006550 <sprintf>
5000cc80:	e24b3068 	sub	r3, fp, #104	; 0x68
5000cc84:	e1a00003 	mov	r0, r3
5000cc88:	eb0008e7 	bl	5000f02c <tty_msg>
5000cc8c:	e3a00064 	mov	r0, #100	; 0x64
5000cc90:	ebffd166 	bl	50001230 <delayQ_delay>
5000cc94:	e30c3d3c 	movw	r3, #52540	; 0xcd3c
5000cc98:	e3453001 	movt	r3, #20481	; 0x5001
5000cc9c:	e5933000 	ldr	r3, [r3]
5000cca0:	e2432001 	sub	r2, r3, #1
5000cca4:	e30c3d3c 	movw	r3, #52540	; 0xcd3c
5000cca8:	e3453001 	movt	r3, #20481	; 0x5001
5000ccac:	e5832000 	str	r2, [r3]
5000ccb0:	e30c3d3c 	movw	r3, #52540	; 0xcd3c
5000ccb4:	e3453001 	movt	r3, #20481	; 0x5001
5000ccb8:	e5933000 	ldr	r3, [r3]
5000ccbc:	e3530000 	cmp	r3, #0
5000ccc0:	aaffffe5 	bge	5000cc5c <_T_time+0x10>
5000ccc4:	e30c3d28 	movw	r3, #52520	; 0xcd28
5000ccc8:	e3453001 	movt	r3, #20481	; 0x5001
5000cccc:	e3a02000 	mov	r2, #0
5000ccd0:	e5832000 	str	r2, [r3]
5000ccd4:	e3060528 	movw	r0, #25896	; 0x6528
5000ccd8:	e3450001 	movt	r0, #20481	; 0x5001
5000ccdc:	eb0008d2 	bl	5000f02c <tty_msg>
5000cce0:	e24bd004 	sub	sp, fp, #4
5000cce4:	e8bd8800 	pop	{fp, pc}

5000cce8 <lian_init>:
5000cce8:	e92d4800 	push	{fp, lr}
5000ccec:	e28db004 	add	fp, sp, #4
5000ccf0:	e24dd028 	sub	sp, sp, #40	; 0x28
5000ccf4:	e50b0028 	str	r0, [fp, #-40]	; 0x28
5000ccf8:	e3a03000 	mov	r3, #0
5000ccfc:	e50b3010 	str	r3, [fp, #-16]
5000cd00:	e3a03000 	mov	r3, #0
5000cd04:	e50b301c 	str	r3, [fp, #-28]
5000cd08:	e51b3028 	ldr	r3, [fp, #-40]	; 0x28
5000cd0c:	e353000e 	cmp	r3, #14
5000cd10:	da000001 	ble	5000cd1c <lian_init+0x34>
5000cd14:	e3e03000 	mvn	r3, #0
5000cd18:	ea0000eb 	b	5000d0cc <lian_init+0x3e4>
5000cd1c:	e3a03001 	mov	r3, #1
5000cd20:	e50b3008 	str	r3, [fp, #-8]
5000cd24:	ea000034 	b	5000cdfc <lian_init+0x114>
5000cd28:	e3a03001 	mov	r3, #1
5000cd2c:	e50b300c 	str	r3, [fp, #-12]
5000cd30:	ea00002b 	b	5000cde4 <lian_init+0xfc>
5000cd34:	e51b2028 	ldr	r2, [fp, #-40]	; 0x28
5000cd38:	e3053556 	movw	r3, #21846	; 0x5556
5000cd3c:	e3453555 	movt	r3, #21845	; 0x5555
5000cd40:	e0c10392 	smull	r0, r1, r2, r3
5000cd44:	e1a03fc2 	asr	r3, r2, #31
5000cd48:	e0630001 	rsb	r0, r3, r1
5000cd4c:	e1a03000 	mov	r3, r0
5000cd50:	e1a03083 	lsl	r3, r3, #1
5000cd54:	e0833000 	add	r3, r3, r0
5000cd58:	e0630002 	rsb	r0, r3, r2
5000cd5c:	e306153c 	movw	r1, #25916	; 0x653c
5000cd60:	e3451001 	movt	r1, #20481	; 0x5001
5000cd64:	e51b3008 	ldr	r3, [fp, #-8]
5000cd68:	e1a03103 	lsl	r3, r3, #2
5000cd6c:	e1a02103 	lsl	r2, r3, #2
5000cd70:	e0632002 	rsb	r2, r3, r2
5000cd74:	e1a03000 	mov	r3, r0
5000cd78:	e1a03203 	lsl	r3, r3, #4
5000cd7c:	e1a00183 	lsl	r0, r3, #3
5000cd80:	e0833000 	add	r3, r3, r0
5000cd84:	e0822003 	add	r2, r2, r3
5000cd88:	e51b300c 	ldr	r3, [fp, #-12]
5000cd8c:	e0823003 	add	r3, r2, r3
5000cd90:	e7913103 	ldr	r3, [r1, r3, lsl #2]
5000cd94:	e3530000 	cmp	r3, #0
5000cd98:	0a000002 	beq	5000cda8 <lian_init+0xc0>
5000cd9c:	e51b3010 	ldr	r3, [fp, #-16]
5000cda0:	e2833001 	add	r3, r3, #1
5000cda4:	e50b3010 	str	r3, [fp, #-16]
5000cda8:	e3072524 	movw	r2, #29988	; 0x7524
5000cdac:	e3452001 	movt	r2, #20481	; 0x5001
5000cdb0:	e51b3008 	ldr	r3, [fp, #-8]
5000cdb4:	e1a01003 	mov	r1, r3
5000cdb8:	e1a03101 	lsl	r3, r1, #2
5000cdbc:	e1a01003 	mov	r1, r3
5000cdc0:	e1a03101 	lsl	r3, r1, #2
5000cdc4:	e0613003 	rsb	r3, r1, r3
5000cdc8:	e51b100c 	ldr	r1, [fp, #-12]
5000cdcc:	e0833001 	add	r3, r3, r1
5000cdd0:	e3a01000 	mov	r1, #0
5000cdd4:	e7821103 	str	r1, [r2, r3, lsl #2]
5000cdd8:	e51b300c 	ldr	r3, [fp, #-12]
5000cddc:	e2833001 	add	r3, r3, #1
5000cde0:	e50b300c 	str	r3, [fp, #-12]
5000cde4:	e51b300c 	ldr	r3, [fp, #-12]
5000cde8:	e353000a 	cmp	r3, #10
5000cdec:	daffffd0 	ble	5000cd34 <lian_init+0x4c>
5000cdf0:	e51b3008 	ldr	r3, [fp, #-8]
5000cdf4:	e2833001 	add	r3, r3, #1
5000cdf8:	e50b3008 	str	r3, [fp, #-8]
5000cdfc:	e51b3008 	ldr	r3, [fp, #-8]
5000ce00:	e353000a 	cmp	r3, #10
5000ce04:	daffffc7 	ble	5000cd28 <lian_init+0x40>
5000ce08:	e51b3010 	ldr	r3, [fp, #-16]
5000ce0c:	e2033001 	and	r3, r3, #1
5000ce10:	e3530000 	cmp	r3, #0
5000ce14:	0a000004 	beq	5000ce2c <lian_init+0x144>
5000ce18:	e3060bfc 	movw	r0, #27644	; 0x6bfc
5000ce1c:	e3450001 	movt	r0, #20481	; 0x5001
5000ce20:	ebffde23 	bl	500046b4 <serial_printf>
5000ce24:	e3e03000 	mvn	r3, #0
5000ce28:	ea0000a7 	b	5000d0cc <lian_init+0x3e4>
5000ce2c:	e51b3010 	ldr	r3, [fp, #-16]
5000ce30:	e1a00003 	mov	r0, r3
5000ce34:	e3a01004 	mov	r1, #4
5000ce38:	ebffd3f7 	bl	50001e1c <memH_calloc>
5000ce3c:	e50b001c 	str	r0, [fp, #-28]
5000ce40:	e51b301c 	ldr	r3, [fp, #-28]
5000ce44:	e3530000 	cmp	r3, #0
5000ce48:	1a000004 	bne	5000ce60 <lian_init+0x178>
5000ce4c:	e3060c30 	movw	r0, #27696	; 0x6c30
5000ce50:	e3450001 	movt	r0, #20481	; 0x5001
5000ce54:	ebffde16 	bl	500046b4 <serial_printf>
5000ce58:	e3e03000 	mvn	r3, #0
5000ce5c:	ea00009a 	b	5000d0cc <lian_init+0x3e4>
5000ce60:	e3a03000 	mov	r3, #0
5000ce64:	e50b3008 	str	r3, [fp, #-8]
5000ce68:	e3a03000 	mov	r3, #0
5000ce6c:	e50b3014 	str	r3, [fp, #-20]
5000ce70:	ea000020 	b	5000cef8 <lian_init+0x210>
5000ce74:	e51b3008 	ldr	r3, [fp, #-8]
5000ce78:	e2832001 	add	r2, r3, #1
5000ce7c:	e50b2008 	str	r2, [fp, #-8]
5000ce80:	e1a03103 	lsl	r3, r3, #2
5000ce84:	e51b201c 	ldr	r2, [fp, #-28]
5000ce88:	e0823003 	add	r3, r2, r3
5000ce8c:	e51b2014 	ldr	r2, [fp, #-20]
5000ce90:	e2822001 	add	r2, r2, #1
5000ce94:	e5832000 	str	r2, [r3]
5000ce98:	e51b3008 	ldr	r3, [fp, #-8]
5000ce9c:	e2832001 	add	r2, r3, #1
5000cea0:	e50b2008 	str	r2, [fp, #-8]
5000cea4:	e1a03103 	lsl	r3, r3, #2
5000cea8:	e51b201c 	ldr	r2, [fp, #-28]
5000ceac:	e0823003 	add	r3, r2, r3
5000ceb0:	e51b2014 	ldr	r2, [fp, #-20]
5000ceb4:	e2822001 	add	r2, r2, #1
5000ceb8:	e5832000 	str	r2, [r3]
5000cebc:	e51b3014 	ldr	r3, [fp, #-20]
5000cec0:	e2830001 	add	r0, r3, #1
5000cec4:	e51b1028 	ldr	r1, [fp, #-40]	; 0x28
5000cec8:	e3053556 	movw	r3, #21846	; 0x5556
5000cecc:	e3453555 	movt	r3, #21845	; 0x5555
5000ced0:	e0c32391 	smull	r2, r3, r1, r3
5000ced4:	e1a01fc1 	asr	r1, r1, #31
5000ced8:	e0612003 	rsb	r2, r1, r3
5000cedc:	e3073510 	movw	r3, #29968	; 0x7510
5000cee0:	e3453001 	movt	r3, #20481	; 0x5001
5000cee4:	e7933102 	ldr	r3, [r3, r2, lsl #2]
5000cee8:	e1a01003 	mov	r1, r3
5000ceec:	eb001fb9 	bl	50014dd8 <__aeabi_idivmod>
5000cef0:	e1a03001 	mov	r3, r1
5000cef4:	e50b3014 	str	r3, [fp, #-20]
5000cef8:	e51b2008 	ldr	r2, [fp, #-8]
5000cefc:	e51b3010 	ldr	r3, [fp, #-16]
5000cf00:	e1520003 	cmp	r2, r3
5000cf04:	baffffda 	blt	5000ce74 <lian_init+0x18c>
5000cf08:	e3a03000 	mov	r3, #0
5000cf0c:	e50b3008 	str	r3, [fp, #-8]
5000cf10:	ea000025 	b	5000cfac <lian_init+0x2c4>
5000cf14:	ebffe503 	bl	50006328 <rand>
5000cf18:	e1a01000 	mov	r1, r0
5000cf1c:	e51b2010 	ldr	r2, [fp, #-16]
5000cf20:	e51b3008 	ldr	r3, [fp, #-8]
5000cf24:	e0633002 	rsb	r3, r3, r2
5000cf28:	e1a00001 	mov	r0, r1
5000cf2c:	e1a01003 	mov	r1, r3
5000cf30:	eb001fa8 	bl	50014dd8 <__aeabi_idivmod>
5000cf34:	e1a03001 	mov	r3, r1
5000cf38:	e1a02003 	mov	r2, r3
5000cf3c:	e51b3008 	ldr	r3, [fp, #-8]
5000cf40:	e0823003 	add	r3, r2, r3
5000cf44:	e50b3020 	str	r3, [fp, #-32]
5000cf48:	e51b3008 	ldr	r3, [fp, #-8]
5000cf4c:	e1a03103 	lsl	r3, r3, #2
5000cf50:	e51b201c 	ldr	r2, [fp, #-28]
5000cf54:	e0823003 	add	r3, r2, r3
5000cf58:	e5933000 	ldr	r3, [r3]
5000cf5c:	e50b3024 	str	r3, [fp, #-36]	; 0x24
5000cf60:	e51b3008 	ldr	r3, [fp, #-8]
5000cf64:	e1a03103 	lsl	r3, r3, #2
5000cf68:	e51b201c 	ldr	r2, [fp, #-28]
5000cf6c:	e0823003 	add	r3, r2, r3
5000cf70:	e51b2020 	ldr	r2, [fp, #-32]
5000cf74:	e1a02102 	lsl	r2, r2, #2
5000cf78:	e51b101c 	ldr	r1, [fp, #-28]
5000cf7c:	e0812002 	add	r2, r1, r2
5000cf80:	e5922000 	ldr	r2, [r2]
5000cf84:	e5832000 	str	r2, [r3]
5000cf88:	e51b3020 	ldr	r3, [fp, #-32]
5000cf8c:	e1a03103 	lsl	r3, r3, #2
5000cf90:	e51b201c 	ldr	r2, [fp, #-28]
5000cf94:	e0823003 	add	r3, r2, r3
5000cf98:	e51b2024 	ldr	r2, [fp, #-36]	; 0x24
5000cf9c:	e5832000 	str	r2, [r3]
5000cfa0:	e51b3008 	ldr	r3, [fp, #-8]
5000cfa4:	e2833001 	add	r3, r3, #1
5000cfa8:	e50b3008 	str	r3, [fp, #-8]
5000cfac:	e51b2008 	ldr	r2, [fp, #-8]
5000cfb0:	e51b3010 	ldr	r3, [fp, #-16]
5000cfb4:	e1520003 	cmp	r2, r3
5000cfb8:	baffffd5 	blt	5000cf14 <lian_init+0x22c>
5000cfbc:	e51b3010 	ldr	r3, [fp, #-16]
5000cfc0:	e50b3018 	str	r3, [fp, #-24]
5000cfc4:	e3a03001 	mov	r3, #1
5000cfc8:	e50b3008 	str	r3, [fp, #-8]
5000cfcc:	ea000038 	b	5000d0b4 <lian_init+0x3cc>
5000cfd0:	e3a03001 	mov	r3, #1
5000cfd4:	e50b300c 	str	r3, [fp, #-12]
5000cfd8:	ea00002f 	b	5000d09c <lian_init+0x3b4>
5000cfdc:	e51b2028 	ldr	r2, [fp, #-40]	; 0x28
5000cfe0:	e3053556 	movw	r3, #21846	; 0x5556
5000cfe4:	e3453555 	movt	r3, #21845	; 0x5555
5000cfe8:	e0c10392 	smull	r0, r1, r2, r3
5000cfec:	e1a03fc2 	asr	r3, r2, #31
5000cff0:	e0630001 	rsb	r0, r3, r1
5000cff4:	e1a03000 	mov	r3, r0
5000cff8:	e1a03083 	lsl	r3, r3, #1
5000cffc:	e0833000 	add	r3, r3, r0
5000d000:	e0630002 	rsb	r0, r3, r2
5000d004:	e306153c 	movw	r1, #25916	; 0x653c
5000d008:	e3451001 	movt	r1, #20481	; 0x5001
5000d00c:	e51b3008 	ldr	r3, [fp, #-8]
5000d010:	e1a03103 	lsl	r3, r3, #2
5000d014:	e1a02103 	lsl	r2, r3, #2
5000d018:	e0632002 	rsb	r2, r3, r2
5000d01c:	e1a03000 	mov	r3, r0
5000d020:	e1a03203 	lsl	r3, r3, #4
5000d024:	e1a00183 	lsl	r0, r3, #3
5000d028:	e0833000 	add	r3, r3, r0
5000d02c:	e0822003 	add	r2, r2, r3
5000d030:	e51b300c 	ldr	r3, [fp, #-12]
5000d034:	e0823003 	add	r3, r2, r3
5000d038:	e7913103 	ldr	r3, [r1, r3, lsl #2]
5000d03c:	e3530000 	cmp	r3, #0
5000d040:	0a000012 	beq	5000d090 <lian_init+0x3a8>
5000d044:	e51b3018 	ldr	r3, [fp, #-24]
5000d048:	e2433001 	sub	r3, r3, #1
5000d04c:	e50b3018 	str	r3, [fp, #-24]
5000d050:	e51b3018 	ldr	r3, [fp, #-24]
5000d054:	e1a03103 	lsl	r3, r3, #2
5000d058:	e51b201c 	ldr	r2, [fp, #-28]
5000d05c:	e0823003 	add	r3, r2, r3
5000d060:	e5930000 	ldr	r0, [r3]
5000d064:	e3072524 	movw	r2, #29988	; 0x7524
5000d068:	e3452001 	movt	r2, #20481	; 0x5001
5000d06c:	e51b3008 	ldr	r3, [fp, #-8]
5000d070:	e1a01003 	mov	r1, r3
5000d074:	e1a03101 	lsl	r3, r1, #2
5000d078:	e1a01003 	mov	r1, r3
5000d07c:	e1a03101 	lsl	r3, r1, #2
5000d080:	e0613003 	rsb	r3, r1, r3
5000d084:	e51b100c 	ldr	r1, [fp, #-12]
5000d088:	e0833001 	add	r3, r3, r1
5000d08c:	e7820103 	str	r0, [r2, r3, lsl #2]
5000d090:	e51b300c 	ldr	r3, [fp, #-12]
5000d094:	e2833001 	add	r3, r3, #1
5000d098:	e50b300c 	str	r3, [fp, #-12]
5000d09c:	e51b300c 	ldr	r3, [fp, #-12]
5000d0a0:	e353000a 	cmp	r3, #10
5000d0a4:	daffffcc 	ble	5000cfdc <lian_init+0x2f4>
5000d0a8:	e51b3008 	ldr	r3, [fp, #-8]
5000d0ac:	e2833001 	add	r3, r3, #1
5000d0b0:	e50b3008 	str	r3, [fp, #-8]
5000d0b4:	e51b3008 	ldr	r3, [fp, #-8]
5000d0b8:	e353000a 	cmp	r3, #10
5000d0bc:	daffffc3 	ble	5000cfd0 <lian_init+0x2e8>
5000d0c0:	e51b001c 	ldr	r0, [fp, #-28]
5000d0c4:	ebffd36b 	bl	50001e78 <memH_free>
5000d0c8:	e51b3010 	ldr	r3, [fp, #-16]
5000d0cc:	e1a00003 	mov	r0, r3
5000d0d0:	e24bd004 	sub	sp, fp, #4
5000d0d4:	e8bd8800 	pop	{fp, pc}

5000d0d8 <lian_reorder>:
5000d0d8:	e92d4800 	push	{fp, lr}
5000d0dc:	e28db004 	add	fp, sp, #4
5000d0e0:	e24ddf6a 	sub	sp, sp, #424	; 0x1a8
5000d0e4:	e3a03000 	mov	r3, #0
5000d0e8:	e50b3010 	str	r3, [fp, #-16]
5000d0ec:	e3a03001 	mov	r3, #1
5000d0f0:	e50b3008 	str	r3, [fp, #-8]
5000d0f4:	ea00002a 	b	5000d1a4 <lian_reorder+0xcc>
5000d0f8:	e3a03001 	mov	r3, #1
5000d0fc:	e50b300c 	str	r3, [fp, #-12]
5000d100:	ea000021 	b	5000d18c <lian_reorder+0xb4>
5000d104:	e3072524 	movw	r2, #29988	; 0x7524
5000d108:	e3452001 	movt	r2, #20481	; 0x5001
5000d10c:	e51b3008 	ldr	r3, [fp, #-8]
5000d110:	e1a01003 	mov	r1, r3
5000d114:	e1a03101 	lsl	r3, r1, #2
5000d118:	e1a01003 	mov	r1, r3
5000d11c:	e1a03101 	lsl	r3, r1, #2
5000d120:	e0613003 	rsb	r3, r1, r3
5000d124:	e51b100c 	ldr	r1, [fp, #-12]
5000d128:	e0833001 	add	r3, r3, r1
5000d12c:	e7923103 	ldr	r3, [r2, r3, lsl #2]
5000d130:	e3530000 	cmp	r3, #0
5000d134:	0a000011 	beq	5000d180 <lian_reorder+0xa8>
5000d138:	e51b0010 	ldr	r0, [fp, #-16]
5000d13c:	e2803001 	add	r3, r0, #1
5000d140:	e50b3010 	str	r3, [fp, #-16]
5000d144:	e3072524 	movw	r2, #29988	; 0x7524
5000d148:	e3452001 	movt	r2, #20481	; 0x5001
5000d14c:	e51b3008 	ldr	r3, [fp, #-8]
5000d150:	e1a01003 	mov	r1, r3
5000d154:	e1a03101 	lsl	r3, r1, #2
5000d158:	e1a01003 	mov	r1, r3
5000d15c:	e1a03101 	lsl	r3, r1, #2
5000d160:	e0613003 	rsb	r3, r1, r3
5000d164:	e51b100c 	ldr	r1, [fp, #-12]
5000d168:	e0833001 	add	r3, r3, r1
5000d16c:	e7922103 	ldr	r2, [r2, r3, lsl #2]
5000d170:	e1a03100 	lsl	r3, r0, #2
5000d174:	e24b1004 	sub	r1, fp, #4
5000d178:	e0813003 	add	r3, r1, r3
5000d17c:	e50321a8 	str	r2, [r3, #-424]	; 0x1a8
5000d180:	e51b300c 	ldr	r3, [fp, #-12]
5000d184:	e2833001 	add	r3, r3, #1
5000d188:	e50b300c 	str	r3, [fp, #-12]
5000d18c:	e51b300c 	ldr	r3, [fp, #-12]
5000d190:	e353000a 	cmp	r3, #10
5000d194:	daffffda 	ble	5000d104 <lian_reorder+0x2c>
5000d198:	e51b3008 	ldr	r3, [fp, #-8]
5000d19c:	e2833001 	add	r3, r3, #1
5000d1a0:	e50b3008 	str	r3, [fp, #-8]
5000d1a4:	e51b3008 	ldr	r3, [fp, #-8]
5000d1a8:	e353000a 	cmp	r3, #10
5000d1ac:	daffffd1 	ble	5000d0f8 <lian_reorder+0x20>
5000d1b0:	e3a03000 	mov	r3, #0
5000d1b4:	e50b3008 	str	r3, [fp, #-8]
5000d1b8:	ea000025 	b	5000d254 <lian_reorder+0x17c>
5000d1bc:	ebffe459 	bl	50006328 <rand>
5000d1c0:	e1a01000 	mov	r1, r0
5000d1c4:	e51b2010 	ldr	r2, [fp, #-16]
5000d1c8:	e51b3008 	ldr	r3, [fp, #-8]
5000d1cc:	e0633002 	rsb	r3, r3, r2
5000d1d0:	e1a00001 	mov	r0, r1
5000d1d4:	e1a01003 	mov	r1, r3
5000d1d8:	eb001efe 	bl	50014dd8 <__aeabi_idivmod>
5000d1dc:	e1a03001 	mov	r3, r1
5000d1e0:	e1a02003 	mov	r2, r3
5000d1e4:	e51b3008 	ldr	r3, [fp, #-8]
5000d1e8:	e0823003 	add	r3, r2, r3
5000d1ec:	e50b3018 	str	r3, [fp, #-24]
5000d1f0:	e51b3008 	ldr	r3, [fp, #-8]
5000d1f4:	e1a03103 	lsl	r3, r3, #2
5000d1f8:	e24b2004 	sub	r2, fp, #4
5000d1fc:	e0823003 	add	r3, r2, r3
5000d200:	e51331a8 	ldr	r3, [r3, #-424]	; 0x1a8
5000d204:	e50b301c 	str	r3, [fp, #-28]
5000d208:	e51b3018 	ldr	r3, [fp, #-24]
5000d20c:	e1a03103 	lsl	r3, r3, #2
5000d210:	e24b2004 	sub	r2, fp, #4
5000d214:	e0823003 	add	r3, r2, r3
5000d218:	e51321a8 	ldr	r2, [r3, #-424]	; 0x1a8
5000d21c:	e51b3008 	ldr	r3, [fp, #-8]
5000d220:	e1a03103 	lsl	r3, r3, #2
5000d224:	e24b1004 	sub	r1, fp, #4
5000d228:	e0813003 	add	r3, r1, r3
5000d22c:	e50321a8 	str	r2, [r3, #-424]	; 0x1a8
5000d230:	e51b3018 	ldr	r3, [fp, #-24]
5000d234:	e1a03103 	lsl	r3, r3, #2
5000d238:	e24b2004 	sub	r2, fp, #4
5000d23c:	e0823003 	add	r3, r2, r3
5000d240:	e51b201c 	ldr	r2, [fp, #-28]
5000d244:	e50321a8 	str	r2, [r3, #-424]	; 0x1a8
5000d248:	e51b3008 	ldr	r3, [fp, #-8]
5000d24c:	e2833001 	add	r3, r3, #1
5000d250:	e50b3008 	str	r3, [fp, #-8]
5000d254:	e51b2008 	ldr	r2, [fp, #-8]
5000d258:	e51b3010 	ldr	r3, [fp, #-16]
5000d25c:	e1520003 	cmp	r2, r3
5000d260:	baffffd5 	blt	5000d1bc <lian_reorder+0xe4>
5000d264:	e51b3010 	ldr	r3, [fp, #-16]
5000d268:	e50b3014 	str	r3, [fp, #-20]
5000d26c:	e3a03001 	mov	r3, #1
5000d270:	e50b3008 	str	r3, [fp, #-8]
5000d274:	ea00002b 	b	5000d328 <lian_reorder+0x250>
5000d278:	e3a03001 	mov	r3, #1
5000d27c:	e50b300c 	str	r3, [fp, #-12]
5000d280:	ea000022 	b	5000d310 <lian_reorder+0x238>
5000d284:	e3072524 	movw	r2, #29988	; 0x7524
5000d288:	e3452001 	movt	r2, #20481	; 0x5001
5000d28c:	e51b3008 	ldr	r3, [fp, #-8]
5000d290:	e1a01003 	mov	r1, r3
5000d294:	e1a03101 	lsl	r3, r1, #2
5000d298:	e1a01003 	mov	r1, r3
5000d29c:	e1a03101 	lsl	r3, r1, #2
5000d2a0:	e0613003 	rsb	r3, r1, r3
5000d2a4:	e51b100c 	ldr	r1, [fp, #-12]
5000d2a8:	e0833001 	add	r3, r3, r1
5000d2ac:	e7923103 	ldr	r3, [r2, r3, lsl #2]
5000d2b0:	e3530000 	cmp	r3, #0
5000d2b4:	0a000012 	beq	5000d304 <lian_reorder+0x22c>
5000d2b8:	e51b3014 	ldr	r3, [fp, #-20]
5000d2bc:	e2433001 	sub	r3, r3, #1
5000d2c0:	e50b3014 	str	r3, [fp, #-20]
5000d2c4:	e51b3014 	ldr	r3, [fp, #-20]
5000d2c8:	e1a03103 	lsl	r3, r3, #2
5000d2cc:	e24b2004 	sub	r2, fp, #4
5000d2d0:	e0823003 	add	r3, r2, r3
5000d2d4:	e51301a8 	ldr	r0, [r3, #-424]	; 0x1a8
5000d2d8:	e3072524 	movw	r2, #29988	; 0x7524
5000d2dc:	e3452001 	movt	r2, #20481	; 0x5001
5000d2e0:	e51b3008 	ldr	r3, [fp, #-8]
5000d2e4:	e1a01003 	mov	r1, r3
5000d2e8:	e1a03101 	lsl	r3, r1, #2
5000d2ec:	e1a01003 	mov	r1, r3
5000d2f0:	e1a03101 	lsl	r3, r1, #2
5000d2f4:	e0613003 	rsb	r3, r1, r3
5000d2f8:	e51b100c 	ldr	r1, [fp, #-12]
5000d2fc:	e0833001 	add	r3, r3, r1
5000d300:	e7820103 	str	r0, [r2, r3, lsl #2]
5000d304:	e51b300c 	ldr	r3, [fp, #-12]
5000d308:	e2833001 	add	r3, r3, #1
5000d30c:	e50b300c 	str	r3, [fp, #-12]
5000d310:	e51b300c 	ldr	r3, [fp, #-12]
5000d314:	e353000a 	cmp	r3, #10
5000d318:	daffffd9 	ble	5000d284 <lian_reorder+0x1ac>
5000d31c:	e51b3008 	ldr	r3, [fp, #-8]
5000d320:	e2833001 	add	r3, r3, #1
5000d324:	e50b3008 	str	r3, [fp, #-8]
5000d328:	e51b3008 	ldr	r3, [fp, #-8]
5000d32c:	e353000a 	cmp	r3, #10
5000d330:	daffffd0 	ble	5000d278 <lian_reorder+0x1a0>
5000d334:	e51b3010 	ldr	r3, [fp, #-16]
5000d338:	e1a00003 	mov	r0, r3
5000d33c:	e24bd004 	sub	sp, fp, #4
5000d340:	e8bd8800 	pop	{fp, pc}

5000d344 <_reach>:
5000d344:	e52db004 	push	{fp}		; (str fp, [sp, #-4]!)
5000d348:	e28db000 	add	fp, sp, #0
5000d34c:	e24dd024 	sub	sp, sp, #36	; 0x24
5000d350:	e50b0018 	str	r0, [fp, #-24]
5000d354:	e50b101c 	str	r1, [fp, #-28]
5000d358:	e50b2020 	str	r2, [fp, #-32]
5000d35c:	e3a03000 	mov	r3, #0
5000d360:	e50b3008 	str	r3, [fp, #-8]
5000d364:	e51b301c 	ldr	r3, [fp, #-28]
5000d368:	e1d330b0 	ldrh	r3, [r3]
5000d36c:	e6bf3073 	sxth	r3, r3
5000d370:	e50b3010 	str	r3, [fp, #-16]
5000d374:	e51b301c 	ldr	r3, [fp, #-28]
5000d378:	e1d330b2 	ldrh	r3, [r3, #2]
5000d37c:	e6bf3073 	sxth	r3, r3
5000d380:	e50b3014 	str	r3, [fp, #-20]
5000d384:	e51b301c 	ldr	r3, [fp, #-28]
5000d388:	e1d320b0 	ldrh	r2, [r3]
5000d38c:	e51b3020 	ldr	r3, [fp, #-32]
5000d390:	e1d330b0 	ldrh	r3, [r3]
5000d394:	e6bf2072 	sxth	r2, r2
5000d398:	e6bf3073 	sxth	r3, r3
5000d39c:	e1520003 	cmp	r2, r3
5000d3a0:	da00000a 	ble	5000d3d0 <_reach+0x8c>
5000d3a4:	e51b301c 	ldr	r3, [fp, #-28]
5000d3a8:	e1d320b2 	ldrh	r2, [r3, #2]
5000d3ac:	e51b3020 	ldr	r3, [fp, #-32]
5000d3b0:	e1d330b2 	ldrh	r3, [r3, #2]
5000d3b4:	e6bf2072 	sxth	r2, r2
5000d3b8:	e6bf3073 	sxth	r3, r3
5000d3bc:	e1520003 	cmp	r2, r3
5000d3c0:	1a000002 	bne	5000d3d0 <_reach+0x8c>
5000d3c4:	e3a03001 	mov	r3, #1
5000d3c8:	e50b300c 	str	r3, [fp, #-12]
5000d3cc:	ea00003a 	b	5000d4bc <_reach+0x178>
5000d3d0:	e51b301c 	ldr	r3, [fp, #-28]
5000d3d4:	e1d320b0 	ldrh	r2, [r3]
5000d3d8:	e51b3020 	ldr	r3, [fp, #-32]
5000d3dc:	e1d330b0 	ldrh	r3, [r3]
5000d3e0:	e6bf2072 	sxth	r2, r2
5000d3e4:	e6bf3073 	sxth	r3, r3
5000d3e8:	e1520003 	cmp	r2, r3
5000d3ec:	aa00000a 	bge	5000d41c <_reach+0xd8>
5000d3f0:	e51b301c 	ldr	r3, [fp, #-28]
5000d3f4:	e1d320b2 	ldrh	r2, [r3, #2]
5000d3f8:	e51b3020 	ldr	r3, [fp, #-32]
5000d3fc:	e1d330b2 	ldrh	r3, [r3, #2]
5000d400:	e6bf2072 	sxth	r2, r2
5000d404:	e6bf3073 	sxth	r3, r3
5000d408:	e1520003 	cmp	r2, r3
5000d40c:	1a000002 	bne	5000d41c <_reach+0xd8>
5000d410:	e3a03002 	mov	r3, #2
5000d414:	e50b300c 	str	r3, [fp, #-12]
5000d418:	ea000027 	b	5000d4bc <_reach+0x178>
5000d41c:	e51b301c 	ldr	r3, [fp, #-28]
5000d420:	e1d320b0 	ldrh	r2, [r3]
5000d424:	e51b3020 	ldr	r3, [fp, #-32]
5000d428:	e1d330b0 	ldrh	r3, [r3]
5000d42c:	e6bf2072 	sxth	r2, r2
5000d430:	e6bf3073 	sxth	r3, r3
5000d434:	e1520003 	cmp	r2, r3
5000d438:	1a00000a 	bne	5000d468 <_reach+0x124>
5000d43c:	e51b301c 	ldr	r3, [fp, #-28]
5000d440:	e1d320b2 	ldrh	r2, [r3, #2]
5000d444:	e51b3020 	ldr	r3, [fp, #-32]
5000d448:	e1d330b2 	ldrh	r3, [r3, #2]
5000d44c:	e6bf2072 	sxth	r2, r2
5000d450:	e6bf3073 	sxth	r3, r3
5000d454:	e1520003 	cmp	r2, r3
5000d458:	da000002 	ble	5000d468 <_reach+0x124>
5000d45c:	e3a03003 	mov	r3, #3
5000d460:	e50b300c 	str	r3, [fp, #-12]
5000d464:	ea000014 	b	5000d4bc <_reach+0x178>
5000d468:	e51b301c 	ldr	r3, [fp, #-28]
5000d46c:	e1d320b0 	ldrh	r2, [r3]
5000d470:	e51b3020 	ldr	r3, [fp, #-32]
5000d474:	e1d330b0 	ldrh	r3, [r3]
5000d478:	e6bf2072 	sxth	r2, r2
5000d47c:	e6bf3073 	sxth	r3, r3
5000d480:	e1520003 	cmp	r2, r3
5000d484:	1a00000a 	bne	5000d4b4 <_reach+0x170>
5000d488:	e51b301c 	ldr	r3, [fp, #-28]
5000d48c:	e1d320b2 	ldrh	r2, [r3, #2]
5000d490:	e51b3020 	ldr	r3, [fp, #-32]
5000d494:	e1d330b2 	ldrh	r3, [r3, #2]
5000d498:	e6bf2072 	sxth	r2, r2
5000d49c:	e6bf3073 	sxth	r3, r3
5000d4a0:	e1520003 	cmp	r2, r3
5000d4a4:	aa000002 	bge	5000d4b4 <_reach+0x170>
5000d4a8:	e3a03004 	mov	r3, #4
5000d4ac:	e50b300c 	str	r3, [fp, #-12]
5000d4b0:	ea000001 	b	5000d4bc <_reach+0x178>
5000d4b4:	e3a03000 	mov	r3, #0
5000d4b8:	ea000086 	b	5000d6d8 <_reach+0x394>
5000d4bc:	e51b300c 	ldr	r3, [fp, #-12]
5000d4c0:	e2433001 	sub	r3, r3, #1
5000d4c4:	e3530003 	cmp	r3, #3
5000d4c8:	979ff103 	ldrls	pc, [pc, r3, lsl #2]
5000d4cc:	ea00007f 	b	5000d6d0 <_reach+0x38c>
5000d4d0:	5000d4e0 	.word	0x5000d4e0
5000d4d4:	5000d55c 	.word	0x5000d55c
5000d4d8:	5000d5d8 	.word	0x5000d5d8
5000d4dc:	5000d654 	.word	0x5000d654
5000d4e0:	e51b3010 	ldr	r3, [fp, #-16]
5000d4e4:	e2433001 	sub	r3, r3, #1
5000d4e8:	e50b3010 	str	r3, [fp, #-16]
5000d4ec:	e51b3020 	ldr	r3, [fp, #-32]
5000d4f0:	e1d330b0 	ldrh	r3, [r3]
5000d4f4:	e6bf3073 	sxth	r3, r3
5000d4f8:	e51b2010 	ldr	r2, [fp, #-16]
5000d4fc:	e1520003 	cmp	r2, r3
5000d500:	da00000b 	ble	5000d534 <_reach+0x1f0>
5000d504:	e51b301c 	ldr	r3, [fp, #-28]
5000d508:	e1d330b2 	ldrh	r3, [r3, #2]
5000d50c:	e6bf3073 	sxth	r3, r3
5000d510:	e1a03203 	lsl	r3, r3, #4
5000d514:	e1a02103 	lsl	r2, r3, #2
5000d518:	e0633002 	rsb	r3, r3, r2
5000d51c:	e51b2018 	ldr	r2, [fp, #-24]
5000d520:	e0823003 	add	r3, r2, r3
5000d524:	e51b2010 	ldr	r2, [fp, #-16]
5000d528:	e7933102 	ldr	r3, [r3, r2, lsl #2]
5000d52c:	e3530000 	cmp	r3, #0
5000d530:	0affffea 	beq	5000d4e0 <_reach+0x19c>
5000d534:	e51b3020 	ldr	r3, [fp, #-32]
5000d538:	e1d330b0 	ldrh	r3, [r3]
5000d53c:	e6bf2073 	sxth	r2, r3
5000d540:	e51b3010 	ldr	r3, [fp, #-16]
5000d544:	e1520003 	cmp	r2, r3
5000d548:	03a03001 	moveq	r3, #1
5000d54c:	13a03000 	movne	r3, #0
5000d550:	e6ef3073 	uxtb	r3, r3
5000d554:	e50b3008 	str	r3, [fp, #-8]
5000d558:	ea00005d 	b	5000d6d4 <_reach+0x390>
5000d55c:	e51b3010 	ldr	r3, [fp, #-16]
5000d560:	e2833001 	add	r3, r3, #1
5000d564:	e50b3010 	str	r3, [fp, #-16]
5000d568:	e51b3020 	ldr	r3, [fp, #-32]
5000d56c:	e1d330b0 	ldrh	r3, [r3]
5000d570:	e6bf3073 	sxth	r3, r3
5000d574:	e51b2010 	ldr	r2, [fp, #-16]
5000d578:	e1520003 	cmp	r2, r3
5000d57c:	aa00000b 	bge	5000d5b0 <_reach+0x26c>
5000d580:	e51b301c 	ldr	r3, [fp, #-28]
5000d584:	e1d330b2 	ldrh	r3, [r3, #2]
5000d588:	e6bf3073 	sxth	r3, r3
5000d58c:	e1a03203 	lsl	r3, r3, #4
5000d590:	e1a02103 	lsl	r2, r3, #2
5000d594:	e0633002 	rsb	r3, r3, r2
5000d598:	e51b2018 	ldr	r2, [fp, #-24]
5000d59c:	e0823003 	add	r3, r2, r3
5000d5a0:	e51b2010 	ldr	r2, [fp, #-16]
5000d5a4:	e7933102 	ldr	r3, [r3, r2, lsl #2]
5000d5a8:	e3530000 	cmp	r3, #0
5000d5ac:	0affffea 	beq	5000d55c <_reach+0x218>
5000d5b0:	e51b3020 	ldr	r3, [fp, #-32]
5000d5b4:	e1d330b0 	ldrh	r3, [r3]
5000d5b8:	e6bf2073 	sxth	r2, r3
5000d5bc:	e51b3010 	ldr	r3, [fp, #-16]
5000d5c0:	e1520003 	cmp	r2, r3
5000d5c4:	03a03001 	moveq	r3, #1
5000d5c8:	13a03000 	movne	r3, #0
5000d5cc:	e6ef3073 	uxtb	r3, r3
5000d5d0:	e50b3008 	str	r3, [fp, #-8]
5000d5d4:	ea00003e 	b	5000d6d4 <_reach+0x390>
5000d5d8:	e51b3014 	ldr	r3, [fp, #-20]
5000d5dc:	e2433001 	sub	r3, r3, #1
5000d5e0:	e50b3014 	str	r3, [fp, #-20]
5000d5e4:	e51b3020 	ldr	r3, [fp, #-32]
5000d5e8:	e1d330b2 	ldrh	r3, [r3, #2]
5000d5ec:	e6bf3073 	sxth	r3, r3
5000d5f0:	e51b2014 	ldr	r2, [fp, #-20]
5000d5f4:	e1520003 	cmp	r2, r3
5000d5f8:	da00000b 	ble	5000d62c <_reach+0x2e8>
5000d5fc:	e51b3014 	ldr	r3, [fp, #-20]
5000d600:	e1a03203 	lsl	r3, r3, #4
5000d604:	e1a02103 	lsl	r2, r3, #2
5000d608:	e0633002 	rsb	r3, r3, r2
5000d60c:	e51b2018 	ldr	r2, [fp, #-24]
5000d610:	e0823003 	add	r3, r2, r3
5000d614:	e51b201c 	ldr	r2, [fp, #-28]
5000d618:	e1d220b0 	ldrh	r2, [r2]
5000d61c:	e6bf2072 	sxth	r2, r2
5000d620:	e7933102 	ldr	r3, [r3, r2, lsl #2]
5000d624:	e3530000 	cmp	r3, #0
5000d628:	0affffea 	beq	5000d5d8 <_reach+0x294>
5000d62c:	e51b3020 	ldr	r3, [fp, #-32]
5000d630:	e1d330b2 	ldrh	r3, [r3, #2]
5000d634:	e6bf2073 	sxth	r2, r3
5000d638:	e51b3014 	ldr	r3, [fp, #-20]
5000d63c:	e1520003 	cmp	r2, r3
5000d640:	03a03001 	moveq	r3, #1
5000d644:	13a03000 	movne	r3, #0
5000d648:	e6ef3073 	uxtb	r3, r3
5000d64c:	e50b3008 	str	r3, [fp, #-8]
5000d650:	ea00001f 	b	5000d6d4 <_reach+0x390>
5000d654:	e51b3014 	ldr	r3, [fp, #-20]
5000d658:	e2833001 	add	r3, r3, #1
5000d65c:	e50b3014 	str	r3, [fp, #-20]
5000d660:	e51b3020 	ldr	r3, [fp, #-32]
5000d664:	e1d330b2 	ldrh	r3, [r3, #2]
5000d668:	e6bf3073 	sxth	r3, r3
5000d66c:	e51b2014 	ldr	r2, [fp, #-20]
5000d670:	e1520003 	cmp	r2, r3
5000d674:	aa00000b 	bge	5000d6a8 <_reach+0x364>
5000d678:	e51b3014 	ldr	r3, [fp, #-20]
5000d67c:	e1a03203 	lsl	r3, r3, #4
5000d680:	e1a02103 	lsl	r2, r3, #2
5000d684:	e0633002 	rsb	r3, r3, r2
5000d688:	e51b2018 	ldr	r2, [fp, #-24]
5000d68c:	e0823003 	add	r3, r2, r3
5000d690:	e51b201c 	ldr	r2, [fp, #-28]
5000d694:	e1d220b0 	ldrh	r2, [r2]
5000d698:	e6bf2072 	sxth	r2, r2
5000d69c:	e7933102 	ldr	r3, [r3, r2, lsl #2]
5000d6a0:	e3530000 	cmp	r3, #0
5000d6a4:	0affffea 	beq	5000d654 <_reach+0x310>
5000d6a8:	e51b3020 	ldr	r3, [fp, #-32]
5000d6ac:	e1d330b2 	ldrh	r3, [r3, #2]
5000d6b0:	e6bf2073 	sxth	r2, r3
5000d6b4:	e51b3014 	ldr	r3, [fp, #-20]
5000d6b8:	e1520003 	cmp	r2, r3
5000d6bc:	03a03001 	moveq	r3, #1
5000d6c0:	13a03000 	movne	r3, #0
5000d6c4:	e6ef3073 	uxtb	r3, r3
5000d6c8:	e50b3008 	str	r3, [fp, #-8]
5000d6cc:	ea000000 	b	5000d6d4 <_reach+0x390>
5000d6d0:	e1a00000 	nop			; (mov r0, r0)
5000d6d4:	e51b3008 	ldr	r3, [fp, #-8]
5000d6d8:	e1a00003 	mov	r0, r3
5000d6dc:	e24bd000 	sub	sp, fp, #0
5000d6e0:	e49db004 	pop	{fp}		; (ldr fp, [sp], #4)
5000d6e4:	e12fff1e 	bx	lr

5000d6e8 <_lr_reach>:
5000d6e8:	e92d4800 	push	{fp, lr}
5000d6ec:	e28db004 	add	fp, sp, #4
5000d6f0:	e24dd018 	sub	sp, sp, #24
5000d6f4:	e50b0010 	str	r0, [fp, #-16]
5000d6f8:	e50b1014 	str	r1, [fp, #-20]
5000d6fc:	e50b2018 	str	r2, [fp, #-24]
5000d700:	e51b3014 	ldr	r3, [fp, #-20]
5000d704:	e1d320b0 	ldrh	r2, [r3]
5000d708:	e51b3018 	ldr	r3, [fp, #-24]
5000d70c:	e1d330b0 	ldrh	r3, [r3]
5000d710:	e6bf2072 	sxth	r2, r2
5000d714:	e6bf3073 	sxth	r3, r3
5000d718:	e1520003 	cmp	r2, r3
5000d71c:	da00001c 	ble	5000d794 <_lr_reach+0xac>
5000d720:	e51b3014 	ldr	r3, [fp, #-20]
5000d724:	e1d320b2 	ldrh	r2, [r3, #2]
5000d728:	e51b3018 	ldr	r3, [fp, #-24]
5000d72c:	e1d330b2 	ldrh	r3, [r3, #2]
5000d730:	e6bf2072 	sxth	r2, r2
5000d734:	e6bf3073 	sxth	r3, r3
5000d738:	e1520003 	cmp	r2, r3
5000d73c:	da000014 	ble	5000d794 <_lr_reach+0xac>
5000d740:	e51b3018 	ldr	r3, [fp, #-24]
5000d744:	e1d330b0 	ldrh	r3, [r3]
5000d748:	e6ff3073 	uxth	r3, r3
5000d74c:	e2433001 	sub	r3, r3, #1
5000d750:	e6ff3073 	uxth	r3, r3
5000d754:	e6ff3073 	uxth	r3, r3
5000d758:	e14b30bc 	strh	r3, [fp, #-12]
5000d75c:	e51b3014 	ldr	r3, [fp, #-20]
5000d760:	e1d330b2 	ldrh	r3, [r3, #2]
5000d764:	e14b30ba 	strh	r3, [fp, #-10]
5000d768:	e51b3014 	ldr	r3, [fp, #-20]
5000d76c:	e1d330b0 	ldrh	r3, [r3]
5000d770:	e14b30b8 	strh	r3, [fp, #-8]
5000d774:	e51b3018 	ldr	r3, [fp, #-24]
5000d778:	e1d330b2 	ldrh	r3, [r3, #2]
5000d77c:	e6ff3073 	uxth	r3, r3
5000d780:	e2433001 	sub	r3, r3, #1
5000d784:	e6ff3073 	uxth	r3, r3
5000d788:	e6ff3073 	uxth	r3, r3
5000d78c:	e14b30b6 	strh	r3, [fp, #-6]
5000d790:	ea000070 	b	5000d958 <_lr_reach+0x270>
5000d794:	e51b3014 	ldr	r3, [fp, #-20]
5000d798:	e1d320b0 	ldrh	r2, [r3]
5000d79c:	e51b3018 	ldr	r3, [fp, #-24]
5000d7a0:	e1d330b0 	ldrh	r3, [r3]
5000d7a4:	e6bf2072 	sxth	r2, r2
5000d7a8:	e6bf3073 	sxth	r3, r3
5000d7ac:	e1520003 	cmp	r2, r3
5000d7b0:	aa00001c 	bge	5000d828 <_lr_reach+0x140>
5000d7b4:	e51b3014 	ldr	r3, [fp, #-20]
5000d7b8:	e1d320b2 	ldrh	r2, [r3, #2]
5000d7bc:	e51b3018 	ldr	r3, [fp, #-24]
5000d7c0:	e1d330b2 	ldrh	r3, [r3, #2]
5000d7c4:	e6bf2072 	sxth	r2, r2
5000d7c8:	e6bf3073 	sxth	r3, r3
5000d7cc:	e1520003 	cmp	r2, r3
5000d7d0:	da000014 	ble	5000d828 <_lr_reach+0x140>
5000d7d4:	e51b3018 	ldr	r3, [fp, #-24]
5000d7d8:	e1d330b0 	ldrh	r3, [r3]
5000d7dc:	e6ff3073 	uxth	r3, r3
5000d7e0:	e2833001 	add	r3, r3, #1
5000d7e4:	e6ff3073 	uxth	r3, r3
5000d7e8:	e6ff3073 	uxth	r3, r3
5000d7ec:	e14b30bc 	strh	r3, [fp, #-12]
5000d7f0:	e51b3014 	ldr	r3, [fp, #-20]
5000d7f4:	e1d330b2 	ldrh	r3, [r3, #2]
5000d7f8:	e14b30ba 	strh	r3, [fp, #-10]
5000d7fc:	e51b3014 	ldr	r3, [fp, #-20]
5000d800:	e1d330b0 	ldrh	r3, [r3]
5000d804:	e14b30b8 	strh	r3, [fp, #-8]
5000d808:	e51b3018 	ldr	r3, [fp, #-24]
5000d80c:	e1d330b2 	ldrh	r3, [r3, #2]
5000d810:	e6ff3073 	uxth	r3, r3
5000d814:	e2433001 	sub	r3, r3, #1
5000d818:	e6ff3073 	uxth	r3, r3
5000d81c:	e6ff3073 	uxth	r3, r3
5000d820:	e14b30b6 	strh	r3, [fp, #-6]
5000d824:	ea00004b 	b	5000d958 <_lr_reach+0x270>
5000d828:	e51b3014 	ldr	r3, [fp, #-20]
5000d82c:	e1d320b0 	ldrh	r2, [r3]
5000d830:	e51b3018 	ldr	r3, [fp, #-24]
5000d834:	e1d330b0 	ldrh	r3, [r3]
5000d838:	e6bf2072 	sxth	r2, r2
5000d83c:	e6bf3073 	sxth	r3, r3
5000d840:	e1520003 	cmp	r2, r3
5000d844:	da00001c 	ble	5000d8bc <_lr_reach+0x1d4>
5000d848:	e51b3014 	ldr	r3, [fp, #-20]
5000d84c:	e1d320b2 	ldrh	r2, [r3, #2]
5000d850:	e51b3018 	ldr	r3, [fp, #-24]
5000d854:	e1d330b2 	ldrh	r3, [r3, #2]
5000d858:	e6bf2072 	sxth	r2, r2
5000d85c:	e6bf3073 	sxth	r3, r3
5000d860:	e1520003 	cmp	r2, r3
5000d864:	aa000014 	bge	5000d8bc <_lr_reach+0x1d4>
5000d868:	e51b3018 	ldr	r3, [fp, #-24]
5000d86c:	e1d330b0 	ldrh	r3, [r3]
5000d870:	e6ff3073 	uxth	r3, r3
5000d874:	e2433001 	sub	r3, r3, #1
5000d878:	e6ff3073 	uxth	r3, r3
5000d87c:	e6ff3073 	uxth	r3, r3
5000d880:	e14b30bc 	strh	r3, [fp, #-12]
5000d884:	e51b3014 	ldr	r3, [fp, #-20]
5000d888:	e1d330b2 	ldrh	r3, [r3, #2]
5000d88c:	e14b30ba 	strh	r3, [fp, #-10]
5000d890:	e51b3014 	ldr	r3, [fp, #-20]
5000d894:	e1d330b0 	ldrh	r3, [r3]
5000d898:	e14b30b8 	strh	r3, [fp, #-8]
5000d89c:	e51b3018 	ldr	r3, [fp, #-24]
5000d8a0:	e1d330b2 	ldrh	r3, [r3, #2]
5000d8a4:	e6ff3073 	uxth	r3, r3
5000d8a8:	e2833001 	add	r3, r3, #1
5000d8ac:	e6ff3073 	uxth	r3, r3
5000d8b0:	e6ff3073 	uxth	r3, r3
5000d8b4:	e14b30b6 	strh	r3, [fp, #-6]
5000d8b8:	ea000026 	b	5000d958 <_lr_reach+0x270>
5000d8bc:	e51b3014 	ldr	r3, [fp, #-20]
5000d8c0:	e1d320b0 	ldrh	r2, [r3]
5000d8c4:	e51b3018 	ldr	r3, [fp, #-24]
5000d8c8:	e1d330b0 	ldrh	r3, [r3]
5000d8cc:	e6bf2072 	sxth	r2, r2
5000d8d0:	e6bf3073 	sxth	r3, r3
5000d8d4:	e1520003 	cmp	r2, r3
5000d8d8:	aa00001c 	bge	5000d950 <_lr_reach+0x268>
5000d8dc:	e51b3014 	ldr	r3, [fp, #-20]
5000d8e0:	e1d320b2 	ldrh	r2, [r3, #2]
5000d8e4:	e51b3018 	ldr	r3, [fp, #-24]
5000d8e8:	e1d330b2 	ldrh	r3, [r3, #2]
5000d8ec:	e6bf2072 	sxth	r2, r2
5000d8f0:	e6bf3073 	sxth	r3, r3
5000d8f4:	e1520003 	cmp	r2, r3
5000d8f8:	aa000014 	bge	5000d950 <_lr_reach+0x268>
5000d8fc:	e51b3018 	ldr	r3, [fp, #-24]
5000d900:	e1d330b0 	ldrh	r3, [r3]
5000d904:	e6ff3073 	uxth	r3, r3
5000d908:	e2833001 	add	r3, r3, #1
5000d90c:	e6ff3073 	uxth	r3, r3
5000d910:	e6ff3073 	uxth	r3, r3
5000d914:	e14b30bc 	strh	r3, [fp, #-12]
5000d918:	e51b3014 	ldr	r3, [fp, #-20]
5000d91c:	e1d330b2 	ldrh	r3, [r3, #2]
5000d920:	e14b30ba 	strh	r3, [fp, #-10]
5000d924:	e51b3014 	ldr	r3, [fp, #-20]
5000d928:	e1d330b0 	ldrh	r3, [r3]
5000d92c:	e14b30b8 	strh	r3, [fp, #-8]
5000d930:	e51b3018 	ldr	r3, [fp, #-24]
5000d934:	e1d330b2 	ldrh	r3, [r3, #2]
5000d938:	e6ff3073 	uxth	r3, r3
5000d93c:	e2833001 	add	r3, r3, #1
5000d940:	e6ff3073 	uxth	r3, r3
5000d944:	e6ff3073 	uxth	r3, r3
5000d948:	e14b30b6 	strh	r3, [fp, #-6]
5000d94c:	ea000001 	b	5000d958 <_lr_reach+0x270>
5000d950:	e3a03000 	mov	r3, #0
5000d954:	ea00005c 	b	5000dacc <_lr_reach+0x3e4>
5000d958:	e24b300c 	sub	r3, fp, #12
5000d95c:	e51b0010 	ldr	r0, [fp, #-16]
5000d960:	e51b1014 	ldr	r1, [fp, #-20]
5000d964:	e1a02003 	mov	r2, r3
5000d968:	ebfffe75 	bl	5000d344 <_reach>
5000d96c:	e1a03000 	mov	r3, r0
5000d970:	e3530001 	cmp	r3, #1
5000d974:	1a000024 	bne	5000da0c <_lr_reach+0x324>
5000d978:	e51b3018 	ldr	r3, [fp, #-24]
5000d97c:	e1d330b0 	ldrh	r3, [r3]
5000d980:	e14b30bc 	strh	r3, [fp, #-12]
5000d984:	e30c3d40 	movw	r3, #52544	; 0xcd40
5000d988:	e3453001 	movt	r3, #20481	; 0x5001
5000d98c:	e5932000 	ldr	r2, [r3]
5000d990:	e2821001 	add	r1, r2, #1
5000d994:	e30c3d40 	movw	r3, #52544	; 0xcd40
5000d998:	e3453001 	movt	r3, #20481	; 0x5001
5000d99c:	e5831000 	str	r1, [r3]
5000d9a0:	e30d38bc 	movw	r3, #55484	; 0xd8bc
5000d9a4:	e3453001 	movt	r3, #20481	; 0x5001
5000d9a8:	e1a02102 	lsl	r2, r2, #2
5000d9ac:	e0832002 	add	r2, r3, r2
5000d9b0:	e24b300c 	sub	r3, fp, #12
5000d9b4:	e3a0c004 	mov	ip, #4
5000d9b8:	e1a00002 	mov	r0, r2
5000d9bc:	e1a01003 	mov	r1, r3
5000d9c0:	e1a0200c 	mov	r2, ip
5000d9c4:	ebffdec5 	bl	500054e0 <memcpy>
5000d9c8:	e24b300c 	sub	r3, fp, #12
5000d9cc:	e51b0010 	ldr	r0, [fp, #-16]
5000d9d0:	e1a01003 	mov	r1, r3
5000d9d4:	e51b2018 	ldr	r2, [fp, #-24]
5000d9d8:	ebfffe59 	bl	5000d344 <_reach>
5000d9dc:	e1a03000 	mov	r3, r0
5000d9e0:	e3530001 	cmp	r3, #1
5000d9e4:	1a000001 	bne	5000d9f0 <_lr_reach+0x308>
5000d9e8:	e3a03001 	mov	r3, #1
5000d9ec:	ea000036 	b	5000dacc <_lr_reach+0x3e4>
5000d9f0:	e30c3d40 	movw	r3, #52544	; 0xcd40
5000d9f4:	e3453001 	movt	r3, #20481	; 0x5001
5000d9f8:	e5933000 	ldr	r3, [r3]
5000d9fc:	e2432001 	sub	r2, r3, #1
5000da00:	e30c3d40 	movw	r3, #52544	; 0xcd40
5000da04:	e3453001 	movt	r3, #20481	; 0x5001
5000da08:	e5832000 	str	r2, [r3]
5000da0c:	e24b300c 	sub	r3, fp, #12
5000da10:	e2833004 	add	r3, r3, #4
5000da14:	e51b0010 	ldr	r0, [fp, #-16]
5000da18:	e51b1014 	ldr	r1, [fp, #-20]
5000da1c:	e1a02003 	mov	r2, r3
5000da20:	ebfffe47 	bl	5000d344 <_reach>
5000da24:	e1a03000 	mov	r3, r0
5000da28:	e3530001 	cmp	r3, #1
5000da2c:	1a000025 	bne	5000dac8 <_lr_reach+0x3e0>
5000da30:	e51b3018 	ldr	r3, [fp, #-24]
5000da34:	e1d330b2 	ldrh	r3, [r3, #2]
5000da38:	e14b30b6 	strh	r3, [fp, #-6]
5000da3c:	e30c3d40 	movw	r3, #52544	; 0xcd40
5000da40:	e3453001 	movt	r3, #20481	; 0x5001
5000da44:	e5932000 	ldr	r2, [r3]
5000da48:	e2821001 	add	r1, r2, #1
5000da4c:	e30c3d40 	movw	r3, #52544	; 0xcd40
5000da50:	e3453001 	movt	r3, #20481	; 0x5001
5000da54:	e5831000 	str	r1, [r3]
5000da58:	e30d38bc 	movw	r3, #55484	; 0xd8bc
5000da5c:	e3453001 	movt	r3, #20481	; 0x5001
5000da60:	e1a02102 	lsl	r2, r2, #2
5000da64:	e0832002 	add	r2, r3, r2
5000da68:	e24b3008 	sub	r3, fp, #8
5000da6c:	e3a0c004 	mov	ip, #4
5000da70:	e1a00002 	mov	r0, r2
5000da74:	e1a01003 	mov	r1, r3
5000da78:	e1a0200c 	mov	r2, ip
5000da7c:	ebffde97 	bl	500054e0 <memcpy>
5000da80:	e24b300c 	sub	r3, fp, #12
5000da84:	e2833004 	add	r3, r3, #4
5000da88:	e51b0010 	ldr	r0, [fp, #-16]
5000da8c:	e1a01003 	mov	r1, r3
5000da90:	e51b2018 	ldr	r2, [fp, #-24]
5000da94:	ebfffe2a 	bl	5000d344 <_reach>
5000da98:	e1a03000 	mov	r3, r0
5000da9c:	e3530001 	cmp	r3, #1
5000daa0:	1a000001 	bne	5000daac <_lr_reach+0x3c4>
5000daa4:	e3a03001 	mov	r3, #1
5000daa8:	ea000007 	b	5000dacc <_lr_reach+0x3e4>
5000daac:	e30c3d40 	movw	r3, #52544	; 0xcd40
5000dab0:	e3453001 	movt	r3, #20481	; 0x5001
5000dab4:	e5933000 	ldr	r3, [r3]
5000dab8:	e2432001 	sub	r2, r3, #1
5000dabc:	e30c3d40 	movw	r3, #52544	; 0xcd40
5000dac0:	e3453001 	movt	r3, #20481	; 0x5001
5000dac4:	e5832000 	str	r2, [r3]
5000dac8:	e3a03000 	mov	r3, #0
5000dacc:	e1a00003 	mov	r0, r3
5000dad0:	e24bd004 	sub	sp, fp, #4
5000dad4:	e8bd8800 	pop	{fp, pc}

5000dad8 <_lr_lr_reach>:
5000dad8:	e92d4800 	push	{fp, lr}
5000dadc:	e28db004 	add	fp, sp, #4
5000dae0:	e24dd018 	sub	sp, sp, #24
5000dae4:	e50b0010 	str	r0, [fp, #-16]
5000dae8:	e50b1014 	str	r1, [fp, #-20]
5000daec:	e50b2018 	str	r2, [fp, #-24]
5000daf0:	e51b2014 	ldr	r2, [fp, #-20]
5000daf4:	e24b3008 	sub	r3, fp, #8
5000daf8:	e1a01002 	mov	r1, r2
5000dafc:	e3a02004 	mov	r2, #4
5000db00:	e1a00003 	mov	r0, r3
5000db04:	ebffde75 	bl	500054e0 <memcpy>
5000db08:	ea000021 	b	5000db94 <_lr_lr_reach+0xbc>
5000db0c:	e30c3d40 	movw	r3, #52544	; 0xcd40
5000db10:	e3453001 	movt	r3, #20481	; 0x5001
5000db14:	e5932000 	ldr	r2, [r3]
5000db18:	e2821001 	add	r1, r2, #1
5000db1c:	e30c3d40 	movw	r3, #52544	; 0xcd40
5000db20:	e3453001 	movt	r3, #20481	; 0x5001
5000db24:	e5831000 	str	r1, [r3]
5000db28:	e30d38bc 	movw	r3, #55484	; 0xd8bc
5000db2c:	e3453001 	movt	r3, #20481	; 0x5001
5000db30:	e1a02102 	lsl	r2, r2, #2
5000db34:	e0832002 	add	r2, r3, r2
5000db38:	e24b3008 	sub	r3, fp, #8
5000db3c:	e3a0c004 	mov	ip, #4
5000db40:	e1a00002 	mov	r0, r2
5000db44:	e1a01003 	mov	r1, r3
5000db48:	e1a0200c 	mov	r2, ip
5000db4c:	ebffde63 	bl	500054e0 <memcpy>
5000db50:	e24b3008 	sub	r3, fp, #8
5000db54:	e51b0010 	ldr	r0, [fp, #-16]
5000db58:	e1a01003 	mov	r1, r3
5000db5c:	e51b2018 	ldr	r2, [fp, #-24]
5000db60:	ebfffee0 	bl	5000d6e8 <_lr_reach>
5000db64:	e1a03000 	mov	r3, r0
5000db68:	e3530001 	cmp	r3, #1
5000db6c:	1a000001 	bne	5000db78 <_lr_lr_reach+0xa0>
5000db70:	e3a03001 	mov	r3, #1
5000db74:	ea0000ca 	b	5000dea4 <_lr_lr_reach+0x3cc>
5000db78:	e30c3d40 	movw	r3, #52544	; 0xcd40
5000db7c:	e3453001 	movt	r3, #20481	; 0x5001
5000db80:	e5933000 	ldr	r3, [r3]
5000db84:	e2432001 	sub	r2, r3, #1
5000db88:	e30c3d40 	movw	r3, #52544	; 0xcd40
5000db8c:	e3453001 	movt	r3, #20481	; 0x5001
5000db90:	e5832000 	str	r2, [r3]
5000db94:	e15b30b6 	ldrh	r3, [fp, #-6]
5000db98:	e6bf3073 	sxth	r3, r3
5000db9c:	e1a03203 	lsl	r3, r3, #4
5000dba0:	e1a02103 	lsl	r2, r3, #2
5000dba4:	e0633002 	rsb	r3, r3, r2
5000dba8:	e51b2010 	ldr	r2, [fp, #-16]
5000dbac:	e0823003 	add	r3, r2, r3
5000dbb0:	e15b20b8 	ldrh	r2, [fp, #-8]
5000dbb4:	e6ff2072 	uxth	r2, r2
5000dbb8:	e2422001 	sub	r2, r2, #1
5000dbbc:	e6ff2072 	uxth	r2, r2
5000dbc0:	e6ff2072 	uxth	r2, r2
5000dbc4:	e14b20b8 	strh	r2, [fp, #-8]
5000dbc8:	e15b20b8 	ldrh	r2, [fp, #-8]
5000dbcc:	e6bf2072 	sxth	r2, r2
5000dbd0:	e7933102 	ldr	r3, [r3, r2, lsl #2]
5000dbd4:	e3530000 	cmp	r3, #0
5000dbd8:	0affffcb 	beq	5000db0c <_lr_lr_reach+0x34>
5000dbdc:	e51b2014 	ldr	r2, [fp, #-20]
5000dbe0:	e24b3008 	sub	r3, fp, #8
5000dbe4:	e1a01002 	mov	r1, r2
5000dbe8:	e3a02004 	mov	r2, #4
5000dbec:	e1a00003 	mov	r0, r3
5000dbf0:	ebffde3a 	bl	500054e0 <memcpy>
5000dbf4:	ea000021 	b	5000dc80 <_lr_lr_reach+0x1a8>
5000dbf8:	e30c3d40 	movw	r3, #52544	; 0xcd40
5000dbfc:	e3453001 	movt	r3, #20481	; 0x5001
5000dc00:	e5932000 	ldr	r2, [r3]
5000dc04:	e2821001 	add	r1, r2, #1
5000dc08:	e30c3d40 	movw	r3, #52544	; 0xcd40
5000dc0c:	e3453001 	movt	r3, #20481	; 0x5001
5000dc10:	e5831000 	str	r1, [r3]
5000dc14:	e30d38bc 	movw	r3, #55484	; 0xd8bc
5000dc18:	e3453001 	movt	r3, #20481	; 0x5001
5000dc1c:	e1a02102 	lsl	r2, r2, #2
5000dc20:	e0832002 	add	r2, r3, r2
5000dc24:	e24b3008 	sub	r3, fp, #8
5000dc28:	e3a0c004 	mov	ip, #4
5000dc2c:	e1a00002 	mov	r0, r2
5000dc30:	e1a01003 	mov	r1, r3
5000dc34:	e1a0200c 	mov	r2, ip
5000dc38:	ebffde28 	bl	500054e0 <memcpy>
5000dc3c:	e24b3008 	sub	r3, fp, #8
5000dc40:	e51b0010 	ldr	r0, [fp, #-16]
5000dc44:	e1a01003 	mov	r1, r3
5000dc48:	e51b2018 	ldr	r2, [fp, #-24]
5000dc4c:	ebfffea5 	bl	5000d6e8 <_lr_reach>
5000dc50:	e1a03000 	mov	r3, r0
5000dc54:	e3530001 	cmp	r3, #1
5000dc58:	1a000001 	bne	5000dc64 <_lr_lr_reach+0x18c>
5000dc5c:	e3a03001 	mov	r3, #1
5000dc60:	ea00008f 	b	5000dea4 <_lr_lr_reach+0x3cc>
5000dc64:	e30c3d40 	movw	r3, #52544	; 0xcd40
5000dc68:	e3453001 	movt	r3, #20481	; 0x5001
5000dc6c:	e5933000 	ldr	r3, [r3]
5000dc70:	e2432001 	sub	r2, r3, #1
5000dc74:	e30c3d40 	movw	r3, #52544	; 0xcd40
5000dc78:	e3453001 	movt	r3, #20481	; 0x5001
5000dc7c:	e5832000 	str	r2, [r3]
5000dc80:	e15b30b6 	ldrh	r3, [fp, #-6]
5000dc84:	e6bf3073 	sxth	r3, r3
5000dc88:	e1a03203 	lsl	r3, r3, #4
5000dc8c:	e1a02103 	lsl	r2, r3, #2
5000dc90:	e0633002 	rsb	r3, r3, r2
5000dc94:	e51b2010 	ldr	r2, [fp, #-16]
5000dc98:	e0823003 	add	r3, r2, r3
5000dc9c:	e15b20b8 	ldrh	r2, [fp, #-8]
5000dca0:	e6ff2072 	uxth	r2, r2
5000dca4:	e2822001 	add	r2, r2, #1
5000dca8:	e6ff2072 	uxth	r2, r2
5000dcac:	e6ff2072 	uxth	r2, r2
5000dcb0:	e14b20b8 	strh	r2, [fp, #-8]
5000dcb4:	e15b20b8 	ldrh	r2, [fp, #-8]
5000dcb8:	e6bf2072 	sxth	r2, r2
5000dcbc:	e7933102 	ldr	r3, [r3, r2, lsl #2]
5000dcc0:	e3530000 	cmp	r3, #0
5000dcc4:	0affffcb 	beq	5000dbf8 <_lr_lr_reach+0x120>
5000dcc8:	e51b2014 	ldr	r2, [fp, #-20]
5000dccc:	e24b3008 	sub	r3, fp, #8
5000dcd0:	e1a01002 	mov	r1, r2
5000dcd4:	e3a02004 	mov	r2, #4
5000dcd8:	e1a00003 	mov	r0, r3
5000dcdc:	ebffddff 	bl	500054e0 <memcpy>
5000dce0:	ea000021 	b	5000dd6c <_lr_lr_reach+0x294>
5000dce4:	e30c3d40 	movw	r3, #52544	; 0xcd40
5000dce8:	e3453001 	movt	r3, #20481	; 0x5001
5000dcec:	e5932000 	ldr	r2, [r3]
5000dcf0:	e2821001 	add	r1, r2, #1
5000dcf4:	e30c3d40 	movw	r3, #52544	; 0xcd40
5000dcf8:	e3453001 	movt	r3, #20481	; 0x5001
5000dcfc:	e5831000 	str	r1, [r3]
5000dd00:	e30d38bc 	movw	r3, #55484	; 0xd8bc
5000dd04:	e3453001 	movt	r3, #20481	; 0x5001
5000dd08:	e1a02102 	lsl	r2, r2, #2
5000dd0c:	e0832002 	add	r2, r3, r2
5000dd10:	e24b3008 	sub	r3, fp, #8
5000dd14:	e3a0c004 	mov	ip, #4
5000dd18:	e1a00002 	mov	r0, r2
5000dd1c:	e1a01003 	mov	r1, r3
5000dd20:	e1a0200c 	mov	r2, ip
5000dd24:	ebffdded 	bl	500054e0 <memcpy>
5000dd28:	e24b3008 	sub	r3, fp, #8
5000dd2c:	e51b0010 	ldr	r0, [fp, #-16]
5000dd30:	e1a01003 	mov	r1, r3
5000dd34:	e51b2018 	ldr	r2, [fp, #-24]
5000dd38:	ebfffe6a 	bl	5000d6e8 <_lr_reach>
5000dd3c:	e1a03000 	mov	r3, r0
5000dd40:	e3530001 	cmp	r3, #1
5000dd44:	1a000001 	bne	5000dd50 <_lr_lr_reach+0x278>
5000dd48:	e3a03001 	mov	r3, #1
5000dd4c:	ea000054 	b	5000dea4 <_lr_lr_reach+0x3cc>
5000dd50:	e30c3d40 	movw	r3, #52544	; 0xcd40
5000dd54:	e3453001 	movt	r3, #20481	; 0x5001
5000dd58:	e5933000 	ldr	r3, [r3]
5000dd5c:	e2432001 	sub	r2, r3, #1
5000dd60:	e30c3d40 	movw	r3, #52544	; 0xcd40
5000dd64:	e3453001 	movt	r3, #20481	; 0x5001
5000dd68:	e5832000 	str	r2, [r3]
5000dd6c:	e15b30b6 	ldrh	r3, [fp, #-6]
5000dd70:	e6ff3073 	uxth	r3, r3
5000dd74:	e2433001 	sub	r3, r3, #1
5000dd78:	e6ff3073 	uxth	r3, r3
5000dd7c:	e6ff3073 	uxth	r3, r3
5000dd80:	e14b30b6 	strh	r3, [fp, #-6]
5000dd84:	e15b30b6 	ldrh	r3, [fp, #-6]
5000dd88:	e6bf3073 	sxth	r3, r3
5000dd8c:	e1a03203 	lsl	r3, r3, #4
5000dd90:	e1a02103 	lsl	r2, r3, #2
5000dd94:	e0633002 	rsb	r3, r3, r2
5000dd98:	e51b2010 	ldr	r2, [fp, #-16]
5000dd9c:	e0823003 	add	r3, r2, r3
5000dda0:	e15b20b8 	ldrh	r2, [fp, #-8]
5000dda4:	e6bf2072 	sxth	r2, r2
5000dda8:	e7933102 	ldr	r3, [r3, r2, lsl #2]
5000ddac:	e3530000 	cmp	r3, #0
5000ddb0:	0affffcb 	beq	5000dce4 <_lr_lr_reach+0x20c>
5000ddb4:	e51b2014 	ldr	r2, [fp, #-20]
5000ddb8:	e24b3008 	sub	r3, fp, #8
5000ddbc:	e1a01002 	mov	r1, r2
5000ddc0:	e3a02004 	mov	r2, #4
5000ddc4:	e1a00003 	mov	r0, r3
5000ddc8:	ebffddc4 	bl	500054e0 <memcpy>
5000ddcc:	ea000021 	b	5000de58 <_lr_lr_reach+0x380>
5000ddd0:	e30c3d40 	movw	r3, #52544	; 0xcd40
5000ddd4:	e3453001 	movt	r3, #20481	; 0x5001
5000ddd8:	e5932000 	ldr	r2, [r3]
5000dddc:	e2821001 	add	r1, r2, #1
5000dde0:	e30c3d40 	movw	r3, #52544	; 0xcd40
5000dde4:	e3453001 	movt	r3, #20481	; 0x5001
5000dde8:	e5831000 	str	r1, [r3]
5000ddec:	e30d38bc 	movw	r3, #55484	; 0xd8bc
5000ddf0:	e3453001 	movt	r3, #20481	; 0x5001
5000ddf4:	e1a02102 	lsl	r2, r2, #2
5000ddf8:	e0832002 	add	r2, r3, r2
5000ddfc:	e24b3008 	sub	r3, fp, #8
5000de00:	e3a0c004 	mov	ip, #4
5000de04:	e1a00002 	mov	r0, r2
5000de08:	e1a01003 	mov	r1, r3
5000de0c:	e1a0200c 	mov	r2, ip
5000de10:	ebffddb2 	bl	500054e0 <memcpy>
5000de14:	e24b3008 	sub	r3, fp, #8
5000de18:	e51b0010 	ldr	r0, [fp, #-16]
5000de1c:	e1a01003 	mov	r1, r3
5000de20:	e51b2018 	ldr	r2, [fp, #-24]
5000de24:	ebfffe2f 	bl	5000d6e8 <_lr_reach>
5000de28:	e1a03000 	mov	r3, r0
5000de2c:	e3530001 	cmp	r3, #1
5000de30:	1a000001 	bne	5000de3c <_lr_lr_reach+0x364>
5000de34:	e3a03001 	mov	r3, #1
5000de38:	ea000019 	b	5000dea4 <_lr_lr_reach+0x3cc>
5000de3c:	e30c3d40 	movw	r3, #52544	; 0xcd40
5000de40:	e3453001 	movt	r3, #20481	; 0x5001
5000de44:	e5933000 	ldr	r3, [r3]
5000de48:	e2432001 	sub	r2, r3, #1
5000de4c:	e30c3d40 	movw	r3, #52544	; 0xcd40
5000de50:	e3453001 	movt	r3, #20481	; 0x5001
5000de54:	e5832000 	str	r2, [r3]
5000de58:	e15b30b6 	ldrh	r3, [fp, #-6]
5000de5c:	e6ff3073 	uxth	r3, r3
5000de60:	e2833001 	add	r3, r3, #1
5000de64:	e6ff3073 	uxth	r3, r3
5000de68:	e6ff3073 	uxth	r3, r3
5000de6c:	e14b30b6 	strh	r3, [fp, #-6]
5000de70:	e15b30b6 	ldrh	r3, [fp, #-6]
5000de74:	e6bf3073 	sxth	r3, r3
5000de78:	e1a03203 	lsl	r3, r3, #4
5000de7c:	e1a02103 	lsl	r2, r3, #2
5000de80:	e0633002 	rsb	r3, r3, r2
5000de84:	e51b2010 	ldr	r2, [fp, #-16]
5000de88:	e0823003 	add	r3, r2, r3
5000de8c:	e15b20b8 	ldrh	r2, [fp, #-8]
5000de90:	e6bf2072 	sxth	r2, r2
5000de94:	e7933102 	ldr	r3, [r3, r2, lsl #2]
5000de98:	e3530000 	cmp	r3, #0
5000de9c:	0affffcb 	beq	5000ddd0 <_lr_lr_reach+0x2f8>
5000dea0:	e3a03000 	mov	r3, #0
5000dea4:	e1a00003 	mov	r0, r3
5000dea8:	e24bd004 	sub	sp, fp, #4
5000deac:	e8bd8800 	pop	{fp, pc}

5000deb0 <lian_check>:
5000deb0:	e92d4800 	push	{fp, lr}
5000deb4:	e28db004 	add	fp, sp, #4
5000deb8:	e24dd010 	sub	sp, sp, #16
5000debc:	e50b0008 	str	r0, [fp, #-8]
5000dec0:	e50b100c 	str	r1, [fp, #-12]
5000dec4:	e50b2010 	str	r2, [fp, #-16]
5000dec8:	e51b300c 	ldr	r3, [fp, #-12]
5000decc:	e1d320b0 	ldrh	r2, [r3]
5000ded0:	e51b3010 	ldr	r3, [fp, #-16]
5000ded4:	e1d330b0 	ldrh	r3, [r3]
5000ded8:	e6bf2072 	sxth	r2, r2
5000dedc:	e6bf3073 	sxth	r3, r3
5000dee0:	e1520003 	cmp	r2, r3
5000dee4:	1a000009 	bne	5000df10 <lian_check+0x60>
5000dee8:	e51b300c 	ldr	r3, [fp, #-12]
5000deec:	e1d320b2 	ldrh	r2, [r3, #2]
5000def0:	e51b3010 	ldr	r3, [fp, #-16]
5000def4:	e1d330b2 	ldrh	r3, [r3, #2]
5000def8:	e6bf2072 	sxth	r2, r2
5000defc:	e6bf3073 	sxth	r3, r3
5000df00:	e1520003 	cmp	r2, r3
5000df04:	1a000001 	bne	5000df10 <lian_check+0x60>
5000df08:	e3a03000 	mov	r3, #0
5000df0c:	ea00008b 	b	5000e140 <lian_check+0x290>
5000df10:	e51b300c 	ldr	r3, [fp, #-12]
5000df14:	e1d330b2 	ldrh	r3, [r3, #2]
5000df18:	e6bf3073 	sxth	r3, r3
5000df1c:	e1a03203 	lsl	r3, r3, #4
5000df20:	e1a02103 	lsl	r2, r3, #2
5000df24:	e0633002 	rsb	r3, r3, r2
5000df28:	e51b2008 	ldr	r2, [fp, #-8]
5000df2c:	e0823003 	add	r3, r2, r3
5000df30:	e51b200c 	ldr	r2, [fp, #-12]
5000df34:	e1d220b0 	ldrh	r2, [r2]
5000df38:	e6bf2072 	sxth	r2, r2
5000df3c:	e7933102 	ldr	r3, [r3, r2, lsl #2]
5000df40:	e3530000 	cmp	r3, #0
5000df44:	1a000001 	bne	5000df50 <lian_check+0xa0>
5000df48:	e3a03000 	mov	r3, #0
5000df4c:	ea00007b 	b	5000e140 <lian_check+0x290>
5000df50:	e51b300c 	ldr	r3, [fp, #-12]
5000df54:	e1d330b2 	ldrh	r3, [r3, #2]
5000df58:	e6bf3073 	sxth	r3, r3
5000df5c:	e1a03203 	lsl	r3, r3, #4
5000df60:	e1a02103 	lsl	r2, r3, #2
5000df64:	e0633002 	rsb	r3, r3, r2
5000df68:	e51b2008 	ldr	r2, [fp, #-8]
5000df6c:	e0823003 	add	r3, r2, r3
5000df70:	e51b200c 	ldr	r2, [fp, #-12]
5000df74:	e1d220b0 	ldrh	r2, [r2]
5000df78:	e6bf2072 	sxth	r2, r2
5000df7c:	e7932102 	ldr	r2, [r3, r2, lsl #2]
5000df80:	e51b3010 	ldr	r3, [fp, #-16]
5000df84:	e1d330b2 	ldrh	r3, [r3, #2]
5000df88:	e6bf3073 	sxth	r3, r3
5000df8c:	e1a03203 	lsl	r3, r3, #4
5000df90:	e1a01103 	lsl	r1, r3, #2
5000df94:	e0633001 	rsb	r3, r3, r1
5000df98:	e51b1008 	ldr	r1, [fp, #-8]
5000df9c:	e0813003 	add	r3, r1, r3
5000dfa0:	e51b1010 	ldr	r1, [fp, #-16]
5000dfa4:	e1d110b0 	ldrh	r1, [r1]
5000dfa8:	e6bf1071 	sxth	r1, r1
5000dfac:	e7933101 	ldr	r3, [r3, r1, lsl #2]
5000dfb0:	e1520003 	cmp	r2, r3
5000dfb4:	0a000001 	beq	5000dfc0 <lian_check+0x110>
5000dfb8:	e3a03000 	mov	r3, #0
5000dfbc:	ea00005f 	b	5000e140 <lian_check+0x290>
5000dfc0:	e30c3d40 	movw	r3, #52544	; 0xcd40
5000dfc4:	e3453001 	movt	r3, #20481	; 0x5001
5000dfc8:	e3a02000 	mov	r2, #0
5000dfcc:	e5832000 	str	r2, [r3]
5000dfd0:	e30c3d40 	movw	r3, #52544	; 0xcd40
5000dfd4:	e3453001 	movt	r3, #20481	; 0x5001
5000dfd8:	e5932000 	ldr	r2, [r3]
5000dfdc:	e2821001 	add	r1, r2, #1
5000dfe0:	e30c3d40 	movw	r3, #52544	; 0xcd40
5000dfe4:	e3453001 	movt	r3, #20481	; 0x5001
5000dfe8:	e5831000 	str	r1, [r3]
5000dfec:	e30d38bc 	movw	r3, #55484	; 0xd8bc
5000dff0:	e3453001 	movt	r3, #20481	; 0x5001
5000dff4:	e51b100c 	ldr	r1, [fp, #-12]
5000dff8:	e1a02102 	lsl	r2, r2, #2
5000dffc:	e0832002 	add	r2, r3, r2
5000e000:	e3a03004 	mov	r3, #4
5000e004:	e1a00002 	mov	r0, r2
5000e008:	e1a02003 	mov	r2, r3
5000e00c:	ebffdd33 	bl	500054e0 <memcpy>
5000e010:	e51b0008 	ldr	r0, [fp, #-8]
5000e014:	e51b100c 	ldr	r1, [fp, #-12]
5000e018:	e51b2010 	ldr	r2, [fp, #-16]
5000e01c:	ebfffcc8 	bl	5000d344 <_reach>
5000e020:	e1a03000 	mov	r3, r0
5000e024:	e3530001 	cmp	r3, #1
5000e028:	1a000011 	bne	5000e074 <lian_check+0x1c4>
5000e02c:	e30c3d40 	movw	r3, #52544	; 0xcd40
5000e030:	e3453001 	movt	r3, #20481	; 0x5001
5000e034:	e5932000 	ldr	r2, [r3]
5000e038:	e2821001 	add	r1, r2, #1
5000e03c:	e30c3d40 	movw	r3, #52544	; 0xcd40
5000e040:	e3453001 	movt	r3, #20481	; 0x5001
5000e044:	e5831000 	str	r1, [r3]
5000e048:	e30d38bc 	movw	r3, #55484	; 0xd8bc
5000e04c:	e3453001 	movt	r3, #20481	; 0x5001
5000e050:	e51b1010 	ldr	r1, [fp, #-16]
5000e054:	e1a02102 	lsl	r2, r2, #2
5000e058:	e0832002 	add	r2, r3, r2
5000e05c:	e3a03004 	mov	r3, #4
5000e060:	e1a00002 	mov	r0, r2
5000e064:	e1a02003 	mov	r2, r3
5000e068:	ebffdd1c 	bl	500054e0 <memcpy>
5000e06c:	e3a03001 	mov	r3, #1
5000e070:	ea000032 	b	5000e140 <lian_check+0x290>
5000e074:	e51b0008 	ldr	r0, [fp, #-8]
5000e078:	e51b100c 	ldr	r1, [fp, #-12]
5000e07c:	e51b2010 	ldr	r2, [fp, #-16]
5000e080:	ebfffd98 	bl	5000d6e8 <_lr_reach>
5000e084:	e1a03000 	mov	r3, r0
5000e088:	e3530001 	cmp	r3, #1
5000e08c:	1a000011 	bne	5000e0d8 <lian_check+0x228>
5000e090:	e30c3d40 	movw	r3, #52544	; 0xcd40
5000e094:	e3453001 	movt	r3, #20481	; 0x5001
5000e098:	e5932000 	ldr	r2, [r3]
5000e09c:	e2821001 	add	r1, r2, #1
5000e0a0:	e30c3d40 	movw	r3, #52544	; 0xcd40
5000e0a4:	e3453001 	movt	r3, #20481	; 0x5001
5000e0a8:	e5831000 	str	r1, [r3]
5000e0ac:	e30d38bc 	movw	r3, #55484	; 0xd8bc
5000e0b0:	e3453001 	movt	r3, #20481	; 0x5001
5000e0b4:	e51b1010 	ldr	r1, [fp, #-16]
5000e0b8:	e1a02102 	lsl	r2, r2, #2
5000e0bc:	e0832002 	add	r2, r3, r2
5000e0c0:	e3a03004 	mov	r3, #4
5000e0c4:	e1a00002 	mov	r0, r2
5000e0c8:	e1a02003 	mov	r2, r3
5000e0cc:	ebffdd03 	bl	500054e0 <memcpy>
5000e0d0:	e3a03001 	mov	r3, #1
5000e0d4:	ea000019 	b	5000e140 <lian_check+0x290>
5000e0d8:	e51b0008 	ldr	r0, [fp, #-8]
5000e0dc:	e51b100c 	ldr	r1, [fp, #-12]
5000e0e0:	e51b2010 	ldr	r2, [fp, #-16]
5000e0e4:	ebfffe7b 	bl	5000dad8 <_lr_lr_reach>
5000e0e8:	e1a03000 	mov	r3, r0
5000e0ec:	e3530001 	cmp	r3, #1
5000e0f0:	1a000011 	bne	5000e13c <lian_check+0x28c>
5000e0f4:	e30c3d40 	movw	r3, #52544	; 0xcd40
5000e0f8:	e3453001 	movt	r3, #20481	; 0x5001
5000e0fc:	e5932000 	ldr	r2, [r3]
5000e100:	e2821001 	add	r1, r2, #1
5000e104:	e30c3d40 	movw	r3, #52544	; 0xcd40
5000e108:	e3453001 	movt	r3, #20481	; 0x5001
5000e10c:	e5831000 	str	r1, [r3]
5000e110:	e30d38bc 	movw	r3, #55484	; 0xd8bc
5000e114:	e3453001 	movt	r3, #20481	; 0x5001
5000e118:	e51b1010 	ldr	r1, [fp, #-16]
5000e11c:	e1a02102 	lsl	r2, r2, #2
5000e120:	e0832002 	add	r2, r3, r2
5000e124:	e3a03004 	mov	r3, #4
5000e128:	e1a00002 	mov	r0, r2
5000e12c:	e1a02003 	mov	r2, r3
5000e130:	ebffdcea 	bl	500054e0 <memcpy>
5000e134:	e3a03001 	mov	r3, #1
5000e138:	ea000000 	b	5000e140 <lian_check+0x290>
5000e13c:	e3a03000 	mov	r3, #0
5000e140:	e1a00003 	mov	r0, r3
5000e144:	e24bd004 	sub	sp, fp, #4
5000e148:	e8bd8800 	pop	{fp, pc}

5000e14c <_push_op>:
5000e14c:	e92d4800 	push	{fp, lr}
5000e150:	e28db004 	add	fp, sp, #4
5000e154:	e24dd008 	sub	sp, sp, #8
5000e158:	e50b0008 	str	r0, [fp, #-8]
5000e15c:	e50b100c 	str	r1, [fp, #-12]
5000e160:	e30c3d48 	movw	r3, #52552	; 0xcd48
5000e164:	e3453001 	movt	r3, #20481	; 0x5001
5000e168:	e5932000 	ldr	r2, [r3]
5000e16c:	e30c3d4c 	movw	r3, #52556	; 0xcd4c
5000e170:	e3453001 	movt	r3, #20481	; 0x5001
5000e174:	e51b1008 	ldr	r1, [fp, #-8]
5000e178:	e1a02182 	lsl	r2, r2, #3
5000e17c:	e0832002 	add	r2, r3, r2
5000e180:	e3a03004 	mov	r3, #4
5000e184:	e1a00002 	mov	r0, r2
5000e188:	e1a02003 	mov	r2, r3
5000e18c:	ebffdcd3 	bl	500054e0 <memcpy>
5000e190:	e30c3d48 	movw	r3, #52552	; 0xcd48
5000e194:	e3453001 	movt	r3, #20481	; 0x5001
5000e198:	e5933000 	ldr	r3, [r3]
5000e19c:	e30c2d4c 	movw	r2, #52556	; 0xcd4c
5000e1a0:	e3452001 	movt	r2, #20481	; 0x5001
5000e1a4:	e1a03183 	lsl	r3, r3, #3
5000e1a8:	e0823003 	add	r3, r2, r3
5000e1ac:	e51b200c 	ldr	r2, [fp, #-12]
5000e1b0:	e2833004 	add	r3, r3, #4
5000e1b4:	e1a01002 	mov	r1, r2
5000e1b8:	e3a02004 	mov	r2, #4
5000e1bc:	e1a00003 	mov	r0, r3
5000e1c0:	ebffdcc6 	bl	500054e0 <memcpy>
5000e1c4:	e30c3d48 	movw	r3, #52552	; 0xcd48
5000e1c8:	e3453001 	movt	r3, #20481	; 0x5001
5000e1cc:	e5933000 	ldr	r3, [r3]
5000e1d0:	e2832001 	add	r2, r3, #1
5000e1d4:	e30c3d48 	movw	r3, #52552	; 0xcd48
5000e1d8:	e3453001 	movt	r3, #20481	; 0x5001
5000e1dc:	e5832000 	str	r2, [r3]
5000e1e0:	e24bd004 	sub	sp, fp, #4
5000e1e4:	e8bd8800 	pop	{fp, pc}

5000e1e8 <_pop_op>:
5000e1e8:	e52db004 	push	{fp}		; (str fp, [sp, #-4]!)
5000e1ec:	e28db000 	add	fp, sp, #0
5000e1f0:	e30c3d48 	movw	r3, #52552	; 0xcd48
5000e1f4:	e3453001 	movt	r3, #20481	; 0x5001
5000e1f8:	e5933000 	ldr	r3, [r3]
5000e1fc:	e2432001 	sub	r2, r3, #1
5000e200:	e30c3d48 	movw	r3, #52552	; 0xcd48
5000e204:	e3453001 	movt	r3, #20481	; 0x5001
5000e208:	e5832000 	str	r2, [r3]
5000e20c:	e24bd000 	sub	sp, fp, #0
5000e210:	e49db004 	pop	{fp}		; (ldr fp, [sp], #4)
5000e214:	e12fff1e 	bx	lr

5000e218 <_save_op>:
5000e218:	e92d4800 	push	{fp, lr}
5000e21c:	e28db004 	add	fp, sp, #4
5000e220:	e30c3d48 	movw	r3, #52552	; 0xcd48
5000e224:	e3453001 	movt	r3, #20481	; 0x5001
5000e228:	e5932000 	ldr	r2, [r3]
5000e22c:	e30c3d44 	movw	r3, #52548	; 0xcd44
5000e230:	e3453001 	movt	r3, #20481	; 0x5001
5000e234:	e5933000 	ldr	r3, [r3]
5000e238:	e1520003 	cmp	r2, r3
5000e23c:	da00000f 	ble	5000e280 <_save_op+0x68>
5000e240:	e30c3d48 	movw	r3, #52552	; 0xcd48
5000e244:	e3453001 	movt	r3, #20481	; 0x5001
5000e248:	e5932000 	ldr	r2, [r3]
5000e24c:	e30c3d44 	movw	r3, #52548	; 0xcd44
5000e250:	e3453001 	movt	r3, #20481	; 0x5001
5000e254:	e5832000 	str	r2, [r3]
5000e258:	e30c3d44 	movw	r3, #52548	; 0xcd44
5000e25c:	e3453001 	movt	r3, #20481	; 0x5001
5000e260:	e5933000 	ldr	r3, [r3]
5000e264:	e1a03183 	lsl	r3, r3, #3
5000e268:	e30d072c 	movw	r0, #55084	; 0xd72c
5000e26c:	e3450001 	movt	r0, #20481	; 0x5001
5000e270:	e30c1d4c 	movw	r1, #52556	; 0xcd4c
5000e274:	e3451001 	movt	r1, #20481	; 0x5001
5000e278:	e1a02003 	mov	r2, r3
5000e27c:	ebffdc97 	bl	500054e0 <memcpy>
5000e280:	e8bd8800 	pop	{fp, pc}

5000e284 <lian_left>:
5000e284:	e92d4800 	push	{fp, lr}
5000e288:	e28db004 	add	fp, sp, #4
5000e28c:	e24dd030 	sub	sp, sp, #48	; 0x30
5000e290:	e50b0030 	str	r0, [fp, #-48]	; 0x30
5000e294:	e50b1034 	str	r1, [fp, #-52]	; 0x34
5000e298:	e51b3034 	ldr	r3, [fp, #-52]	; 0x34
5000e29c:	e50b3018 	str	r3, [fp, #-24]
5000e2a0:	e30c3d44 	movw	r3, #52548	; 0xcd44
5000e2a4:	e3453001 	movt	r3, #20481	; 0x5001
5000e2a8:	e3a02000 	mov	r2, #0
5000e2ac:	e5832000 	str	r2, [r3]
5000e2b0:	e51b3034 	ldr	r3, [fp, #-52]	; 0x34
5000e2b4:	e3530000 	cmp	r3, #0
5000e2b8:	1a000000 	bne	5000e2c0 <lian_left+0x3c>
5000e2bc:	ea000103 	b	5000e6d0 <lian_left+0x44c>
5000e2c0:	e3a03001 	mov	r3, #1
5000e2c4:	e50b3008 	str	r3, [fp, #-8]
5000e2c8:	ea0000fd 	b	5000e6c4 <lian_left+0x440>
5000e2cc:	e3a03001 	mov	r3, #1
5000e2d0:	e50b300c 	str	r3, [fp, #-12]
5000e2d4:	ea0000f4 	b	5000e6ac <lian_left+0x428>
5000e2d8:	e51b3008 	ldr	r3, [fp, #-8]
5000e2dc:	e6ff3073 	uxth	r3, r3
5000e2e0:	e14b32b6 	strh	r3, [fp, #-38]	; 0xffffffda
5000e2e4:	e51b300c 	ldr	r3, [fp, #-12]
5000e2e8:	e6ff3073 	uxth	r3, r3
5000e2ec:	e14b32b8 	strh	r3, [fp, #-40]	; 0xffffffd8
5000e2f0:	e15b32b8 	ldrh	r3, [fp, #-40]	; 0xffffffd8
5000e2f4:	e6bf3073 	sxth	r3, r3
5000e2f8:	e2833001 	add	r3, r3, #1
5000e2fc:	e50b3014 	str	r3, [fp, #-20]
5000e300:	ea000068 	b	5000e4a8 <lian_left+0x224>
5000e304:	e15b32b6 	ldrh	r3, [fp, #-38]	; 0xffffffda
5000e308:	e14b32ba 	strh	r3, [fp, #-42]	; 0xffffffd6
5000e30c:	e51b3014 	ldr	r3, [fp, #-20]
5000e310:	e6ff3073 	uxth	r3, r3
5000e314:	e14b32bc 	strh	r3, [fp, #-44]	; 0xffffffd4
5000e318:	e24b2028 	sub	r2, fp, #40	; 0x28
5000e31c:	e24b302c 	sub	r3, fp, #44	; 0x2c
5000e320:	e51b0030 	ldr	r0, [fp, #-48]	; 0x30
5000e324:	e1a01002 	mov	r1, r2
5000e328:	e1a02003 	mov	r2, r3
5000e32c:	ebfffedf 	bl	5000deb0 <lian_check>
5000e330:	e1a03000 	mov	r3, r0
5000e334:	e3530001 	cmp	r3, #1
5000e338:	1a000057 	bne	5000e49c <lian_left+0x218>
5000e33c:	e15b32b6 	ldrh	r3, [fp, #-38]	; 0xffffffda
5000e340:	e6bf3073 	sxth	r3, r3
5000e344:	e1a03203 	lsl	r3, r3, #4
5000e348:	e1a02103 	lsl	r2, r3, #2
5000e34c:	e0633002 	rsb	r3, r3, r2
5000e350:	e51b2030 	ldr	r2, [fp, #-48]	; 0x30
5000e354:	e0823003 	add	r3, r2, r3
5000e358:	e15b22b8 	ldrh	r2, [fp, #-40]	; 0xffffffd8
5000e35c:	e6bf2072 	sxth	r2, r2
5000e360:	e7933102 	ldr	r3, [r3, r2, lsl #2]
5000e364:	e50b301c 	str	r3, [fp, #-28]
5000e368:	e15b32ba 	ldrh	r3, [fp, #-42]	; 0xffffffd6
5000e36c:	e6bf3073 	sxth	r3, r3
5000e370:	e1a03203 	lsl	r3, r3, #4
5000e374:	e1a02103 	lsl	r2, r3, #2
5000e378:	e0633002 	rsb	r3, r3, r2
5000e37c:	e51b2030 	ldr	r2, [fp, #-48]	; 0x30
5000e380:	e0823003 	add	r3, r2, r3
5000e384:	e15b22bc 	ldrh	r2, [fp, #-44]	; 0xffffffd4
5000e388:	e6bf2072 	sxth	r2, r2
5000e38c:	e7933102 	ldr	r3, [r3, r2, lsl #2]
5000e390:	e50b3020 	str	r3, [fp, #-32]
5000e394:	e15b32b6 	ldrh	r3, [fp, #-38]	; 0xffffffda
5000e398:	e6bf3073 	sxth	r3, r3
5000e39c:	e1a03203 	lsl	r3, r3, #4
5000e3a0:	e1a02103 	lsl	r2, r3, #2
5000e3a4:	e0633002 	rsb	r3, r3, r2
5000e3a8:	e51b2030 	ldr	r2, [fp, #-48]	; 0x30
5000e3ac:	e0823003 	add	r3, r2, r3
5000e3b0:	e15b22b8 	ldrh	r2, [fp, #-40]	; 0xffffffd8
5000e3b4:	e6bf2072 	sxth	r2, r2
5000e3b8:	e3a01000 	mov	r1, #0
5000e3bc:	e7831102 	str	r1, [r3, r2, lsl #2]
5000e3c0:	e15b32ba 	ldrh	r3, [fp, #-42]	; 0xffffffd6
5000e3c4:	e6bf3073 	sxth	r3, r3
5000e3c8:	e1a03203 	lsl	r3, r3, #4
5000e3cc:	e1a02103 	lsl	r2, r3, #2
5000e3d0:	e0633002 	rsb	r3, r3, r2
5000e3d4:	e51b2030 	ldr	r2, [fp, #-48]	; 0x30
5000e3d8:	e0823003 	add	r3, r2, r3
5000e3dc:	e15b22bc 	ldrh	r2, [fp, #-44]	; 0xffffffd4
5000e3e0:	e6bf2072 	sxth	r2, r2
5000e3e4:	e3a01000 	mov	r1, #0
5000e3e8:	e7831102 	str	r1, [r3, r2, lsl #2]
5000e3ec:	e24b2028 	sub	r2, fp, #40	; 0x28
5000e3f0:	e24b302c 	sub	r3, fp, #44	; 0x2c
5000e3f4:	e1a00002 	mov	r0, r2
5000e3f8:	e1a01003 	mov	r1, r3
5000e3fc:	ebffff52 	bl	5000e14c <_push_op>
5000e400:	e51b3034 	ldr	r3, [fp, #-52]	; 0x34
5000e404:	e2433002 	sub	r3, r3, #2
5000e408:	e51b0030 	ldr	r0, [fp, #-48]	; 0x30
5000e40c:	e1a01003 	mov	r1, r3
5000e410:	ebffff9b 	bl	5000e284 <lian_left>
5000e414:	e50b0024 	str	r0, [fp, #-36]	; 0x24
5000e418:	ebffff72 	bl	5000e1e8 <_pop_op>
5000e41c:	e15b32b6 	ldrh	r3, [fp, #-38]	; 0xffffffda
5000e420:	e6bf3073 	sxth	r3, r3
5000e424:	e1a03203 	lsl	r3, r3, #4
5000e428:	e1a02103 	lsl	r2, r3, #2
5000e42c:	e0633002 	rsb	r3, r3, r2
5000e430:	e51b2030 	ldr	r2, [fp, #-48]	; 0x30
5000e434:	e0823003 	add	r3, r2, r3
5000e438:	e15b22b8 	ldrh	r2, [fp, #-40]	; 0xffffffd8
5000e43c:	e6bf2072 	sxth	r2, r2
5000e440:	e51b101c 	ldr	r1, [fp, #-28]
5000e444:	e7831102 	str	r1, [r3, r2, lsl #2]
5000e448:	e15b32ba 	ldrh	r3, [fp, #-42]	; 0xffffffd6
5000e44c:	e6bf3073 	sxth	r3, r3
5000e450:	e1a03203 	lsl	r3, r3, #4
5000e454:	e1a02103 	lsl	r2, r3, #2
5000e458:	e0633002 	rsb	r3, r3, r2
5000e45c:	e51b2030 	ldr	r2, [fp, #-48]	; 0x30
5000e460:	e0823003 	add	r3, r2, r3
5000e464:	e15b22bc 	ldrh	r2, [fp, #-44]	; 0xffffffd4
5000e468:	e6bf2072 	sxth	r2, r2
5000e46c:	e51b1020 	ldr	r1, [fp, #-32]
5000e470:	e7831102 	str	r1, [r3, r2, lsl #2]
5000e474:	e51b2018 	ldr	r2, [fp, #-24]
5000e478:	e51b3024 	ldr	r3, [fp, #-36]	; 0x24
5000e47c:	e1520003 	cmp	r2, r3
5000e480:	b1a03002 	movlt	r3, r2
5000e484:	a1a03003 	movge	r3, r3
5000e488:	e50b3018 	str	r3, [fp, #-24]
5000e48c:	e51b3018 	ldr	r3, [fp, #-24]
5000e490:	e3530000 	cmp	r3, #0
5000e494:	1a000000 	bne	5000e49c <lian_left+0x218>
5000e498:	ea00008c 	b	5000e6d0 <lian_left+0x44c>
5000e49c:	e51b3014 	ldr	r3, [fp, #-20]
5000e4a0:	e2833001 	add	r3, r3, #1
5000e4a4:	e50b3014 	str	r3, [fp, #-20]
5000e4a8:	e51b3014 	ldr	r3, [fp, #-20]
5000e4ac:	e353000a 	cmp	r3, #10
5000e4b0:	daffff93 	ble	5000e304 <lian_left+0x80>
5000e4b4:	e15b32b6 	ldrh	r3, [fp, #-38]	; 0xffffffda
5000e4b8:	e6bf3073 	sxth	r3, r3
5000e4bc:	e2833001 	add	r3, r3, #1
5000e4c0:	e50b3010 	str	r3, [fp, #-16]
5000e4c4:	ea000072 	b	5000e694 <lian_left+0x410>
5000e4c8:	e3a03001 	mov	r3, #1
5000e4cc:	e50b3014 	str	r3, [fp, #-20]
5000e4d0:	ea000069 	b	5000e67c <lian_left+0x3f8>
5000e4d4:	e51b3010 	ldr	r3, [fp, #-16]
5000e4d8:	e6ff3073 	uxth	r3, r3
5000e4dc:	e14b32ba 	strh	r3, [fp, #-42]	; 0xffffffd6
5000e4e0:	e51b3014 	ldr	r3, [fp, #-20]
5000e4e4:	e6ff3073 	uxth	r3, r3
5000e4e8:	e14b32bc 	strh	r3, [fp, #-44]	; 0xffffffd4
5000e4ec:	e24b2028 	sub	r2, fp, #40	; 0x28
5000e4f0:	e24b302c 	sub	r3, fp, #44	; 0x2c
5000e4f4:	e51b0030 	ldr	r0, [fp, #-48]	; 0x30
5000e4f8:	e1a01002 	mov	r1, r2
5000e4fc:	e1a02003 	mov	r2, r3
5000e500:	ebfffe6a 	bl	5000deb0 <lian_check>
5000e504:	e1a03000 	mov	r3, r0
5000e508:	e3530001 	cmp	r3, #1
5000e50c:	1a000057 	bne	5000e670 <lian_left+0x3ec>
5000e510:	e15b32b6 	ldrh	r3, [fp, #-38]	; 0xffffffda
5000e514:	e6bf3073 	sxth	r3, r3
5000e518:	e1a03203 	lsl	r3, r3, #4
5000e51c:	e1a02103 	lsl	r2, r3, #2
5000e520:	e0633002 	rsb	r3, r3, r2
5000e524:	e51b2030 	ldr	r2, [fp, #-48]	; 0x30
5000e528:	e0823003 	add	r3, r2, r3
5000e52c:	e15b22b8 	ldrh	r2, [fp, #-40]	; 0xffffffd8
5000e530:	e6bf2072 	sxth	r2, r2
5000e534:	e7933102 	ldr	r3, [r3, r2, lsl #2]
5000e538:	e50b301c 	str	r3, [fp, #-28]
5000e53c:	e15b32ba 	ldrh	r3, [fp, #-42]	; 0xffffffd6
5000e540:	e6bf3073 	sxth	r3, r3
5000e544:	e1a03203 	lsl	r3, r3, #4
5000e548:	e1a02103 	lsl	r2, r3, #2
5000e54c:	e0633002 	rsb	r3, r3, r2
5000e550:	e51b2030 	ldr	r2, [fp, #-48]	; 0x30
5000e554:	e0823003 	add	r3, r2, r3
5000e558:	e15b22bc 	ldrh	r2, [fp, #-44]	; 0xffffffd4
5000e55c:	e6bf2072 	sxth	r2, r2
5000e560:	e7933102 	ldr	r3, [r3, r2, lsl #2]
5000e564:	e50b3020 	str	r3, [fp, #-32]
5000e568:	e15b32b6 	ldrh	r3, [fp, #-38]	; 0xffffffda
5000e56c:	e6bf3073 	sxth	r3, r3
5000e570:	e1a03203 	lsl	r3, r3, #4
5000e574:	e1a02103 	lsl	r2, r3, #2
5000e578:	e0633002 	rsb	r3, r3, r2
5000e57c:	e51b2030 	ldr	r2, [fp, #-48]	; 0x30
5000e580:	e0823003 	add	r3, r2, r3
5000e584:	e15b22b8 	ldrh	r2, [fp, #-40]	; 0xffffffd8
5000e588:	e6bf2072 	sxth	r2, r2
5000e58c:	e3a01000 	mov	r1, #0
5000e590:	e7831102 	str	r1, [r3, r2, lsl #2]
5000e594:	e15b32ba 	ldrh	r3, [fp, #-42]	; 0xffffffd6
5000e598:	e6bf3073 	sxth	r3, r3
5000e59c:	e1a03203 	lsl	r3, r3, #4
5000e5a0:	e1a02103 	lsl	r2, r3, #2
5000e5a4:	e0633002 	rsb	r3, r3, r2
5000e5a8:	e51b2030 	ldr	r2, [fp, #-48]	; 0x30
5000e5ac:	e0823003 	add	r3, r2, r3
5000e5b0:	e15b22bc 	ldrh	r2, [fp, #-44]	; 0xffffffd4
5000e5b4:	e6bf2072 	sxth	r2, r2
5000e5b8:	e3a01000 	mov	r1, #0
5000e5bc:	e7831102 	str	r1, [r3, r2, lsl #2]
5000e5c0:	e24b2028 	sub	r2, fp, #40	; 0x28
5000e5c4:	e24b302c 	sub	r3, fp, #44	; 0x2c
5000e5c8:	e1a00002 	mov	r0, r2
5000e5cc:	e1a01003 	mov	r1, r3
5000e5d0:	ebfffedd 	bl	5000e14c <_push_op>
5000e5d4:	e51b3034 	ldr	r3, [fp, #-52]	; 0x34
5000e5d8:	e2433002 	sub	r3, r3, #2
5000e5dc:	e51b0030 	ldr	r0, [fp, #-48]	; 0x30
5000e5e0:	e1a01003 	mov	r1, r3
5000e5e4:	ebffff26 	bl	5000e284 <lian_left>
5000e5e8:	e50b0024 	str	r0, [fp, #-36]	; 0x24
5000e5ec:	ebfffefd 	bl	5000e1e8 <_pop_op>
5000e5f0:	e15b32b6 	ldrh	r3, [fp, #-38]	; 0xffffffda
5000e5f4:	e6bf3073 	sxth	r3, r3
5000e5f8:	e1a03203 	lsl	r3, r3, #4
5000e5fc:	e1a02103 	lsl	r2, r3, #2
5000e600:	e0633002 	rsb	r3, r3, r2
5000e604:	e51b2030 	ldr	r2, [fp, #-48]	; 0x30
5000e608:	e0823003 	add	r3, r2, r3
5000e60c:	e15b22b8 	ldrh	r2, [fp, #-40]	; 0xffffffd8
5000e610:	e6bf2072 	sxth	r2, r2
5000e614:	e51b101c 	ldr	r1, [fp, #-28]
5000e618:	e7831102 	str	r1, [r3, r2, lsl #2]
5000e61c:	e15b32ba 	ldrh	r3, [fp, #-42]	; 0xffffffd6
5000e620:	e6bf3073 	sxth	r3, r3
5000e624:	e1a03203 	lsl	r3, r3, #4
5000e628:	e1a02103 	lsl	r2, r3, #2
5000e62c:	e0633002 	rsb	r3, r3, r2
5000e630:	e51b2030 	ldr	r2, [fp, #-48]	; 0x30
5000e634:	e0823003 	add	r3, r2, r3
5000e638:	e15b22bc 	ldrh	r2, [fp, #-44]	; 0xffffffd4
5000e63c:	e6bf2072 	sxth	r2, r2
5000e640:	e51b1020 	ldr	r1, [fp, #-32]
5000e644:	e7831102 	str	r1, [r3, r2, lsl #2]
5000e648:	e51b2018 	ldr	r2, [fp, #-24]
5000e64c:	e51b3024 	ldr	r3, [fp, #-36]	; 0x24
5000e650:	e1520003 	cmp	r2, r3
5000e654:	b1a03002 	movlt	r3, r2
5000e658:	a1a03003 	movge	r3, r3
5000e65c:	e50b3018 	str	r3, [fp, #-24]
5000e660:	e51b3018 	ldr	r3, [fp, #-24]
5000e664:	e3530000 	cmp	r3, #0
5000e668:	1a000000 	bne	5000e670 <lian_left+0x3ec>
5000e66c:	ea000017 	b	5000e6d0 <lian_left+0x44c>
5000e670:	e51b3014 	ldr	r3, [fp, #-20]
5000e674:	e2833001 	add	r3, r3, #1
5000e678:	e50b3014 	str	r3, [fp, #-20]
5000e67c:	e51b3014 	ldr	r3, [fp, #-20]
5000e680:	e353000a 	cmp	r3, #10
5000e684:	daffff92 	ble	5000e4d4 <lian_left+0x250>
5000e688:	e51b3010 	ldr	r3, [fp, #-16]
5000e68c:	e2833001 	add	r3, r3, #1
5000e690:	e50b3010 	str	r3, [fp, #-16]
5000e694:	e51b3010 	ldr	r3, [fp, #-16]
5000e698:	e353000a 	cmp	r3, #10
5000e69c:	daffff89 	ble	5000e4c8 <lian_left+0x244>
5000e6a0:	e51b300c 	ldr	r3, [fp, #-12]
5000e6a4:	e2833001 	add	r3, r3, #1
5000e6a8:	e50b300c 	str	r3, [fp, #-12]
5000e6ac:	e51b300c 	ldr	r3, [fp, #-12]
5000e6b0:	e353000a 	cmp	r3, #10
5000e6b4:	daffff07 	ble	5000e2d8 <lian_left+0x54>
5000e6b8:	e51b3008 	ldr	r3, [fp, #-8]
5000e6bc:	e2833001 	add	r3, r3, #1
5000e6c0:	e50b3008 	str	r3, [fp, #-8]
5000e6c4:	e51b3008 	ldr	r3, [fp, #-8]
5000e6c8:	e353000a 	cmp	r3, #10
5000e6cc:	dafffefe 	ble	5000e2cc <lian_left+0x48>
5000e6d0:	ebfffed0 	bl	5000e218 <_save_op>
5000e6d4:	e51b3018 	ldr	r3, [fp, #-24]
5000e6d8:	e1a00003 	mov	r0, r3
5000e6dc:	e24bd004 	sub	sp, fp, #4
5000e6e0:	e8bd8800 	pop	{fp, pc}

5000e6e4 <lian_get_op>:
5000e6e4:	e92d4800 	push	{fp, lr}
5000e6e8:	e28db004 	add	fp, sp, #4
5000e6ec:	e24dd020 	sub	sp, sp, #32
5000e6f0:	e50b0020 	str	r0, [fp, #-32]
5000e6f4:	e30c3d44 	movw	r3, #52548	; 0xcd44
5000e6f8:	e3453001 	movt	r3, #20481	; 0x5001
5000e6fc:	e3a02000 	mov	r2, #0
5000e700:	e5832000 	str	r2, [r3]
5000e704:	e3a03001 	mov	r3, #1
5000e708:	e50b3008 	str	r3, [fp, #-8]
5000e70c:	ea000079 	b	5000e8f8 <lian_get_op+0x214>
5000e710:	e3a03001 	mov	r3, #1
5000e714:	e50b300c 	str	r3, [fp, #-12]
5000e718:	ea000070 	b	5000e8e0 <lian_get_op+0x1fc>
5000e71c:	e51b3008 	ldr	r3, [fp, #-8]
5000e720:	e6ff3073 	uxth	r3, r3
5000e724:	e14b31b6 	strh	r3, [fp, #-22]	; 0xffffffea
5000e728:	e51b300c 	ldr	r3, [fp, #-12]
5000e72c:	e6ff3073 	uxth	r3, r3
5000e730:	e14b31b8 	strh	r3, [fp, #-24]	; 0xffffffe8
5000e734:	e15b31b8 	ldrh	r3, [fp, #-24]	; 0xffffffe8
5000e738:	e6bf3073 	sxth	r3, r3
5000e73c:	e2833001 	add	r3, r3, #1
5000e740:	e50b3014 	str	r3, [fp, #-20]
5000e744:	ea000026 	b	5000e7e4 <lian_get_op+0x100>
5000e748:	e15b31b6 	ldrh	r3, [fp, #-22]	; 0xffffffea
5000e74c:	e14b31ba 	strh	r3, [fp, #-26]	; 0xffffffe6
5000e750:	e51b3014 	ldr	r3, [fp, #-20]
5000e754:	e6ff3073 	uxth	r3, r3
5000e758:	e14b31bc 	strh	r3, [fp, #-28]	; 0xffffffe4
5000e75c:	e24b2018 	sub	r2, fp, #24
5000e760:	e24b301c 	sub	r3, fp, #28
5000e764:	e51b0020 	ldr	r0, [fp, #-32]
5000e768:	e1a01002 	mov	r1, r2
5000e76c:	e1a02003 	mov	r2, r3
5000e770:	ebfffdce 	bl	5000deb0 <lian_check>
5000e774:	e1a03000 	mov	r3, r0
5000e778:	e3530001 	cmp	r3, #1
5000e77c:	1a000015 	bne	5000e7d8 <lian_get_op+0xf4>
5000e780:	e30c3d44 	movw	r3, #52548	; 0xcd44
5000e784:	e3453001 	movt	r3, #20481	; 0x5001
5000e788:	e3a02001 	mov	r2, #1
5000e78c:	e5832000 	str	r2, [r3]
5000e790:	e30d372c 	movw	r3, #55084	; 0xd72c
5000e794:	e3453001 	movt	r3, #20481	; 0x5001
5000e798:	e1a01003 	mov	r1, r3
5000e79c:	e24b3018 	sub	r3, fp, #24
5000e7a0:	e3a02004 	mov	r2, #4
5000e7a4:	e1a00001 	mov	r0, r1
5000e7a8:	e1a01003 	mov	r1, r3
5000e7ac:	ebffdb4b 	bl	500054e0 <memcpy>
5000e7b0:	e30d372c 	movw	r3, #55084	; 0xd72c
5000e7b4:	e3453001 	movt	r3, #20481	; 0x5001
5000e7b8:	e2832004 	add	r2, r3, #4
5000e7bc:	e24b301c 	sub	r3, fp, #28
5000e7c0:	e3a0c004 	mov	ip, #4
5000e7c4:	e1a00002 	mov	r0, r2
5000e7c8:	e1a01003 	mov	r1, r3
5000e7cc:	e1a0200c 	mov	r2, ip
5000e7d0:	ebffdb42 	bl	500054e0 <memcpy>
5000e7d4:	ea00004a 	b	5000e904 <lian_get_op+0x220>
5000e7d8:	e51b3014 	ldr	r3, [fp, #-20]
5000e7dc:	e2833001 	add	r3, r3, #1
5000e7e0:	e50b3014 	str	r3, [fp, #-20]
5000e7e4:	e51b3014 	ldr	r3, [fp, #-20]
5000e7e8:	e353000a 	cmp	r3, #10
5000e7ec:	daffffd5 	ble	5000e748 <lian_get_op+0x64>
5000e7f0:	e15b31b6 	ldrh	r3, [fp, #-22]	; 0xffffffea
5000e7f4:	e6bf3073 	sxth	r3, r3
5000e7f8:	e2833001 	add	r3, r3, #1
5000e7fc:	e50b3010 	str	r3, [fp, #-16]
5000e800:	ea000030 	b	5000e8c8 <lian_get_op+0x1e4>
5000e804:	e3a03001 	mov	r3, #1
5000e808:	e50b3014 	str	r3, [fp, #-20]
5000e80c:	ea000027 	b	5000e8b0 <lian_get_op+0x1cc>
5000e810:	e51b3010 	ldr	r3, [fp, #-16]
5000e814:	e6ff3073 	uxth	r3, r3
5000e818:	e14b31ba 	strh	r3, [fp, #-26]	; 0xffffffe6
5000e81c:	e51b3014 	ldr	r3, [fp, #-20]
5000e820:	e6ff3073 	uxth	r3, r3
5000e824:	e14b31bc 	strh	r3, [fp, #-28]	; 0xffffffe4
5000e828:	e24b2018 	sub	r2, fp, #24
5000e82c:	e24b301c 	sub	r3, fp, #28
5000e830:	e51b0020 	ldr	r0, [fp, #-32]
5000e834:	e1a01002 	mov	r1, r2
5000e838:	e1a02003 	mov	r2, r3
5000e83c:	ebfffd9b 	bl	5000deb0 <lian_check>
5000e840:	e1a03000 	mov	r3, r0
5000e844:	e3530001 	cmp	r3, #1
5000e848:	1a000015 	bne	5000e8a4 <lian_get_op+0x1c0>
5000e84c:	e30c3d44 	movw	r3, #52548	; 0xcd44
5000e850:	e3453001 	movt	r3, #20481	; 0x5001
5000e854:	e3a02001 	mov	r2, #1
5000e858:	e5832000 	str	r2, [r3]
5000e85c:	e30d372c 	movw	r3, #55084	; 0xd72c
5000e860:	e3453001 	movt	r3, #20481	; 0x5001
5000e864:	e1a01003 	mov	r1, r3
5000e868:	e24b3018 	sub	r3, fp, #24
5000e86c:	e3a02004 	mov	r2, #4
5000e870:	e1a00001 	mov	r0, r1
5000e874:	e1a01003 	mov	r1, r3
5000e878:	ebffdb18 	bl	500054e0 <memcpy>
5000e87c:	e30d372c 	movw	r3, #55084	; 0xd72c
5000e880:	e3453001 	movt	r3, #20481	; 0x5001
5000e884:	e2832004 	add	r2, r3, #4
5000e888:	e24b301c 	sub	r3, fp, #28
5000e88c:	e3a0c004 	mov	ip, #4
5000e890:	e1a00002 	mov	r0, r2
5000e894:	e1a01003 	mov	r1, r3
5000e898:	e1a0200c 	mov	r2, ip
5000e89c:	ebffdb0f 	bl	500054e0 <memcpy>
5000e8a0:	ea000017 	b	5000e904 <lian_get_op+0x220>
5000e8a4:	e51b3014 	ldr	r3, [fp, #-20]
5000e8a8:	e2833001 	add	r3, r3, #1
5000e8ac:	e50b3014 	str	r3, [fp, #-20]
5000e8b0:	e51b3014 	ldr	r3, [fp, #-20]
5000e8b4:	e353000a 	cmp	r3, #10
5000e8b8:	daffffd4 	ble	5000e810 <lian_get_op+0x12c>
5000e8bc:	e51b3010 	ldr	r3, [fp, #-16]
5000e8c0:	e2833001 	add	r3, r3, #1
5000e8c4:	e50b3010 	str	r3, [fp, #-16]
5000e8c8:	e51b3010 	ldr	r3, [fp, #-16]
5000e8cc:	e353000a 	cmp	r3, #10
5000e8d0:	daffffcb 	ble	5000e804 <lian_get_op+0x120>
5000e8d4:	e51b300c 	ldr	r3, [fp, #-12]
5000e8d8:	e2833001 	add	r3, r3, #1
5000e8dc:	e50b300c 	str	r3, [fp, #-12]
5000e8e0:	e51b300c 	ldr	r3, [fp, #-12]
5000e8e4:	e353000a 	cmp	r3, #10
5000e8e8:	daffff8b 	ble	5000e71c <lian_get_op+0x38>
5000e8ec:	e51b3008 	ldr	r3, [fp, #-8]
5000e8f0:	e2833001 	add	r3, r3, #1
5000e8f4:	e50b3008 	str	r3, [fp, #-8]
5000e8f8:	e51b3008 	ldr	r3, [fp, #-8]
5000e8fc:	e353000a 	cmp	r3, #10
5000e900:	daffff82 	ble	5000e710 <lian_get_op+0x2c>
5000e904:	e30c3d44 	movw	r3, #52548	; 0xcd44
5000e908:	e3453001 	movt	r3, #20481	; 0x5001
5000e90c:	e5933000 	ldr	r3, [r3]
5000e910:	e1a00003 	mov	r0, r3
5000e914:	e24bd004 	sub	sp, fp, #4
5000e918:	e8bd8800 	pop	{fp, pc}

5000e91c <lian_show>:
5000e91c:	e92d4800 	push	{fp, lr}
5000e920:	e28db004 	add	fp, sp, #4
5000e924:	e24dd008 	sub	sp, sp, #8
5000e928:	e3a03001 	mov	r3, #1
5000e92c:	e50b3008 	str	r3, [fp, #-8]
5000e930:	ea00001e 	b	5000e9b0 <lian_show+0x94>
5000e934:	e3a03001 	mov	r3, #1
5000e938:	e50b300c 	str	r3, [fp, #-12]
5000e93c:	ea000011 	b	5000e988 <lian_show+0x6c>
5000e940:	e3072524 	movw	r2, #29988	; 0x7524
5000e944:	e3452001 	movt	r2, #20481	; 0x5001
5000e948:	e51b3008 	ldr	r3, [fp, #-8]
5000e94c:	e1a01003 	mov	r1, r3
5000e950:	e1a03101 	lsl	r3, r1, #2
5000e954:	e1a01003 	mov	r1, r3
5000e958:	e1a03101 	lsl	r3, r1, #2
5000e95c:	e0613003 	rsb	r3, r1, r3
5000e960:	e51b100c 	ldr	r1, [fp, #-12]
5000e964:	e0833001 	add	r3, r3, r1
5000e968:	e7923103 	ldr	r3, [r2, r3, lsl #2]
5000e96c:	e3060c3c 	movw	r0, #27708	; 0x6c3c
5000e970:	e3450001 	movt	r0, #20481	; 0x5001
5000e974:	e1a01003 	mov	r1, r3
5000e978:	ebffd74d 	bl	500046b4 <serial_printf>
5000e97c:	e51b300c 	ldr	r3, [fp, #-12]
5000e980:	e2833001 	add	r3, r3, #1
5000e984:	e50b300c 	str	r3, [fp, #-12]
5000e988:	e51b300c 	ldr	r3, [fp, #-12]
5000e98c:	e353000a 	cmp	r3, #10
5000e990:	daffffea 	ble	5000e940 <lian_show+0x24>
5000e994:	e3060c44 	movw	r0, #27716	; 0x6c44
5000e998:	e3450001 	movt	r0, #20481	; 0x5001
5000e99c:	e51b1008 	ldr	r1, [fp, #-8]
5000e9a0:	ebffd743 	bl	500046b4 <serial_printf>
5000e9a4:	e51b3008 	ldr	r3, [fp, #-8]
5000e9a8:	e2833001 	add	r3, r3, #1
5000e9ac:	e50b3008 	str	r3, [fp, #-8]
5000e9b0:	e51b3008 	ldr	r3, [fp, #-8]
5000e9b4:	e353000a 	cmp	r3, #10
5000e9b8:	daffffdd 	ble	5000e934 <lian_show+0x18>
5000e9bc:	e3a03000 	mov	r3, #0
5000e9c0:	e1a00003 	mov	r0, r3
5000e9c4:	e24bd004 	sub	sp, fp, #4
5000e9c8:	e8bd8800 	pop	{fp, pc}

5000e9cc <lian_test>:
5000e9cc:	e92d4800 	push	{fp, lr}
5000e9d0:	e28db004 	add	fp, sp, #4
5000e9d4:	e24dd030 	sub	sp, sp, #48	; 0x30
5000e9d8:	e50b0018 	str	r0, [fp, #-24]
5000e9dc:	e50b101c 	str	r1, [fp, #-28]
5000e9e0:	e50b2020 	str	r2, [fp, #-32]
5000e9e4:	e50b3024 	str	r3, [fp, #-36]	; 0x24
5000e9e8:	e51b3018 	ldr	r3, [fp, #-24]
5000e9ec:	e6ff3073 	uxth	r3, r3
5000e9f0:	e14b30bc 	strh	r3, [fp, #-12]
5000e9f4:	e51b301c 	ldr	r3, [fp, #-28]
5000e9f8:	e6ff3073 	uxth	r3, r3
5000e9fc:	e14b30ba 	strh	r3, [fp, #-10]
5000ea00:	e51b3020 	ldr	r3, [fp, #-32]
5000ea04:	e6ff3073 	uxth	r3, r3
5000ea08:	e14b31b0 	strh	r3, [fp, #-16]
5000ea0c:	e51b3024 	ldr	r3, [fp, #-36]	; 0x24
5000ea10:	e6ff3073 	uxth	r3, r3
5000ea14:	e14b30be 	strh	r3, [fp, #-14]
5000ea18:	e24b200c 	sub	r2, fp, #12
5000ea1c:	e24b3010 	sub	r3, fp, #16
5000ea20:	e3070524 	movw	r0, #29988	; 0x7524
5000ea24:	e3450001 	movt	r0, #20481	; 0x5001
5000ea28:	e1a01002 	mov	r1, r2
5000ea2c:	e1a02003 	mov	r2, r3
5000ea30:	ebfffd1e 	bl	5000deb0 <lian_check>
5000ea34:	e1a03000 	mov	r3, r0
5000ea38:	e3530001 	cmp	r3, #1
5000ea3c:	1a000051 	bne	5000eb88 <lian_test+0x1bc>
5000ea40:	e3a03000 	mov	r3, #0
5000ea44:	e50b3008 	str	r3, [fp, #-8]
5000ea48:	ea000014 	b	5000eaa0 <lian_test+0xd4>
5000ea4c:	e30d38bc 	movw	r3, #55484	; 0xd8bc
5000ea50:	e3453001 	movt	r3, #20481	; 0x5001
5000ea54:	e51b2008 	ldr	r2, [fp, #-8]
5000ea58:	e1a02102 	lsl	r2, r2, #2
5000ea5c:	e0833002 	add	r3, r3, r2
5000ea60:	e1d330b0 	ldrh	r3, [r3]
5000ea64:	e6bf1073 	sxth	r1, r3
5000ea68:	e30d38bc 	movw	r3, #55484	; 0xd8bc
5000ea6c:	e3453001 	movt	r3, #20481	; 0x5001
5000ea70:	e51b2008 	ldr	r2, [fp, #-8]
5000ea74:	e1a02102 	lsl	r2, r2, #2
5000ea78:	e0833002 	add	r3, r3, r2
5000ea7c:	e1d330b2 	ldrh	r3, [r3, #2]
5000ea80:	e6bf3073 	sxth	r3, r3
5000ea84:	e3060c50 	movw	r0, #27728	; 0x6c50
5000ea88:	e3450001 	movt	r0, #20481	; 0x5001
5000ea8c:	e1a02003 	mov	r2, r3
5000ea90:	ebffd707 	bl	500046b4 <serial_printf>
5000ea94:	e51b3008 	ldr	r3, [fp, #-8]
5000ea98:	e2833001 	add	r3, r3, #1
5000ea9c:	e50b3008 	str	r3, [fp, #-8]
5000eaa0:	e30c3d40 	movw	r3, #52544	; 0xcd40
5000eaa4:	e3453001 	movt	r3, #20481	; 0x5001
5000eaa8:	e5933000 	ldr	r3, [r3]
5000eaac:	e51b2008 	ldr	r2, [fp, #-8]
5000eab0:	e1520003 	cmp	r2, r3
5000eab4:	baffffe4 	blt	5000ea4c <lian_test+0x80>
5000eab8:	e3060c5c 	movw	r0, #27740	; 0x6c5c
5000eabc:	e3450001 	movt	r0, #20481	; 0x5001
5000eac0:	ebffd6fb 	bl	500046b4 <serial_printf>
5000eac4:	e30d38bc 	movw	r3, #55484	; 0xd8bc
5000eac8:	e3453001 	movt	r3, #20481	; 0x5001
5000eacc:	e1d330b2 	ldrh	r3, [r3, #2]
5000ead0:	e6bf1073 	sxth	r1, r3
5000ead4:	e30d38bc 	movw	r3, #55484	; 0xd8bc
5000ead8:	e3453001 	movt	r3, #20481	; 0x5001
5000eadc:	e1d330b0 	ldrh	r3, [r3]
5000eae0:	e6bf0073 	sxth	r0, r3
5000eae4:	e3072524 	movw	r2, #29988	; 0x7524
5000eae8:	e3452001 	movt	r2, #20481	; 0x5001
5000eaec:	e1a03101 	lsl	r3, r1, #2
5000eaf0:	e1a01003 	mov	r1, r3
5000eaf4:	e1a03101 	lsl	r3, r1, #2
5000eaf8:	e0613003 	rsb	r3, r1, r3
5000eafc:	e0833000 	add	r3, r3, r0
5000eb00:	e3a01000 	mov	r1, #0
5000eb04:	e7821103 	str	r1, [r2, r3, lsl #2]
5000eb08:	e30c3d40 	movw	r3, #52544	; 0xcd40
5000eb0c:	e3453001 	movt	r3, #20481	; 0x5001
5000eb10:	e5933000 	ldr	r3, [r3]
5000eb14:	e2432001 	sub	r2, r3, #1
5000eb18:	e30d38bc 	movw	r3, #55484	; 0xd8bc
5000eb1c:	e3453001 	movt	r3, #20481	; 0x5001
5000eb20:	e1a02102 	lsl	r2, r2, #2
5000eb24:	e0833002 	add	r3, r3, r2
5000eb28:	e1d330b2 	ldrh	r3, [r3, #2]
5000eb2c:	e6bf1073 	sxth	r1, r3
5000eb30:	e30c3d40 	movw	r3, #52544	; 0xcd40
5000eb34:	e3453001 	movt	r3, #20481	; 0x5001
5000eb38:	e5933000 	ldr	r3, [r3]
5000eb3c:	e2432001 	sub	r2, r3, #1
5000eb40:	e30d38bc 	movw	r3, #55484	; 0xd8bc
5000eb44:	e3453001 	movt	r3, #20481	; 0x5001
5000eb48:	e1a02102 	lsl	r2, r2, #2
5000eb4c:	e0833002 	add	r3, r3, r2
5000eb50:	e1d330b0 	ldrh	r3, [r3]
5000eb54:	e6bf0073 	sxth	r0, r3
5000eb58:	e3072524 	movw	r2, #29988	; 0x7524
5000eb5c:	e3452001 	movt	r2, #20481	; 0x5001
5000eb60:	e1a03101 	lsl	r3, r1, #2
5000eb64:	e1a01003 	mov	r1, r3
5000eb68:	e1a03101 	lsl	r3, r1, #2
5000eb6c:	e0613003 	rsb	r3, r1, r3
5000eb70:	e0833000 	add	r3, r3, r0
5000eb74:	e3a01000 	mov	r1, #0
5000eb78:	e7821103 	str	r1, [r2, r3, lsl #2]
5000eb7c:	ebffff66 	bl	5000e91c <lian_show>
5000eb80:	e3a03001 	mov	r3, #1
5000eb84:	ea000024 	b	5000ec1c <lian_test+0x250>
5000eb88:	e3072524 	movw	r2, #29988	; 0x7524
5000eb8c:	e3452001 	movt	r2, #20481	; 0x5001
5000eb90:	e51b301c 	ldr	r3, [fp, #-28]
5000eb94:	e1a01003 	mov	r1, r3
5000eb98:	e1a03101 	lsl	r3, r1, #2
5000eb9c:	e1a01003 	mov	r1, r3
5000eba0:	e1a03101 	lsl	r3, r1, #2
5000eba4:	e0613003 	rsb	r3, r1, r3
5000eba8:	e51b1018 	ldr	r1, [fp, #-24]
5000ebac:	e0833001 	add	r3, r3, r1
5000ebb0:	e792c103 	ldr	ip, [r2, r3, lsl #2]
5000ebb4:	e3072524 	movw	r2, #29988	; 0x7524
5000ebb8:	e3452001 	movt	r2, #20481	; 0x5001
5000ebbc:	e51b3024 	ldr	r3, [fp, #-36]	; 0x24
5000ebc0:	e1a01003 	mov	r1, r3
5000ebc4:	e1a03101 	lsl	r3, r1, #2
5000ebc8:	e1a01003 	mov	r1, r3
5000ebcc:	e1a03101 	lsl	r3, r1, #2
5000ebd0:	e0613003 	rsb	r3, r1, r3
5000ebd4:	e51b1020 	ldr	r1, [fp, #-32]
5000ebd8:	e0833001 	add	r3, r3, r1
5000ebdc:	e7923103 	ldr	r3, [r2, r3, lsl #2]
5000ebe0:	e51b2020 	ldr	r2, [fp, #-32]
5000ebe4:	e58d2000 	str	r2, [sp]
5000ebe8:	e51b2024 	ldr	r2, [fp, #-36]	; 0x24
5000ebec:	e58d2004 	str	r2, [sp, #4]
5000ebf0:	e58d3008 	str	r3, [sp, #8]
5000ebf4:	e3060c7c 	movw	r0, #27772	; 0x6c7c
5000ebf8:	e3450001 	movt	r0, #20481	; 0x5001
5000ebfc:	e51b1018 	ldr	r1, [fp, #-24]
5000ec00:	e51b201c 	ldr	r2, [fp, #-28]
5000ec04:	e1a0300c 	mov	r3, ip
5000ec08:	ebffd6a9 	bl	500046b4 <serial_printf>
5000ec0c:	e3060ca8 	movw	r0, #27816	; 0x6ca8
5000ec10:	e3450001 	movt	r0, #20481	; 0x5001
5000ec14:	ebffd6a6 	bl	500046b4 <serial_printf>
5000ec18:	e3a03000 	mov	r3, #0
5000ec1c:	e1a00003 	mov	r0, r3
5000ec20:	e24bd004 	sub	sp, fp, #4
5000ec24:	e8bd8800 	pop	{fp, pc}

5000ec28 <tty_show>:
5000ec28:	e92d4800 	push	{fp, lr}
5000ec2c:	e28db004 	add	fp, sp, #4
5000ec30:	e24dd020 	sub	sp, sp, #32
5000ec34:	e50b0018 	str	r0, [fp, #-24]
5000ec38:	e50b101c 	str	r1, [fp, #-28]
5000ec3c:	e50b2020 	str	r2, [fp, #-32]
5000ec40:	e50b3024 	str	r3, [fp, #-36]	; 0x24
5000ec44:	e3a03000 	mov	r3, #0
5000ec48:	e50b3008 	str	r3, [fp, #-8]
5000ec4c:	e51b3018 	ldr	r3, [fp, #-24]
5000ec50:	e2833001 	add	r3, r3, #1
5000ec54:	e1a03083 	lsl	r3, r3, #1
5000ec58:	e50b300c 	str	r3, [fp, #-12]
5000ec5c:	e51b301c 	ldr	r3, [fp, #-28]
5000ec60:	e2433001 	sub	r3, r3, #1
5000ec64:	e1a03103 	lsl	r3, r3, #2
5000ec68:	e2833002 	add	r3, r3, #2
5000ec6c:	e50b3010 	str	r3, [fp, #-16]
5000ec70:	e51b3020 	ldr	r3, [fp, #-32]
5000ec74:	e2433001 	sub	r3, r3, #1
5000ec78:	e3022493 	movw	r2, #9363	; 0x2493
5000ec7c:	e3492249 	movt	r2, #37449	; 0x9249
5000ec80:	e0c10293 	smull	r0, r1, r3, r2
5000ec84:	e0832001 	add	r2, r3, r1
5000ec88:	e1a01142 	asr	r1, r2, #2
5000ec8c:	e1a02fc3 	asr	r2, r3, #31
5000ec90:	e0621001 	rsb	r1, r2, r1
5000ec94:	e1a02001 	mov	r2, r1
5000ec98:	e1a02182 	lsl	r2, r2, #3
5000ec9c:	e0612002 	rsb	r2, r1, r2
5000eca0:	e0621003 	rsb	r1, r2, r3
5000eca4:	e3510003 	cmp	r1, #3
5000eca8:	1a000003 	bne	5000ecbc <tty_show+0x94>
5000ecac:	e3060cd8 	movw	r0, #27864	; 0x6cd8
5000ecb0:	e3450001 	movt	r0, #20481	; 0x5001
5000ecb4:	ebffd67e 	bl	500046b4 <serial_printf>
5000ecb8:	ea000002 	b	5000ecc8 <tty_show+0xa0>
5000ecbc:	e3060ce0 	movw	r0, #27872	; 0x6ce0
5000ecc0:	e3450001 	movt	r0, #20481	; 0x5001
5000ecc4:	ebffd67a 	bl	500046b4 <serial_printf>
5000ecc8:	e3060ce8 	movw	r0, #27880	; 0x6ce8
5000eccc:	e3450001 	movt	r0, #20481	; 0x5001
5000ecd0:	e51b100c 	ldr	r1, [fp, #-12]
5000ecd4:	e51b2010 	ldr	r2, [fp, #-16]
5000ecd8:	ebffd675 	bl	500046b4 <serial_printf>
5000ecdc:	e51b3020 	ldr	r3, [fp, #-32]
5000ece0:	e2433001 	sub	r3, r3, #1
5000ece4:	e3022493 	movw	r2, #9363	; 0x2493
5000ece8:	e3492249 	movt	r2, #37449	; 0x9249
5000ecec:	e0c10293 	smull	r0, r1, r3, r2
5000ecf0:	e0832001 	add	r2, r3, r1
5000ecf4:	e1a01142 	asr	r1, r2, #2
5000ecf8:	e1a02fc3 	asr	r2, r3, #31
5000ecfc:	e0621001 	rsb	r1, r2, r1
5000ed00:	e1a02001 	mov	r2, r1
5000ed04:	e1a02182 	lsl	r2, r2, #3
5000ed08:	e0612002 	rsb	r2, r1, r2
5000ed0c:	e0621003 	rsb	r1, r2, r3
5000ed10:	e2813029 	add	r3, r1, #41	; 0x29
5000ed14:	e3060cf4 	movw	r0, #27892	; 0x6cf4
5000ed18:	e3450001 	movt	r0, #20481	; 0x5001
5000ed1c:	e1a01003 	mov	r1, r3
5000ed20:	ebffd663 	bl	500046b4 <serial_printf>
5000ed24:	e51b3024 	ldr	r3, [fp, #-36]	; 0x24
5000ed28:	e3530001 	cmp	r3, #1
5000ed2c:	0a000008 	beq	5000ed54 <tty_show+0x12c>
5000ed30:	e3530002 	cmp	r3, #2
5000ed34:	0a000002 	beq	5000ed44 <tty_show+0x11c>
5000ed38:	e3530000 	cmp	r3, #0
5000ed3c:	0a000008 	beq	5000ed64 <tty_show+0x13c>
5000ed40:	ea000030 	b	5000ee08 <tty_show+0x1e0>
5000ed44:	e3060cfc 	movw	r0, #27900	; 0x6cfc
5000ed48:	e3450001 	movt	r0, #20481	; 0x5001
5000ed4c:	ebffd658 	bl	500046b4 <serial_printf>
5000ed50:	ea00002c 	b	5000ee08 <tty_show+0x1e0>
5000ed54:	e3060d00 	movw	r0, #27904	; 0x6d00
5000ed58:	e3450001 	movt	r0, #20481	; 0x5001
5000ed5c:	ebffd654 	bl	500046b4 <serial_printf>
5000ed60:	ea000028 	b	5000ee08 <tty_show+0x1e0>
5000ed64:	e51b3020 	ldr	r3, [fp, #-32]
5000ed68:	e3530000 	cmp	r3, #0
5000ed6c:	1a000008 	bne	5000ed94 <tty_show+0x16c>
5000ed70:	e3060d04 	movw	r0, #27908	; 0x6d04
5000ed74:	e3450001 	movt	r0, #20481	; 0x5001
5000ed78:	ebffd64d 	bl	500046b4 <serial_printf>
5000ed7c:	e3073764 	movw	r3, #30564	; 0x7764
5000ed80:	e3453001 	movt	r3, #20481	; 0x5001
5000ed84:	e51b2020 	ldr	r2, [fp, #-32]
5000ed88:	e7933102 	ldr	r3, [r3, r2, lsl #2]
5000ed8c:	e50b3008 	str	r3, [fp, #-8]
5000ed90:	ea00000c 	b	5000edc8 <tty_show+0x1a0>
5000ed94:	e51b3020 	ldr	r3, [fp, #-32]
5000ed98:	e2433001 	sub	r3, r3, #1
5000ed9c:	e3022493 	movw	r2, #9363	; 0x2493
5000eda0:	e3492249 	movt	r2, #37449	; 0x9249
5000eda4:	e0c10293 	smull	r0, r1, r3, r2
5000eda8:	e0832001 	add	r2, r3, r1
5000edac:	e1a02142 	asr	r2, r2, #2
5000edb0:	e1a03fc3 	asr	r3, r3, #31
5000edb4:	e0632002 	rsb	r2, r3, r2
5000edb8:	e3073764 	movw	r3, #30564	; 0x7764
5000edbc:	e3453001 	movt	r3, #20481	; 0x5001
5000edc0:	e7933102 	ldr	r3, [r3, r2, lsl #2]
5000edc4:	e50b3008 	str	r3, [fp, #-8]
5000edc8:	e51b0008 	ldr	r0, [fp, #-8]
5000edcc:	ebffd638 	bl	500046b4 <serial_printf>
5000edd0:	e51b0008 	ldr	r0, [fp, #-8]
5000edd4:	ebffd636 	bl	500046b4 <serial_printf>
5000edd8:	e51b300c 	ldr	r3, [fp, #-12]
5000eddc:	e2833001 	add	r3, r3, #1
5000ede0:	e3060ce8 	movw	r0, #27880	; 0x6ce8
5000ede4:	e3450001 	movt	r0, #20481	; 0x5001
5000ede8:	e1a01003 	mov	r1, r3
5000edec:	e51b2010 	ldr	r2, [fp, #-16]
5000edf0:	ebffd62f 	bl	500046b4 <serial_printf>
5000edf4:	e51b0008 	ldr	r0, [fp, #-8]
5000edf8:	ebffd62d 	bl	500046b4 <serial_printf>
5000edfc:	e51b0008 	ldr	r0, [fp, #-8]
5000ee00:	ebffd62b 	bl	500046b4 <serial_printf>
5000ee04:	e1a00000 	nop			; (mov r0, r0)
5000ee08:	e51b3020 	ldr	r3, [fp, #-32]
5000ee0c:	e1a00003 	mov	r0, r3
5000ee10:	e24bd004 	sub	sp, fp, #4
5000ee14:	e8bd8800 	pop	{fp, pc}

5000ee18 <tty_line>:
5000ee18:	e92d4800 	push	{fp, lr}
5000ee1c:	e28db004 	add	fp, sp, #4
5000ee20:	e24dd028 	sub	sp, sp, #40	; 0x28
5000ee24:	e50b0020 	str	r0, [fp, #-32]
5000ee28:	e50b1024 	str	r1, [fp, #-36]	; 0x24
5000ee2c:	e50b2028 	str	r2, [fp, #-40]	; 0x28
5000ee30:	e50b302c 	str	r3, [fp, #-44]	; 0x2c
5000ee34:	e59b3004 	ldr	r3, [fp, #4]
5000ee38:	e2433001 	sub	r3, r3, #1
5000ee3c:	e3022493 	movw	r2, #9363	; 0x2493
5000ee40:	e3492249 	movt	r2, #37449	; 0x9249
5000ee44:	e0c10293 	smull	r0, r1, r3, r2
5000ee48:	e0832001 	add	r2, r3, r1
5000ee4c:	e1a01142 	asr	r1, r2, #2
5000ee50:	e1a02fc3 	asr	r2, r3, #31
5000ee54:	e0621001 	rsb	r1, r2, r1
5000ee58:	e1a02001 	mov	r2, r1
5000ee5c:	e1a02182 	lsl	r2, r2, #3
5000ee60:	e0612002 	rsb	r2, r1, r2
5000ee64:	e0621003 	rsb	r1, r2, r3
5000ee68:	e281301f 	add	r3, r1, #31
5000ee6c:	e3060cf4 	movw	r0, #27892	; 0x6cf4
5000ee70:	e3450001 	movt	r0, #20481	; 0x5001
5000ee74:	e1a01003 	mov	r1, r3
5000ee78:	ebffd60d 	bl	500046b4 <serial_printf>
5000ee7c:	e3060d04 	movw	r0, #27908	; 0x6d04
5000ee80:	e3450001 	movt	r0, #20481	; 0x5001
5000ee84:	ebffd60a 	bl	500046b4 <serial_printf>
5000ee88:	e51b2020 	ldr	r2, [fp, #-32]
5000ee8c:	e51b3028 	ldr	r3, [fp, #-40]	; 0x28
5000ee90:	e1520003 	cmp	r2, r3
5000ee94:	da000005 	ble	5000eeb0 <tty_line+0x98>
5000ee98:	e51b3020 	ldr	r3, [fp, #-32]
5000ee9c:	e50b300c 	str	r3, [fp, #-12]
5000eea0:	e51b3028 	ldr	r3, [fp, #-40]	; 0x28
5000eea4:	e50b3020 	str	r3, [fp, #-32]
5000eea8:	e51b300c 	ldr	r3, [fp, #-12]
5000eeac:	e50b3028 	str	r3, [fp, #-40]	; 0x28
5000eeb0:	e51b2024 	ldr	r2, [fp, #-36]	; 0x24
5000eeb4:	e51b302c 	ldr	r3, [fp, #-44]	; 0x2c
5000eeb8:	e1520003 	cmp	r2, r3
5000eebc:	da000005 	ble	5000eed8 <tty_line+0xc0>
5000eec0:	e51b3024 	ldr	r3, [fp, #-36]	; 0x24
5000eec4:	e50b3010 	str	r3, [fp, #-16]
5000eec8:	e51b302c 	ldr	r3, [fp, #-44]	; 0x2c
5000eecc:	e50b3024 	str	r3, [fp, #-36]	; 0x24
5000eed0:	e51b3010 	ldr	r3, [fp, #-16]
5000eed4:	e50b302c 	str	r3, [fp, #-44]	; 0x2c
5000eed8:	e51b2020 	ldr	r2, [fp, #-32]
5000eedc:	e51b3028 	ldr	r3, [fp, #-40]	; 0x28
5000eee0:	e1520003 	cmp	r2, r3
5000eee4:	1a000025 	bne	5000ef80 <tty_line+0x168>
5000eee8:	e51b3020 	ldr	r3, [fp, #-32]
5000eeec:	e2833001 	add	r3, r3, #1
5000eef0:	e1a03083 	lsl	r3, r3, #1
5000eef4:	e50b3014 	str	r3, [fp, #-20]
5000eef8:	e51b3024 	ldr	r3, [fp, #-36]	; 0x24
5000eefc:	e2433001 	sub	r3, r3, #1
5000ef00:	e1a03103 	lsl	r3, r3, #2
5000ef04:	e2833003 	add	r3, r3, #3
5000ef08:	e50b3018 	str	r3, [fp, #-24]
5000ef0c:	e51b202c 	ldr	r2, [fp, #-44]	; 0x2c
5000ef10:	e51b3024 	ldr	r3, [fp, #-36]	; 0x24
5000ef14:	e0633002 	rsb	r3, r3, r2
5000ef18:	e2433001 	sub	r3, r3, #1
5000ef1c:	e1a03103 	lsl	r3, r3, #2
5000ef20:	e2833003 	add	r3, r3, #3
5000ef24:	e50b301c 	str	r3, [fp, #-28]
5000ef28:	e3060ce8 	movw	r0, #27880	; 0x6ce8
5000ef2c:	e3450001 	movt	r0, #20481	; 0x5001
5000ef30:	e51b1014 	ldr	r1, [fp, #-20]
5000ef34:	e51b2018 	ldr	r2, [fp, #-24]
5000ef38:	ebffd5dd 	bl	500046b4 <serial_printf>
5000ef3c:	e3a0002b 	mov	r0, #43	; 0x2b
5000ef40:	ebffd559 	bl	500044ac <serial_putc>
5000ef44:	e3a03000 	mov	r3, #0
5000ef48:	e50b3008 	str	r3, [fp, #-8]
5000ef4c:	ea000005 	b	5000ef68 <tty_line+0x150>
5000ef50:	e3060d0c 	movw	r0, #27916	; 0x6d0c
5000ef54:	e3450001 	movt	r0, #20481	; 0x5001
5000ef58:	ebffd5d5 	bl	500046b4 <serial_printf>
5000ef5c:	e51b3008 	ldr	r3, [fp, #-8]
5000ef60:	e2833001 	add	r3, r3, #1
5000ef64:	e50b3008 	str	r3, [fp, #-8]
5000ef68:	e51b2008 	ldr	r2, [fp, #-8]
5000ef6c:	e51b301c 	ldr	r3, [fp, #-28]
5000ef70:	e1520003 	cmp	r2, r3
5000ef74:	bafffff5 	blt	5000ef50 <tty_line+0x138>
5000ef78:	e3a0002b 	mov	r0, #43	; 0x2b
5000ef7c:	ebffd54a 	bl	500044ac <serial_putc>
5000ef80:	e51b2024 	ldr	r2, [fp, #-36]	; 0x24
5000ef84:	e51b302c 	ldr	r3, [fp, #-44]	; 0x2c
5000ef88:	e1520003 	cmp	r2, r3
5000ef8c:	1a000022 	bne	5000f01c <tty_line+0x204>
5000ef90:	e51b3020 	ldr	r3, [fp, #-32]
5000ef94:	e2833001 	add	r3, r3, #1
5000ef98:	e1a03083 	lsl	r3, r3, #1
5000ef9c:	e2833001 	add	r3, r3, #1
5000efa0:	e50b3014 	str	r3, [fp, #-20]
5000efa4:	e51b3024 	ldr	r3, [fp, #-36]	; 0x24
5000efa8:	e2433001 	sub	r3, r3, #1
5000efac:	e1a03103 	lsl	r3, r3, #2
5000efb0:	e2833003 	add	r3, r3, #3
5000efb4:	e50b3018 	str	r3, [fp, #-24]
5000efb8:	e51b2028 	ldr	r2, [fp, #-40]	; 0x28
5000efbc:	e51b3020 	ldr	r3, [fp, #-32]
5000efc0:	e0633002 	rsb	r3, r3, r2
5000efc4:	e2433001 	sub	r3, r3, #1
5000efc8:	e1a03083 	lsl	r3, r3, #1
5000efcc:	e2833001 	add	r3, r3, #1
5000efd0:	e50b301c 	str	r3, [fp, #-28]
5000efd4:	e3060ce8 	movw	r0, #27880	; 0x6ce8
5000efd8:	e3450001 	movt	r0, #20481	; 0x5001
5000efdc:	e51b1014 	ldr	r1, [fp, #-20]
5000efe0:	e51b2018 	ldr	r2, [fp, #-24]
5000efe4:	ebffd5b2 	bl	500046b4 <serial_printf>
5000efe8:	e3a03000 	mov	r3, #0
5000efec:	e50b3008 	str	r3, [fp, #-8]
5000eff0:	ea000005 	b	5000f00c <tty_line+0x1f4>
5000eff4:	e3060d10 	movw	r0, #27920	; 0x6d10
5000eff8:	e3450001 	movt	r0, #20481	; 0x5001
5000effc:	ebffd5ac 	bl	500046b4 <serial_printf>
5000f000:	e51b3008 	ldr	r3, [fp, #-8]
5000f004:	e2833001 	add	r3, r3, #1
5000f008:	e50b3008 	str	r3, [fp, #-8]
5000f00c:	e51b2008 	ldr	r2, [fp, #-8]
5000f010:	e51b301c 	ldr	r3, [fp, #-28]
5000f014:	e1520003 	cmp	r2, r3
5000f018:	bafffff5 	blt	5000eff4 <tty_line+0x1dc>
5000f01c:	e3a03000 	mov	r3, #0
5000f020:	e1a00003 	mov	r0, r3
5000f024:	e24bd004 	sub	sp, fp, #4
5000f028:	e8bd8800 	pop	{fp, pc}

5000f02c <tty_msg>:
5000f02c:	e92d4800 	push	{fp, lr}
5000f030:	e28db004 	add	fp, sp, #4
5000f034:	e24dd010 	sub	sp, sp, #16
5000f038:	e50b0010 	str	r0, [fp, #-16]
5000f03c:	e51b0010 	ldr	r0, [fp, #-16]
5000f040:	ebffd7d7 	bl	50004fa4 <strlen>
5000f044:	e1a03000 	mov	r3, r0
5000f048:	e2633028 	rsb	r3, r3, #40	; 0x28
5000f04c:	e1a030a3 	lsr	r3, r3, #1
5000f050:	e2833002 	add	r3, r3, #2
5000f054:	e50b3008 	str	r3, [fp, #-8]
5000f058:	e3060ce8 	movw	r0, #27880	; 0x6ce8
5000f05c:	e3450001 	movt	r0, #20481	; 0x5001
5000f060:	e3a01002 	mov	r1, #2
5000f064:	e51b2008 	ldr	r2, [fp, #-8]
5000f068:	ebffd591 	bl	500046b4 <serial_printf>
5000f06c:	e3060d04 	movw	r0, #27908	; 0x6d04
5000f070:	e3450001 	movt	r0, #20481	; 0x5001
5000f074:	ebffd58e 	bl	500046b4 <serial_printf>
5000f078:	e3060cd8 	movw	r0, #27864	; 0x6cd8
5000f07c:	e3450001 	movt	r0, #20481	; 0x5001
5000f080:	ebffd58b 	bl	500046b4 <serial_printf>
5000f084:	e51b0010 	ldr	r0, [fp, #-16]
5000f088:	ebffd589 	bl	500046b4 <serial_printf>
5000f08c:	e3a03000 	mov	r3, #0
5000f090:	e1a00003 	mov	r0, r3
5000f094:	e24bd004 	sub	sp, fp, #4
5000f098:	e8bd8800 	pop	{fp, pc}

5000f09c <tty_beep>:
5000f09c:	e52db004 	push	{fp}		; (str fp, [sp, #-4]!)
5000f0a0:	e28db000 	add	fp, sp, #0
5000f0a4:	e24dd00c 	sub	sp, sp, #12
5000f0a8:	e50b0008 	str	r0, [fp, #-8]
5000f0ac:	e3a03000 	mov	r3, #0
5000f0b0:	e1a00003 	mov	r0, r3
5000f0b4:	e24bd000 	sub	sp, fp, #0
5000f0b8:	e49db004 	pop	{fp}		; (ldr fp, [sp], #4)
5000f0bc:	e12fff1e 	bx	lr

5000f0c0 <_draw_frame>:
5000f0c0:	e92d4800 	push	{fp, lr}
5000f0c4:	e28db004 	add	fp, sp, #4
5000f0c8:	e24dd008 	sub	sp, sp, #8
5000f0cc:	e3060ce8 	movw	r0, #27880	; 0x6ce8
5000f0d0:	e3450001 	movt	r0, #20481	; 0x5001
5000f0d4:	e3a01001 	mov	r1, #1
5000f0d8:	e3a02001 	mov	r2, #1
5000f0dc:	ebffd574 	bl	500046b4 <serial_printf>
5000f0e0:	e3a0002b 	mov	r0, #43	; 0x2b
5000f0e4:	ebffd4f0 	bl	500044ac <serial_putc>
5000f0e8:	e3a03000 	mov	r3, #0
5000f0ec:	e50b3008 	str	r3, [fp, #-8]
5000f0f0:	ea000004 	b	5000f108 <_draw_frame+0x48>
5000f0f4:	e3a0002d 	mov	r0, #45	; 0x2d
5000f0f8:	ebffd4eb 	bl	500044ac <serial_putc>
5000f0fc:	e51b3008 	ldr	r3, [fp, #-8]
5000f100:	e2833001 	add	r3, r3, #1
5000f104:	e50b3008 	str	r3, [fp, #-8]
5000f108:	e51b3008 	ldr	r3, [fp, #-8]
5000f10c:	e3530027 	cmp	r3, #39	; 0x27
5000f110:	dafffff7 	ble	5000f0f4 <_draw_frame+0x34>
5000f114:	e3a0002b 	mov	r0, #43	; 0x2b
5000f118:	ebffd4e3 	bl	500044ac <serial_putc>
5000f11c:	e3060ce8 	movw	r0, #27880	; 0x6ce8
5000f120:	e3450001 	movt	r0, #20481	; 0x5001
5000f124:	e3a01002 	mov	r1, #2
5000f128:	e3a02001 	mov	r2, #1
5000f12c:	ebffd560 	bl	500046b4 <serial_printf>
5000f130:	e3a0007c 	mov	r0, #124	; 0x7c
5000f134:	ebffd4dc 	bl	500044ac <serial_putc>
5000f138:	e3060ce8 	movw	r0, #27880	; 0x6ce8
5000f13c:	e3450001 	movt	r0, #20481	; 0x5001
5000f140:	e3a01002 	mov	r1, #2
5000f144:	e3a0202a 	mov	r2, #42	; 0x2a
5000f148:	ebffd559 	bl	500046b4 <serial_printf>
5000f14c:	e3a0007c 	mov	r0, #124	; 0x7c
5000f150:	ebffd4d5 	bl	500044ac <serial_putc>
5000f154:	e3060ce8 	movw	r0, #27880	; 0x6ce8
5000f158:	e3450001 	movt	r0, #20481	; 0x5001
5000f15c:	e3a01003 	mov	r1, #3
5000f160:	e3a02001 	mov	r2, #1
5000f164:	ebffd552 	bl	500046b4 <serial_printf>
5000f168:	e3a0002b 	mov	r0, #43	; 0x2b
5000f16c:	ebffd4ce 	bl	500044ac <serial_putc>
5000f170:	e3a03000 	mov	r3, #0
5000f174:	e50b3008 	str	r3, [fp, #-8]
5000f178:	ea000004 	b	5000f190 <_draw_frame+0xd0>
5000f17c:	e3a0002d 	mov	r0, #45	; 0x2d
5000f180:	ebffd4c9 	bl	500044ac <serial_putc>
5000f184:	e51b3008 	ldr	r3, [fp, #-8]
5000f188:	e2833001 	add	r3, r3, #1
5000f18c:	e50b3008 	str	r3, [fp, #-8]
5000f190:	e51b3008 	ldr	r3, [fp, #-8]
5000f194:	e3530027 	cmp	r3, #39	; 0x27
5000f198:	dafffff7 	ble	5000f17c <_draw_frame+0xbc>
5000f19c:	e3a0002b 	mov	r0, #43	; 0x2b
5000f1a0:	ebffd4c1 	bl	500044ac <serial_putc>
5000f1a4:	e3060ce8 	movw	r0, #27880	; 0x6ce8
5000f1a8:	e3450001 	movt	r0, #20481	; 0x5001
5000f1ac:	e3a01018 	mov	r1, #24
5000f1b0:	e3a02001 	mov	r2, #1
5000f1b4:	ebffd53e 	bl	500046b4 <serial_printf>
5000f1b8:	e3a0002b 	mov	r0, #43	; 0x2b
5000f1bc:	ebffd4ba 	bl	500044ac <serial_putc>
5000f1c0:	e3a03000 	mov	r3, #0
5000f1c4:	e50b3008 	str	r3, [fp, #-8]
5000f1c8:	ea000004 	b	5000f1e0 <_draw_frame+0x120>
5000f1cc:	e3a0002d 	mov	r0, #45	; 0x2d
5000f1d0:	ebffd4b5 	bl	500044ac <serial_putc>
5000f1d4:	e51b3008 	ldr	r3, [fp, #-8]
5000f1d8:	e2833001 	add	r3, r3, #1
5000f1dc:	e50b3008 	str	r3, [fp, #-8]
5000f1e0:	e51b3008 	ldr	r3, [fp, #-8]
5000f1e4:	e3530027 	cmp	r3, #39	; 0x27
5000f1e8:	dafffff7 	ble	5000f1cc <_draw_frame+0x10c>
5000f1ec:	e3a0002b 	mov	r0, #43	; 0x2b
5000f1f0:	ebffd4ad 	bl	500044ac <serial_putc>
5000f1f4:	e3060ce8 	movw	r0, #27880	; 0x6ce8
5000f1f8:	e3450001 	movt	r0, #20481	; 0x5001
5000f1fc:	e3a01004 	mov	r1, #4
5000f200:	e3a02001 	mov	r2, #1
5000f204:	ebffd52a 	bl	500046b4 <serial_printf>
5000f208:	e3a03000 	mov	r3, #0
5000f20c:	e50b3008 	str	r3, [fp, #-8]
5000f210:	ea000007 	b	5000f234 <_draw_frame+0x174>
5000f214:	e3a0007c 	mov	r0, #124	; 0x7c
5000f218:	ebffd4a3 	bl	500044ac <serial_putc>
5000f21c:	e3060d18 	movw	r0, #27928	; 0x6d18
5000f220:	e3450001 	movt	r0, #20481	; 0x5001
5000f224:	ebffd4b2 	bl	500044f4 <serial_puts>
5000f228:	e51b3008 	ldr	r3, [fp, #-8]
5000f22c:	e2833001 	add	r3, r3, #1
5000f230:	e50b3008 	str	r3, [fp, #-8]
5000f234:	e51b3008 	ldr	r3, [fp, #-8]
5000f238:	e3530013 	cmp	r3, #19
5000f23c:	dafffff4 	ble	5000f214 <_draw_frame+0x154>
5000f240:	e3060ce8 	movw	r0, #27880	; 0x6ce8
5000f244:	e3450001 	movt	r0, #20481	; 0x5001
5000f248:	e3a01004 	mov	r1, #4
5000f24c:	e3a0202a 	mov	r2, #42	; 0x2a
5000f250:	ebffd517 	bl	500046b4 <serial_printf>
5000f254:	e3a03000 	mov	r3, #0
5000f258:	e50b3008 	str	r3, [fp, #-8]
5000f25c:	ea000007 	b	5000f280 <_draw_frame+0x1c0>
5000f260:	e3a0007c 	mov	r0, #124	; 0x7c
5000f264:	ebffd490 	bl	500044ac <serial_putc>
5000f268:	e3060d18 	movw	r0, #27928	; 0x6d18
5000f26c:	e3450001 	movt	r0, #20481	; 0x5001
5000f270:	ebffd49f 	bl	500044f4 <serial_puts>
5000f274:	e51b3008 	ldr	r3, [fp, #-8]
5000f278:	e2833001 	add	r3, r3, #1
5000f27c:	e50b3008 	str	r3, [fp, #-8]
5000f280:	e51b3008 	ldr	r3, [fp, #-8]
5000f284:	e3530013 	cmp	r3, #19
5000f288:	dafffff4 	ble	5000f260 <_draw_frame+0x1a0>
5000f28c:	e24bd004 	sub	sp, fp, #4
5000f290:	e8bd8800 	pop	{fp, pc}

5000f294 <lian_main>:
5000f294:	e92d4800 	push	{fp, lr}
5000f298:	e28db004 	add	fp, sp, #4
5000f29c:	e24dd018 	sub	sp, sp, #24
5000f2a0:	e50b0018 	str	r0, [fp, #-24]
5000f2a4:	e50b101c 	str	r1, [fp, #-28]
5000f2a8:	e3060d20 	movw	r0, #27936	; 0x6d20
5000f2ac:	e3450001 	movt	r0, #20481	; 0x5001
5000f2b0:	ebffd4ff 	bl	500046b4 <serial_printf>
5000f2b4:	e3060d28 	movw	r0, #27944	; 0x6d28
5000f2b8:	e3450001 	movt	r0, #20481	; 0x5001
5000f2bc:	ebffd4fc 	bl	500046b4 <serial_printf>
5000f2c0:	ebffff7e 	bl	5000f0c0 <_draw_frame>
5000f2c4:	ebfff087 	bl	5000b4e8 <bridge_init>
5000f2c8:	e1a03000 	mov	r3, r0
5000f2cc:	e3530000 	cmp	r3, #0
5000f2d0:	ba0000a3 	blt	5000f564 <lian_main+0x2d0>
5000f2d4:	e24b3010 	sub	r3, fp, #16
5000f2d8:	e1a00003 	mov	r0, r3
5000f2dc:	e3a01003 	mov	r1, #3
5000f2e0:	ebffd4b3 	bl	500045b4 <serial_read>
5000f2e4:	e50b000c 	str	r0, [fp, #-12]
5000f2e8:	e24b2010 	sub	r2, fp, #16
5000f2ec:	e51b300c 	ldr	r3, [fp, #-12]
5000f2f0:	e0823003 	add	r3, r2, r3
5000f2f4:	e3a02000 	mov	r2, #0
5000f2f8:	e5c32000 	strb	r2, [r3]
5000f2fc:	e24b3010 	sub	r3, fp, #16
5000f300:	e1a00003 	mov	r0, r3
5000f304:	e3061d30 	movw	r1, #27952	; 0x6d30
5000f308:	e3451001 	movt	r1, #20481	; 0x5001
5000f30c:	ebffd69b 	bl	50004d80 <strcmp>
5000f310:	e1a03000 	mov	r3, r0
5000f314:	e3530000 	cmp	r3, #0
5000f318:	1a000002 	bne	5000f328 <lian_main+0x94>
5000f31c:	e3a00001 	mov	r0, #1
5000f320:	ebfff0b1 	bl	5000b5ec <bridge_move>
5000f324:	ea00008d 	b	5000f560 <lian_main+0x2cc>
5000f328:	e24b3010 	sub	r3, fp, #16
5000f32c:	e1a00003 	mov	r0, r3
5000f330:	e3061d34 	movw	r1, #27956	; 0x6d34
5000f334:	e3451001 	movt	r1, #20481	; 0x5001
5000f338:	ebffd690 	bl	50004d80 <strcmp>
5000f33c:	e1a03000 	mov	r3, r0
5000f340:	e3530000 	cmp	r3, #0
5000f344:	1a000002 	bne	5000f354 <lian_main+0xc0>
5000f348:	e3a00003 	mov	r0, #3
5000f34c:	ebfff0a6 	bl	5000b5ec <bridge_move>
5000f350:	ea000082 	b	5000f560 <lian_main+0x2cc>
5000f354:	e24b3010 	sub	r3, fp, #16
5000f358:	e1a00003 	mov	r0, r3
5000f35c:	e3061d38 	movw	r1, #27960	; 0x6d38
5000f360:	e3451001 	movt	r1, #20481	; 0x5001
5000f364:	ebffd685 	bl	50004d80 <strcmp>
5000f368:	e1a03000 	mov	r3, r0
5000f36c:	e3530000 	cmp	r3, #0
5000f370:	1a000002 	bne	5000f380 <lian_main+0xec>
5000f374:	e3a00002 	mov	r0, #2
5000f378:	ebfff09b 	bl	5000b5ec <bridge_move>
5000f37c:	ea000077 	b	5000f560 <lian_main+0x2cc>
5000f380:	e24b3010 	sub	r3, fp, #16
5000f384:	e1a00003 	mov	r0, r3
5000f388:	e3061d3c 	movw	r1, #27964	; 0x6d3c
5000f38c:	e3451001 	movt	r1, #20481	; 0x5001
5000f390:	ebffd67a 	bl	50004d80 <strcmp>
5000f394:	e1a03000 	mov	r3, r0
5000f398:	e3530000 	cmp	r3, #0
5000f39c:	1a000002 	bne	5000f3ac <lian_main+0x118>
5000f3a0:	e3a00004 	mov	r0, #4
5000f3a4:	ebfff090 	bl	5000b5ec <bridge_move>
5000f3a8:	ea00006c 	b	5000f560 <lian_main+0x2cc>
5000f3ac:	e24b3010 	sub	r3, fp, #16
5000f3b0:	e1a00003 	mov	r0, r3
5000f3b4:	e3061d40 	movw	r1, #27968	; 0x6d40
5000f3b8:	e3451001 	movt	r1, #20481	; 0x5001
5000f3bc:	ebffd66f 	bl	50004d80 <strcmp>
5000f3c0:	e1a03000 	mov	r3, r0
5000f3c4:	e3530000 	cmp	r3, #0
5000f3c8:	1a000001 	bne	5000f3d4 <lian_main+0x140>
5000f3cc:	ebfff1dd 	bl	5000bb48 <bridge_mark>
5000f3d0:	ea000062 	b	5000f560 <lian_main+0x2cc>
5000f3d4:	e24b3010 	sub	r3, fp, #16
5000f3d8:	e1a00003 	mov	r0, r3
5000f3dc:	e3061d44 	movw	r1, #27972	; 0x6d44
5000f3e0:	e3451001 	movt	r1, #20481	; 0x5001
5000f3e4:	ebffd665 	bl	50004d80 <strcmp>
5000f3e8:	e1a03000 	mov	r3, r0
5000f3ec:	e3530000 	cmp	r3, #0
5000f3f0:	1a000001 	bne	5000f3fc <lian_main+0x168>
5000f3f4:	ebfff065 	bl	5000b590 <bridge_next>
5000f3f8:	ea000058 	b	5000f560 <lian_main+0x2cc>
5000f3fc:	e51b300c 	ldr	r3, [fp, #-12]
5000f400:	e3530001 	cmp	r3, #1
5000f404:	1a000025 	bne	5000f4a0 <lian_main+0x20c>
5000f408:	e55b3010 	ldrb	r3, [fp, #-16]
5000f40c:	e6af3073 	sxtb	r3, r3
5000f410:	e3530030 	cmp	r3, #48	; 0x30
5000f414:	da000021 	ble	5000f4a0 <lian_main+0x20c>
5000f418:	e55b3010 	ldrb	r3, [fp, #-16]
5000f41c:	e6af3073 	sxtb	r3, r3
5000f420:	e3530039 	cmp	r3, #57	; 0x39
5000f424:	ca00001d 	bgt	5000f4a0 <lian_main+0x20c>
5000f428:	e55b3010 	ldrb	r3, [fp, #-16]
5000f42c:	e6af3073 	sxtb	r3, r3
5000f430:	e2433030 	sub	r3, r3, #48	; 0x30
5000f434:	e50b3008 	str	r3, [fp, #-8]
5000f438:	e24b3010 	sub	r3, fp, #16
5000f43c:	e1a00003 	mov	r0, r3
5000f440:	e3a01003 	mov	r1, #3
5000f444:	ebffd45a 	bl	500045b4 <serial_read>
5000f448:	e50b000c 	str	r0, [fp, #-12]
5000f44c:	e24b2010 	sub	r2, fp, #16
5000f450:	e51b300c 	ldr	r3, [fp, #-12]
5000f454:	e0823003 	add	r3, r2, r3
5000f458:	e3a02000 	mov	r2, #0
5000f45c:	e5c32000 	strb	r2, [r3]
5000f460:	e24b3010 	sub	r3, fp, #16
5000f464:	e1a00003 	mov	r0, r3
5000f468:	e3061d48 	movw	r1, #27976	; 0x6d48
5000f46c:	e3451001 	movt	r1, #20481	; 0x5001
5000f470:	ebffd642 	bl	50004d80 <strcmp>
5000f474:	e1a03000 	mov	r3, r0
5000f478:	e3530000 	cmp	r3, #0
5000f47c:	1a000006 	bne	5000f49c <lian_main+0x208>
5000f480:	ea000000 	b	5000f488 <lian_main+0x1f4>
5000f484:	ebfff2a1 	bl	5000bf10 <bridge_help>
5000f488:	e51b3008 	ldr	r3, [fp, #-8]
5000f48c:	e2432001 	sub	r2, r3, #1
5000f490:	e50b2008 	str	r2, [fp, #-8]
5000f494:	e3530000 	cmp	r3, #0
5000f498:	1afffff9 	bne	5000f484 <lian_main+0x1f0>
5000f49c:	ea00002f 	b	5000f560 <lian_main+0x2cc>
5000f4a0:	e24b3010 	sub	r3, fp, #16
5000f4a4:	e1a00003 	mov	r0, r3
5000f4a8:	e3061d48 	movw	r1, #27976	; 0x6d48
5000f4ac:	e3451001 	movt	r1, #20481	; 0x5001
5000f4b0:	ebffd632 	bl	50004d80 <strcmp>
5000f4b4:	e1a03000 	mov	r3, r0
5000f4b8:	e3530000 	cmp	r3, #0
5000f4bc:	1a000001 	bne	5000f4c8 <lian_main+0x234>
5000f4c0:	ebfff292 	bl	5000bf10 <bridge_help>
5000f4c4:	ea000025 	b	5000f560 <lian_main+0x2cc>
5000f4c8:	e24b3010 	sub	r3, fp, #16
5000f4cc:	e1a00003 	mov	r0, r3
5000f4d0:	e3061d4c 	movw	r1, #27980	; 0x6d4c
5000f4d4:	e3451001 	movt	r1, #20481	; 0x5001
5000f4d8:	ebffd628 	bl	50004d80 <strcmp>
5000f4dc:	e1a03000 	mov	r3, r0
5000f4e0:	e3530000 	cmp	r3, #0
5000f4e4:	1a00000e 	bne	5000f524 <lian_main+0x290>
5000f4e8:	ebfff183 	bl	5000bafc <bridge_exit>
5000f4ec:	e1a00000 	nop			; (mov r0, r0)
5000f4f0:	e3060d54 	movw	r0, #27988	; 0x6d54
5000f4f4:	e3450001 	movt	r0, #20481	; 0x5001
5000f4f8:	ebffd46d 	bl	500046b4 <serial_printf>
5000f4fc:	e3060d04 	movw	r0, #27908	; 0x6d04
5000f500:	e3450001 	movt	r0, #20481	; 0x5001
5000f504:	ebffd46a 	bl	500046b4 <serial_printf>
5000f508:	e3060d20 	movw	r0, #27936	; 0x6d20
5000f50c:	e3450001 	movt	r0, #20481	; 0x5001
5000f510:	ebffd467 	bl	500046b4 <serial_printf>
5000f514:	e3060d5c 	movw	r0, #27996	; 0x6d5c
5000f518:	e3450001 	movt	r0, #20481	; 0x5001
5000f51c:	ebffd464 	bl	500046b4 <serial_printf>
5000f520:	ea00000f 	b	5000f564 <lian_main+0x2d0>
5000f524:	e24b3010 	sub	r3, fp, #16
5000f528:	e1a00003 	mov	r0, r3
5000f52c:	e3061d50 	movw	r1, #27984	; 0x6d50
5000f530:	e3451001 	movt	r1, #20481	; 0x5001
5000f534:	ebffd611 	bl	50004d80 <strcmp>
5000f538:	e1a03000 	mov	r3, r0
5000f53c:	e3530000 	cmp	r3, #0
5000f540:	1a000006 	bne	5000f560 <lian_main+0x2cc>
5000f544:	e30c3edc 	movw	r3, #52956	; 0xcedc
5000f548:	e3453001 	movt	r3, #20481	; 0x5001
5000f54c:	e5933000 	ldr	r3, [r3]
5000f550:	e2632001 	rsb	r2, r3, #1
5000f554:	e30c3edc 	movw	r3, #52956	; 0xcedc
5000f558:	e3453001 	movt	r3, #20481	; 0x5001
5000f55c:	e5832000 	str	r2, [r3]
5000f560:	eaffff5b 	b	5000f2d4 <lian_main+0x40>
5000f564:	e24bd004 	sub	sp, fp, #4
5000f568:	e8bd8800 	pop	{fp, pc}

5000f56c <tetris_cmd_init>:
5000f56c:	e92d4800 	push	{fp, lr}
5000f570:	e28db004 	add	fp, sp, #4
5000f574:	e3070780 	movw	r0, #30592	; 0x7780
5000f578:	e3450001 	movt	r0, #20481	; 0x5001
5000f57c:	ebffc5c7 	bl	50000ca0 <cmd_add>
5000f580:	e8bd8800 	pop	{fp, pc}

5000f584 <_Russian_tty_show>:
5000f584:	e92d4800 	push	{fp, lr}
5000f588:	e28db004 	add	fp, sp, #4
5000f58c:	e24dd018 	sub	sp, sp, #24
5000f590:	e50b0010 	str	r0, [fp, #-16]
5000f594:	e50b1014 	str	r1, [fp, #-20]
5000f598:	e50b2018 	str	r2, [fp, #-24]
5000f59c:	e50b301c 	str	r3, [fp, #-28]
5000f5a0:	e59b3008 	ldr	r3, [fp, #8]
5000f5a4:	e3530000 	cmp	r3, #0
5000f5a8:	aa000014 	bge	5000f600 <_Russian_tty_show+0x7c>
5000f5ac:	e3a0300c 	mov	r3, #12
5000f5b0:	e50b3008 	str	r3, [fp, #-8]
5000f5b4:	e3060d78 	movw	r0, #28024	; 0x6d78
5000f5b8:	e3450001 	movt	r0, #20481	; 0x5001
5000f5bc:	e3a01001 	mov	r1, #1
5000f5c0:	e51b2008 	ldr	r2, [fp, #-8]
5000f5c4:	ebffd43a 	bl	500046b4 <serial_printf>
5000f5c8:	e3060d84 	movw	r0, #28036	; 0x6d84
5000f5cc:	e3450001 	movt	r0, #20481	; 0x5001
5000f5d0:	ebffd437 	bl	500046b4 <serial_printf>
5000f5d4:	e3060d8c 	movw	r0, #28044	; 0x6d8c
5000f5d8:	e3450001 	movt	r0, #20481	; 0x5001
5000f5dc:	ebffd434 	bl	500046b4 <serial_printf>
5000f5e0:	e59b3008 	ldr	r3, [fp, #8]
5000f5e4:	e3c33102 	bic	r3, r3, #-2147483648	; 0x80000000
5000f5e8:	e3060d94 	movw	r0, #28052	; 0x6d94
5000f5ec:	e3450001 	movt	r0, #20481	; 0x5001
5000f5f0:	e1a01003 	mov	r1, r3
5000f5f4:	ebffd42e 	bl	500046b4 <serial_printf>
5000f5f8:	e59b3008 	ldr	r3, [fp, #8]
5000f5fc:	ea000016 	b	5000f65c <_Russian_tty_show+0xd8>
5000f600:	e51b3018 	ldr	r3, [fp, #-24]
5000f604:	e2832002 	add	r2, r3, #2
5000f608:	e51b3014 	ldr	r3, [fp, #-20]
5000f60c:	e2833001 	add	r3, r3, #1
5000f610:	e1a03083 	lsl	r3, r3, #1
5000f614:	e3060d78 	movw	r0, #28024	; 0x6d78
5000f618:	e3450001 	movt	r0, #20481	; 0x5001
5000f61c:	e1a01002 	mov	r1, r2
5000f620:	e1a02003 	mov	r2, r3
5000f624:	ebffd422 	bl	500046b4 <serial_printf>
5000f628:	e3060da0 	movw	r0, #28064	; 0x6da0
5000f62c:	e3450001 	movt	r0, #20481	; 0x5001
5000f630:	ebffd41f 	bl	500046b4 <serial_printf>
5000f634:	e59b3008 	ldr	r3, [fp, #8]
5000f638:	e2833028 	add	r3, r3, #40	; 0x28
5000f63c:	e3060da8 	movw	r0, #28072	; 0x6da8
5000f640:	e3450001 	movt	r0, #20481	; 0x5001
5000f644:	e1a01003 	mov	r1, r3
5000f648:	ebffd419 	bl	500046b4 <serial_printf>
5000f64c:	e3060db0 	movw	r0, #28080	; 0x6db0
5000f650:	e3450001 	movt	r0, #20481	; 0x5001
5000f654:	ebffd416 	bl	500046b4 <serial_printf>
5000f658:	e59b3008 	ldr	r3, [fp, #8]
5000f65c:	e1a00003 	mov	r0, r3
5000f660:	e24bd004 	sub	sp, fp, #4
5000f664:	e8bd8800 	pop	{fp, pc}

5000f668 <_draw_frame>:
5000f668:	e92d4800 	push	{fp, lr}
5000f66c:	e28db004 	add	fp, sp, #4
5000f670:	e24dd008 	sub	sp, sp, #8
5000f674:	e3060d78 	movw	r0, #28024	; 0x6d78
5000f678:	e3450001 	movt	r0, #20481	; 0x5001
5000f67c:	e3a01001 	mov	r1, #1
5000f680:	e3a02001 	mov	r2, #1
5000f684:	ebffd40a 	bl	500046b4 <serial_printf>
5000f688:	e3a0002b 	mov	r0, #43	; 0x2b
5000f68c:	ebffd386 	bl	500044ac <serial_putc>
5000f690:	e3a03000 	mov	r3, #0
5000f694:	e50b3008 	str	r3, [fp, #-8]
5000f698:	ea000004 	b	5000f6b0 <_draw_frame+0x48>
5000f69c:	e3a0002d 	mov	r0, #45	; 0x2d
5000f6a0:	ebffd381 	bl	500044ac <serial_putc>
5000f6a4:	e51b3008 	ldr	r3, [fp, #-8]
5000f6a8:	e2833001 	add	r3, r3, #1
5000f6ac:	e50b3008 	str	r3, [fp, #-8]
5000f6b0:	e51b3008 	ldr	r3, [fp, #-8]
5000f6b4:	e353001d 	cmp	r3, #29
5000f6b8:	dafffff7 	ble	5000f69c <_draw_frame+0x34>
5000f6bc:	e3a0002b 	mov	r0, #43	; 0x2b
5000f6c0:	ebffd379 	bl	500044ac <serial_putc>
5000f6c4:	e3060d78 	movw	r0, #28024	; 0x6d78
5000f6c8:	e3450001 	movt	r0, #20481	; 0x5001
5000f6cc:	e3a01019 	mov	r1, #25
5000f6d0:	e3a02001 	mov	r2, #1
5000f6d4:	ebffd3f6 	bl	500046b4 <serial_printf>
5000f6d8:	e3a0002b 	mov	r0, #43	; 0x2b
5000f6dc:	ebffd372 	bl	500044ac <serial_putc>
5000f6e0:	e3a03000 	mov	r3, #0
5000f6e4:	e50b3008 	str	r3, [fp, #-8]
5000f6e8:	ea000004 	b	5000f700 <_draw_frame+0x98>
5000f6ec:	e3a0002d 	mov	r0, #45	; 0x2d
5000f6f0:	ebffd36d 	bl	500044ac <serial_putc>
5000f6f4:	e51b3008 	ldr	r3, [fp, #-8]
5000f6f8:	e2833001 	add	r3, r3, #1
5000f6fc:	e50b3008 	str	r3, [fp, #-8]
5000f700:	e51b3008 	ldr	r3, [fp, #-8]
5000f704:	e353001d 	cmp	r3, #29
5000f708:	dafffff7 	ble	5000f6ec <_draw_frame+0x84>
5000f70c:	e3a0002b 	mov	r0, #43	; 0x2b
5000f710:	ebffd365 	bl	500044ac <serial_putc>
5000f714:	e3a03000 	mov	r3, #0
5000f718:	e50b3008 	str	r3, [fp, #-8]
5000f71c:	ea000014 	b	5000f774 <_draw_frame+0x10c>
5000f720:	e51b3008 	ldr	r3, [fp, #-8]
5000f724:	e2833002 	add	r3, r3, #2
5000f728:	e3060d78 	movw	r0, #28024	; 0x6d78
5000f72c:	e3450001 	movt	r0, #20481	; 0x5001
5000f730:	e1a01003 	mov	r1, r3
5000f734:	e3a02001 	mov	r2, #1
5000f738:	ebffd3dd 	bl	500046b4 <serial_printf>
5000f73c:	e3a0007c 	mov	r0, #124	; 0x7c
5000f740:	ebffd359 	bl	500044ac <serial_putc>
5000f744:	e51b3008 	ldr	r3, [fp, #-8]
5000f748:	e2833002 	add	r3, r3, #2
5000f74c:	e3060d78 	movw	r0, #28024	; 0x6d78
5000f750:	e3450001 	movt	r0, #20481	; 0x5001
5000f754:	e1a01003 	mov	r1, r3
5000f758:	e3a02020 	mov	r2, #32
5000f75c:	ebffd3d4 	bl	500046b4 <serial_printf>
5000f760:	e3a0007c 	mov	r0, #124	; 0x7c
5000f764:	ebffd350 	bl	500044ac <serial_putc>
5000f768:	e51b3008 	ldr	r3, [fp, #-8]
5000f76c:	e2833001 	add	r3, r3, #1
5000f770:	e50b3008 	str	r3, [fp, #-8]
5000f774:	e51b3008 	ldr	r3, [fp, #-8]
5000f778:	e3530016 	cmp	r3, #22
5000f77c:	daffffe7 	ble	5000f720 <_draw_frame+0xb8>
5000f780:	e24bd004 	sub	sp, fp, #4
5000f784:	e8bd8800 	pop	{fp, pc}

5000f788 <tetris_main>:
5000f788:	e92d4800 	push	{fp, lr}
5000f78c:	e28db004 	add	fp, sp, #4
5000f790:	e24dd018 	sub	sp, sp, #24
5000f794:	e50b0008 	str	r0, [fp, #-8]
5000f798:	e50b100c 	str	r1, [fp, #-12]
5000f79c:	e3060db4 	movw	r0, #28084	; 0x6db4
5000f7a0:	e3450001 	movt	r0, #20481	; 0x5001
5000f7a4:	ebffd3c2 	bl	500046b4 <serial_printf>
5000f7a8:	e3060dbc 	movw	r0, #28092	; 0x6dbc
5000f7ac:	e3450001 	movt	r0, #20481	; 0x5001
5000f7b0:	ebffd3bf 	bl	500046b4 <serial_printf>
5000f7b4:	ebffffab 	bl	5000f668 <_draw_frame>
5000f7b8:	e3a0300f 	mov	r3, #15
5000f7bc:	e58d3000 	str	r3, [sp]
5000f7c0:	e3a03017 	mov	r3, #23
5000f7c4:	e58d3004 	str	r3, [sp, #4]
5000f7c8:	e3a03001 	mov	r3, #1
5000f7cc:	e58d3008 	str	r3, [sp, #8]
5000f7d0:	e30f3584 	movw	r3, #62852	; 0xf584
5000f7d4:	e3453000 	movt	r3, #20480	; 0x5000
5000f7d8:	e58d300c 	str	r3, [sp, #12]
5000f7dc:	e3a00000 	mov	r0, #0
5000f7e0:	e3a01000 	mov	r1, #0
5000f7e4:	e3a02000 	mov	r2, #0
5000f7e8:	e3a03000 	mov	r3, #0
5000f7ec:	eb000323 	bl	50010480 <Russian_main>
5000f7f0:	e3060dc4 	movw	r0, #28100	; 0x6dc4
5000f7f4:	e3450001 	movt	r0, #20481	; 0x5001
5000f7f8:	ebffd3ad 	bl	500046b4 <serial_printf>
5000f7fc:	e3060d84 	movw	r0, #28036	; 0x6d84
5000f800:	e3450001 	movt	r0, #20481	; 0x5001
5000f804:	ebffd3aa 	bl	500046b4 <serial_printf>
5000f808:	e3060db4 	movw	r0, #28084	; 0x6db4
5000f80c:	e3450001 	movt	r0, #20481	; 0x5001
5000f810:	ebffd3a7 	bl	500046b4 <serial_printf>
5000f814:	e3060dcc 	movw	r0, #28108	; 0x6dcc
5000f818:	e3450001 	movt	r0, #20481	; 0x5001
5000f81c:	ebffd3a4 	bl	500046b4 <serial_printf>
5000f820:	e24bd004 	sub	sp, fp, #4
5000f824:	e8bd8800 	pop	{fp, pc}

5000f828 <find_steps>:
5000f828:	e92d4800 	push	{fp, lr}
5000f82c:	e28db004 	add	fp, sp, #4
5000f830:	e24dd040 	sub	sp, sp, #64	; 0x40
5000f834:	e50b0038 	str	r0, [fp, #-56]	; 0x38
5000f838:	e50b103c 	str	r1, [fp, #-60]	; 0x3c
5000f83c:	e50b2040 	str	r2, [fp, #-64]	; 0x40
5000f840:	e3a03102 	mov	r3, #-2147483648	; 0x80000000
5000f844:	e50b3008 	str	r3, [fp, #-8]
5000f848:	e51b203c 	ldr	r2, [fp, #-60]	; 0x3c
5000f84c:	e24b3030 	sub	r3, fp, #48	; 0x30
5000f850:	e8920003 	ldm	r2, {r0, r1}
5000f854:	e8830003 	stm	r3, {r0, r1}
5000f858:	e51b303c 	ldr	r3, [fp, #-60]	; 0x3c
5000f85c:	e5933004 	ldr	r3, [r3, #4]
5000f860:	e50b3010 	str	r3, [fp, #-16]
5000f864:	e51b303c 	ldr	r3, [fp, #-60]	; 0x3c
5000f868:	e1d330b0 	ldrh	r3, [r3]
5000f86c:	e6bf3073 	sxth	r3, r3
5000f870:	e50b3014 	str	r3, [fp, #-20]
5000f874:	e24b3030 	sub	r3, fp, #48	; 0x30
5000f878:	e2833004 	add	r3, r3, #4
5000f87c:	e1a00003 	mov	r0, r3
5000f880:	eb0002b3 	bl	50010354 <get_turn_num>
5000f884:	e50b0018 	str	r0, [fp, #-24]
5000f888:	e51b202c 	ldr	r2, [fp, #-44]	; 0x2c
5000f88c:	e51b3018 	ldr	r3, [fp, #-24]
5000f890:	e0823003 	add	r3, r2, r3
5000f894:	e50b301c 	str	r3, [fp, #-28]
5000f898:	ea00002b 	b	5000f94c <find_steps+0x124>
5000f89c:	e51b302c 	ldr	r3, [fp, #-44]	; 0x2c
5000f8a0:	e1a00003 	mov	r0, r3
5000f8a4:	eb000157 	bl	5000fe08 <get_type_column_num>
5000f8a8:	e50b0020 	str	r0, [fp, #-32]
5000f8ac:	e51b3038 	ldr	r3, [fp, #-56]	; 0x38
5000f8b0:	e5932004 	ldr	r2, [r3, #4]
5000f8b4:	e51b3020 	ldr	r3, [fp, #-32]
5000f8b8:	e0633002 	rsb	r3, r3, r2
5000f8bc:	e2833001 	add	r3, r3, #1
5000f8c0:	e50b3024 	str	r3, [fp, #-36]	; 0x24
5000f8c4:	e3a03000 	mov	r3, #0
5000f8c8:	e14b33b0 	strh	r3, [fp, #-48]	; 0xffffffd0
5000f8cc:	ea000016 	b	5000f92c <find_steps+0x104>
5000f8d0:	e24b3030 	sub	r3, fp, #48	; 0x30
5000f8d4:	e51b0038 	ldr	r0, [fp, #-56]	; 0x38
5000f8d8:	e1a01003 	mov	r1, r3
5000f8dc:	eb000073 	bl	5000fab0 <get_score>
5000f8e0:	e50b0028 	str	r0, [fp, #-40]	; 0x28
5000f8e4:	e51b2008 	ldr	r2, [fp, #-8]
5000f8e8:	e51b3028 	ldr	r3, [fp, #-40]	; 0x28
5000f8ec:	e1520003 	cmp	r2, r3
5000f8f0:	aa000006 	bge	5000f910 <find_steps+0xe8>
5000f8f4:	e51b3028 	ldr	r3, [fp, #-40]	; 0x28
5000f8f8:	e50b3008 	str	r3, [fp, #-8]
5000f8fc:	e51b302c 	ldr	r3, [fp, #-44]	; 0x2c
5000f900:	e50b3010 	str	r3, [fp, #-16]
5000f904:	e15b33b0 	ldrh	r3, [fp, #-48]	; 0xffffffd0
5000f908:	e6bf3073 	sxth	r3, r3
5000f90c:	e50b3014 	str	r3, [fp, #-20]
5000f910:	e15b33b0 	ldrh	r3, [fp, #-48]	; 0xffffffd0
5000f914:	e6ff3073 	uxth	r3, r3
5000f918:	e6ff3073 	uxth	r3, r3
5000f91c:	e2833001 	add	r3, r3, #1
5000f920:	e6ff3073 	uxth	r3, r3
5000f924:	e6ff3073 	uxth	r3, r3
5000f928:	e14b33b0 	strh	r3, [fp, #-48]	; 0xffffffd0
5000f92c:	e15b33b0 	ldrh	r3, [fp, #-48]	; 0xffffffd0
5000f930:	e6bf2073 	sxth	r2, r3
5000f934:	e51b3024 	ldr	r3, [fp, #-36]	; 0x24
5000f938:	e1520003 	cmp	r2, r3
5000f93c:	baffffe3 	blt	5000f8d0 <find_steps+0xa8>
5000f940:	e51b302c 	ldr	r3, [fp, #-44]	; 0x2c
5000f944:	e2833001 	add	r3, r3, #1
5000f948:	e50b302c 	str	r3, [fp, #-44]	; 0x2c
5000f94c:	e51b202c 	ldr	r2, [fp, #-44]	; 0x2c
5000f950:	e51b301c 	ldr	r3, [fp, #-28]
5000f954:	e1520003 	cmp	r2, r3
5000f958:	3affffcf 	bcc	5000f89c <find_steps+0x74>
5000f95c:	e51b303c 	ldr	r3, [fp, #-60]	; 0x3c
5000f960:	e5932004 	ldr	r2, [r3, #4]
5000f964:	e51b3010 	ldr	r3, [fp, #-16]
5000f968:	e1520003 	cmp	r2, r3
5000f96c:	9a000003 	bls	5000f980 <find_steps+0x158>
5000f970:	e51b3018 	ldr	r3, [fp, #-24]
5000f974:	e51b2010 	ldr	r2, [fp, #-16]
5000f978:	e0823003 	add	r3, r2, r3
5000f97c:	e50b3010 	str	r3, [fp, #-16]
5000f980:	e51b303c 	ldr	r3, [fp, #-60]	; 0x3c
5000f984:	e5933004 	ldr	r3, [r3, #4]
5000f988:	e50b300c 	str	r3, [fp, #-12]
5000f98c:	ea00000a 	b	5000f9bc <find_steps+0x194>
5000f990:	e51b3040 	ldr	r3, [fp, #-64]	; 0x40
5000f994:	e59330c8 	ldr	r3, [r3, #200]	; 0xc8
5000f998:	e2831001 	add	r1, r3, #1
5000f99c:	e51b2040 	ldr	r2, [fp, #-64]	; 0x40
5000f9a0:	e58210c8 	str	r1, [r2, #200]	; 0xc8
5000f9a4:	e51b2040 	ldr	r2, [fp, #-64]	; 0x40
5000f9a8:	e3a01001 	mov	r1, #1
5000f9ac:	e7821103 	str	r1, [r2, r3, lsl #2]
5000f9b0:	e51b300c 	ldr	r3, [fp, #-12]
5000f9b4:	e2833001 	add	r3, r3, #1
5000f9b8:	e50b300c 	str	r3, [fp, #-12]
5000f9bc:	e51b200c 	ldr	r2, [fp, #-12]
5000f9c0:	e51b3010 	ldr	r3, [fp, #-16]
5000f9c4:	e1520003 	cmp	r2, r3
5000f9c8:	3afffff0 	bcc	5000f990 <find_steps+0x168>
5000f9cc:	e51b303c 	ldr	r3, [fp, #-60]	; 0x3c
5000f9d0:	e1d330b0 	ldrh	r3, [r3]
5000f9d4:	e6bf2073 	sxth	r2, r3
5000f9d8:	e51b3014 	ldr	r3, [fp, #-20]
5000f9dc:	e1520003 	cmp	r2, r3
5000f9e0:	aa000014 	bge	5000fa38 <find_steps+0x210>
5000f9e4:	e51b303c 	ldr	r3, [fp, #-60]	; 0x3c
5000f9e8:	e1d330b0 	ldrh	r3, [r3]
5000f9ec:	e6bf3073 	sxth	r3, r3
5000f9f0:	e50b300c 	str	r3, [fp, #-12]
5000f9f4:	ea00000a 	b	5000fa24 <find_steps+0x1fc>
5000f9f8:	e51b3040 	ldr	r3, [fp, #-64]	; 0x40
5000f9fc:	e59330c8 	ldr	r3, [r3, #200]	; 0xc8
5000fa00:	e2831001 	add	r1, r3, #1
5000fa04:	e51b2040 	ldr	r2, [fp, #-64]	; 0x40
5000fa08:	e58210c8 	str	r1, [r2, #200]	; 0xc8
5000fa0c:	e51b2040 	ldr	r2, [fp, #-64]	; 0x40
5000fa10:	e3a01003 	mov	r1, #3
5000fa14:	e7821103 	str	r1, [r2, r3, lsl #2]
5000fa18:	e51b300c 	ldr	r3, [fp, #-12]
5000fa1c:	e2833001 	add	r3, r3, #1
5000fa20:	e50b300c 	str	r3, [fp, #-12]
5000fa24:	e51b200c 	ldr	r2, [fp, #-12]
5000fa28:	e51b3014 	ldr	r3, [fp, #-20]
5000fa2c:	e1520003 	cmp	r2, r3
5000fa30:	bafffff0 	blt	5000f9f8 <find_steps+0x1d0>
5000fa34:	ea000013 	b	5000fa88 <find_steps+0x260>
5000fa38:	e51b3014 	ldr	r3, [fp, #-20]
5000fa3c:	e50b300c 	str	r3, [fp, #-12]
5000fa40:	ea00000a 	b	5000fa70 <find_steps+0x248>
5000fa44:	e51b3040 	ldr	r3, [fp, #-64]	; 0x40
5000fa48:	e59330c8 	ldr	r3, [r3, #200]	; 0xc8
5000fa4c:	e2831001 	add	r1, r3, #1
5000fa50:	e51b2040 	ldr	r2, [fp, #-64]	; 0x40
5000fa54:	e58210c8 	str	r1, [r2, #200]	; 0xc8
5000fa58:	e51b2040 	ldr	r2, [fp, #-64]	; 0x40
5000fa5c:	e3a01004 	mov	r1, #4
5000fa60:	e7821103 	str	r1, [r2, r3, lsl #2]
5000fa64:	e51b300c 	ldr	r3, [fp, #-12]
5000fa68:	e2833001 	add	r3, r3, #1
5000fa6c:	e50b300c 	str	r3, [fp, #-12]
5000fa70:	e51b303c 	ldr	r3, [fp, #-60]	; 0x3c
5000fa74:	e1d330b0 	ldrh	r3, [r3]
5000fa78:	e6bf2073 	sxth	r2, r3
5000fa7c:	e51b300c 	ldr	r3, [fp, #-12]
5000fa80:	e1520003 	cmp	r2, r3
5000fa84:	caffffee 	bgt	5000fa44 <find_steps+0x21c>
5000fa88:	e51b3040 	ldr	r3, [fp, #-64]	; 0x40
5000fa8c:	e59330c8 	ldr	r3, [r3, #200]	; 0xc8
5000fa90:	e2831001 	add	r1, r3, #1
5000fa94:	e51b2040 	ldr	r2, [fp, #-64]	; 0x40
5000fa98:	e58210c8 	str	r1, [r2, #200]	; 0xc8
5000fa9c:	e51b2040 	ldr	r2, [fp, #-64]	; 0x40
5000faa0:	e3a01006 	mov	r1, #6
5000faa4:	e7821103 	str	r1, [r2, r3, lsl #2]
5000faa8:	e24bd004 	sub	sp, fp, #4
5000faac:	e8bd8800 	pop	{fp, pc}

5000fab0 <get_score>:
5000fab0:	e92d4800 	push	{fp, lr}
5000fab4:	e28db004 	add	fp, sp, #4
5000fab8:	e24dd030 	sub	sp, sp, #48	; 0x30
5000fabc:	e50b0030 	str	r0, [fp, #-48]	; 0x30
5000fac0:	e50b1034 	str	r1, [fp, #-52]	; 0x34
5000fac4:	e3a03102 	mov	r3, #-2147483648	; 0x80000000
5000fac8:	e50b3008 	str	r3, [fp, #-8]
5000facc:	e3a03000 	mov	r3, #0
5000fad0:	e50b300c 	str	r3, [fp, #-12]
5000fad4:	e51b3030 	ldr	r3, [fp, #-48]	; 0x30
5000fad8:	e5933004 	ldr	r3, [r3, #4]
5000fadc:	e3a02001 	mov	r2, #1
5000fae0:	e1a03312 	lsl	r3, r2, r3
5000fae4:	e2433001 	sub	r3, r3, #1
5000fae8:	e50b3014 	str	r3, [fp, #-20]
5000faec:	e51b0030 	ldr	r0, [fp, #-48]	; 0x30
5000faf0:	eb0000ea 	bl	5000fea0 <cal_all_holes_in_scr>
5000faf4:	e50b0018 	str	r0, [fp, #-24]
5000faf8:	e51b0030 	ldr	r0, [fp, #-48]	; 0x30
5000fafc:	e51b1034 	ldr	r1, [fp, #-52]	; 0x34
5000fb00:	eb00015b 	bl	50010074 <min_interval_between_blk_scr>
5000fb04:	e50b001c 	str	r0, [fp, #-28]
5000fb08:	e51b301c 	ldr	r3, [fp, #-28]
5000fb0c:	e3530000 	cmp	r3, #0
5000fb10:	aa000000 	bge	5000fb18 <get_score+0x68>
5000fb14:	ea0000b7 	b	5000fdf8 <get_score+0x348>
5000fb18:	e3a03000 	mov	r3, #0
5000fb1c:	e50b3010 	str	r3, [fp, #-16]
5000fb20:	ea00003e 	b	5000fc20 <get_score+0x170>
5000fb24:	e51b3034 	ldr	r3, [fp, #-52]	; 0x34
5000fb28:	e1d330b0 	ldrh	r3, [r3]
5000fb2c:	e6bf2073 	sxth	r2, r3
5000fb30:	e51b3034 	ldr	r3, [fp, #-52]	; 0x34
5000fb34:	e5931004 	ldr	r1, [r3, #4]
5000fb38:	e3063dd4 	movw	r3, #28116	; 0x6dd4
5000fb3c:	e3453001 	movt	r3, #20481	; 0x5001
5000fb40:	e1a00101 	lsl	r0, r1, #2
5000fb44:	e51b1010 	ldr	r1, [fp, #-16]
5000fb48:	e0801001 	add	r1, r0, r1
5000fb4c:	e7d33101 	ldrb	r3, [r3, r1, lsl #2]
5000fb50:	e7e33053 	ubfx	r3, r3, #0, #4
5000fb54:	e6ef3073 	uxtb	r3, r3
5000fb58:	e0823003 	add	r3, r2, r3
5000fb5c:	e50b3020 	str	r3, [fp, #-32]
5000fb60:	e51b3034 	ldr	r3, [fp, #-52]	; 0x34
5000fb64:	e1d330b2 	ldrh	r3, [r3, #2]
5000fb68:	e6bf2073 	sxth	r2, r3
5000fb6c:	e51b3034 	ldr	r3, [fp, #-52]	; 0x34
5000fb70:	e5931004 	ldr	r1, [r3, #4]
5000fb74:	e3063dd4 	movw	r3, #28116	; 0x6dd4
5000fb78:	e3453001 	movt	r3, #20481	; 0x5001
5000fb7c:	e1a00101 	lsl	r0, r1, #2
5000fb80:	e51b1010 	ldr	r1, [fp, #-16]
5000fb84:	e0801001 	add	r1, r0, r1
5000fb88:	e7d33101 	ldrb	r3, [r3, r1, lsl #2]
5000fb8c:	e7e33253 	ubfx	r3, r3, #4, #4
5000fb90:	e6ef3073 	uxtb	r3, r3
5000fb94:	e0822003 	add	r2, r2, r3
5000fb98:	e51b301c 	ldr	r3, [fp, #-28]
5000fb9c:	e0823003 	add	r3, r2, r3
5000fba0:	e50b3024 	str	r3, [fp, #-36]	; 0x24
5000fba4:	e51b3030 	ldr	r3, [fp, #-48]	; 0x30
5000fba8:	e5932000 	ldr	r2, [r3]
5000fbac:	e51b3024 	ldr	r3, [fp, #-36]	; 0x24
5000fbb0:	e1a03103 	lsl	r3, r3, #2
5000fbb4:	e0823003 	add	r3, r2, r3
5000fbb8:	e51b2030 	ldr	r2, [fp, #-48]	; 0x30
5000fbbc:	e5921000 	ldr	r1, [r2]
5000fbc0:	e51b2024 	ldr	r2, [fp, #-36]	; 0x24
5000fbc4:	e1a02102 	lsl	r2, r2, #2
5000fbc8:	e0812002 	add	r2, r1, r2
5000fbcc:	e5922000 	ldr	r2, [r2]
5000fbd0:	e3a00001 	mov	r0, #1
5000fbd4:	e51b1020 	ldr	r1, [fp, #-32]
5000fbd8:	e1a01110 	lsl	r1, r0, r1
5000fbdc:	e1822001 	orr	r2, r2, r1
5000fbe0:	e5832000 	str	r2, [r3]
5000fbe4:	e51b3030 	ldr	r3, [fp, #-48]	; 0x30
5000fbe8:	e5932000 	ldr	r2, [r3]
5000fbec:	e51b3024 	ldr	r3, [fp, #-36]	; 0x24
5000fbf0:	e1a03103 	lsl	r3, r3, #2
5000fbf4:	e0823003 	add	r3, r2, r3
5000fbf8:	e5932000 	ldr	r2, [r3]
5000fbfc:	e51b3014 	ldr	r3, [fp, #-20]
5000fc00:	e1520003 	cmp	r2, r3
5000fc04:	1a000002 	bne	5000fc14 <get_score+0x164>
5000fc08:	e51b300c 	ldr	r3, [fp, #-12]
5000fc0c:	e2833001 	add	r3, r3, #1
5000fc10:	e50b300c 	str	r3, [fp, #-12]
5000fc14:	e51b3010 	ldr	r3, [fp, #-16]
5000fc18:	e2833001 	add	r3, r3, #1
5000fc1c:	e50b3010 	str	r3, [fp, #-16]
5000fc20:	e51b3010 	ldr	r3, [fp, #-16]
5000fc24:	e3530003 	cmp	r3, #3
5000fc28:	daffffbd 	ble	5000fb24 <get_score+0x74>
5000fc2c:	e3063f04 	movw	r3, #28420	; 0x6f04
5000fc30:	e3453001 	movt	r3, #20481	; 0x5001
5000fc34:	e51b200c 	ldr	r2, [fp, #-12]
5000fc38:	e7933102 	ldr	r3, [r3, r2, lsl #2]
5000fc3c:	e50b3008 	str	r3, [fp, #-8]
5000fc40:	e51b301c 	ldr	r3, [fp, #-28]
5000fc44:	e1a03083 	lsl	r3, r3, #1
5000fc48:	e51b2008 	ldr	r2, [fp, #-8]
5000fc4c:	e0823003 	add	r3, r2, r3
5000fc50:	e50b3008 	str	r3, [fp, #-8]
5000fc54:	e51b0030 	ldr	r0, [fp, #-48]	; 0x30
5000fc58:	eb0000e6 	bl	5000fff8 <get_height>
5000fc5c:	e1a02000 	mov	r2, r0
5000fc60:	e51b300c 	ldr	r3, [fp, #-12]
5000fc64:	e0633002 	rsb	r3, r3, r2
5000fc68:	e50b3028 	str	r3, [fp, #-40]	; 0x28
5000fc6c:	e51b3030 	ldr	r3, [fp, #-48]	; 0x30
5000fc70:	e5933008 	ldr	r3, [r3, #8]
5000fc74:	e1a01083 	lsl	r1, r3, #1
5000fc78:	e3063667 	movw	r3, #26215	; 0x6667
5000fc7c:	e3463666 	movt	r3, #26214	; 0x6666
5000fc80:	e0c32391 	smull	r2, r3, r1, r3
5000fc84:	e1a02143 	asr	r2, r3, #2
5000fc88:	e1a03fc1 	asr	r3, r1, #31
5000fc8c:	e0632002 	rsb	r2, r3, r2
5000fc90:	e51b3028 	ldr	r3, [fp, #-40]	; 0x28
5000fc94:	e1520003 	cmp	r2, r3
5000fc98:	aa00000e 	bge	5000fcd8 <get_score+0x228>
5000fc9c:	e51b3030 	ldr	r3, [fp, #-48]	; 0x30
5000fca0:	e5933008 	ldr	r3, [r3, #8]
5000fca4:	e1a01083 	lsl	r1, r3, #1
5000fca8:	e3063667 	movw	r3, #26215	; 0x6667
5000fcac:	e3463666 	movt	r3, #26214	; 0x6666
5000fcb0:	e0c32391 	smull	r2, r3, r1, r3
5000fcb4:	e1a02143 	asr	r2, r3, #2
5000fcb8:	e1a03fc1 	asr	r3, r1, #31
5000fcbc:	e0632002 	rsb	r2, r3, r2
5000fcc0:	e51b3028 	ldr	r3, [fp, #-40]	; 0x28
5000fcc4:	e0633002 	rsb	r3, r3, r2
5000fcc8:	e1a03083 	lsl	r3, r3, #1
5000fccc:	e51b2008 	ldr	r2, [fp, #-8]
5000fcd0:	e0823003 	add	r3, r2, r3
5000fcd4:	e50b3008 	str	r3, [fp, #-8]
5000fcd8:	e51b0030 	ldr	r0, [fp, #-48]	; 0x30
5000fcdc:	eb00006f 	bl	5000fea0 <cal_all_holes_in_scr>
5000fce0:	e1a02000 	mov	r2, r0
5000fce4:	e51b3018 	ldr	r3, [fp, #-24]
5000fce8:	e0633002 	rsb	r3, r3, r2
5000fcec:	e50b3018 	str	r3, [fp, #-24]
5000fcf0:	e51b2018 	ldr	r2, [fp, #-24]
5000fcf4:	e1a03002 	mov	r3, r2
5000fcf8:	e1a03103 	lsl	r3, r3, #2
5000fcfc:	e0833002 	add	r3, r3, r2
5000fd00:	e2633000 	rsb	r3, r3, #0
5000fd04:	e51b2008 	ldr	r2, [fp, #-8]
5000fd08:	e0823003 	add	r3, r2, r3
5000fd0c:	e50b3008 	str	r3, [fp, #-8]
5000fd10:	e3a03000 	mov	r3, #0
5000fd14:	e50b3010 	str	r3, [fp, #-16]
5000fd18:	ea000033 	b	5000fdec <get_score+0x33c>
5000fd1c:	e51b3034 	ldr	r3, [fp, #-52]	; 0x34
5000fd20:	e1d330b0 	ldrh	r3, [r3]
5000fd24:	e6bf2073 	sxth	r2, r3
5000fd28:	e51b3034 	ldr	r3, [fp, #-52]	; 0x34
5000fd2c:	e5931004 	ldr	r1, [r3, #4]
5000fd30:	e3063dd4 	movw	r3, #28116	; 0x6dd4
5000fd34:	e3453001 	movt	r3, #20481	; 0x5001
5000fd38:	e1a00101 	lsl	r0, r1, #2
5000fd3c:	e51b1010 	ldr	r1, [fp, #-16]
5000fd40:	e0801001 	add	r1, r0, r1
5000fd44:	e7d33101 	ldrb	r3, [r3, r1, lsl #2]
5000fd48:	e7e33053 	ubfx	r3, r3, #0, #4
5000fd4c:	e6ef3073 	uxtb	r3, r3
5000fd50:	e0823003 	add	r3, r2, r3
5000fd54:	e50b3020 	str	r3, [fp, #-32]
5000fd58:	e51b3034 	ldr	r3, [fp, #-52]	; 0x34
5000fd5c:	e1d330b2 	ldrh	r3, [r3, #2]
5000fd60:	e6bf2073 	sxth	r2, r3
5000fd64:	e51b3034 	ldr	r3, [fp, #-52]	; 0x34
5000fd68:	e5931004 	ldr	r1, [r3, #4]
5000fd6c:	e3063dd4 	movw	r3, #28116	; 0x6dd4
5000fd70:	e3453001 	movt	r3, #20481	; 0x5001
5000fd74:	e1a00101 	lsl	r0, r1, #2
5000fd78:	e51b1010 	ldr	r1, [fp, #-16]
5000fd7c:	e0801001 	add	r1, r0, r1
5000fd80:	e7d33101 	ldrb	r3, [r3, r1, lsl #2]
5000fd84:	e7e33253 	ubfx	r3, r3, #4, #4
5000fd88:	e6ef3073 	uxtb	r3, r3
5000fd8c:	e0822003 	add	r2, r2, r3
5000fd90:	e51b301c 	ldr	r3, [fp, #-28]
5000fd94:	e0823003 	add	r3, r2, r3
5000fd98:	e50b3024 	str	r3, [fp, #-36]	; 0x24
5000fd9c:	e51b3030 	ldr	r3, [fp, #-48]	; 0x30
5000fda0:	e5932000 	ldr	r2, [r3]
5000fda4:	e51b3024 	ldr	r3, [fp, #-36]	; 0x24
5000fda8:	e1a03103 	lsl	r3, r3, #2
5000fdac:	e0823003 	add	r3, r2, r3
5000fdb0:	e51b2030 	ldr	r2, [fp, #-48]	; 0x30
5000fdb4:	e5921000 	ldr	r1, [r2]
5000fdb8:	e51b2024 	ldr	r2, [fp, #-36]	; 0x24
5000fdbc:	e1a02102 	lsl	r2, r2, #2
5000fdc0:	e0812002 	add	r2, r1, r2
5000fdc4:	e5922000 	ldr	r2, [r2]
5000fdc8:	e3a00001 	mov	r0, #1
5000fdcc:	e51b1020 	ldr	r1, [fp, #-32]
5000fdd0:	e1a01110 	lsl	r1, r0, r1
5000fdd4:	e1e01001 	mvn	r1, r1
5000fdd8:	e0022001 	and	r2, r2, r1
5000fddc:	e5832000 	str	r2, [r3]
5000fde0:	e51b3010 	ldr	r3, [fp, #-16]
5000fde4:	e2833001 	add	r3, r3, #1
5000fde8:	e50b3010 	str	r3, [fp, #-16]
5000fdec:	e51b3010 	ldr	r3, [fp, #-16]
5000fdf0:	e3530003 	cmp	r3, #3
5000fdf4:	daffffc8 	ble	5000fd1c <get_score+0x26c>
5000fdf8:	e51b3008 	ldr	r3, [fp, #-8]
5000fdfc:	e1a00003 	mov	r0, r3
5000fe00:	e24bd004 	sub	sp, fp, #4
5000fe04:	e8bd8800 	pop	{fp, pc}

5000fe08 <get_type_column_num>:
5000fe08:	e52db004 	push	{fp}		; (str fp, [sp, #-4]!)
5000fe0c:	e28db000 	add	fp, sp, #0
5000fe10:	e24dd014 	sub	sp, sp, #20
5000fe14:	e50b0010 	str	r0, [fp, #-16]
5000fe18:	e3a03000 	mov	r3, #0
5000fe1c:	e50b300c 	str	r3, [fp, #-12]
5000fe20:	e3a03000 	mov	r3, #0
5000fe24:	e50b3008 	str	r3, [fp, #-8]
5000fe28:	ea000011 	b	5000fe74 <get_type_column_num+0x6c>
5000fe2c:	e3063dd4 	movw	r3, #28116	; 0x6dd4
5000fe30:	e3453001 	movt	r3, #20481	; 0x5001
5000fe34:	e51b2010 	ldr	r2, [fp, #-16]
5000fe38:	e1a01102 	lsl	r1, r2, #2
5000fe3c:	e51b2008 	ldr	r2, [fp, #-8]
5000fe40:	e0812002 	add	r2, r1, r2
5000fe44:	e7d33102 	ldrb	r3, [r3, r2, lsl #2]
5000fe48:	e7e33053 	ubfx	r3, r3, #0, #4
5000fe4c:	e6ef3073 	uxtb	r3, r3
5000fe50:	e1a02003 	mov	r2, r3
5000fe54:	e51b300c 	ldr	r3, [fp, #-12]
5000fe58:	e1530002 	cmp	r3, r2
5000fe5c:	a1a03003 	movge	r3, r3
5000fe60:	b1a03002 	movlt	r3, r2
5000fe64:	e50b300c 	str	r3, [fp, #-12]
5000fe68:	e51b3008 	ldr	r3, [fp, #-8]
5000fe6c:	e2833001 	add	r3, r3, #1
5000fe70:	e50b3008 	str	r3, [fp, #-8]
5000fe74:	e51b3008 	ldr	r3, [fp, #-8]
5000fe78:	e3530003 	cmp	r3, #3
5000fe7c:	daffffea 	ble	5000fe2c <get_type_column_num+0x24>
5000fe80:	e51b300c 	ldr	r3, [fp, #-12]
5000fe84:	e2833001 	add	r3, r3, #1
5000fe88:	e50b300c 	str	r3, [fp, #-12]
5000fe8c:	e51b300c 	ldr	r3, [fp, #-12]
5000fe90:	e1a00003 	mov	r0, r3
5000fe94:	e24bd000 	sub	sp, fp, #0
5000fe98:	e49db004 	pop	{fp}		; (ldr fp, [sp], #4)
5000fe9c:	e12fff1e 	bx	lr

5000fea0 <cal_all_holes_in_scr>:
5000fea0:	e92d4800 	push	{fp, lr}
5000fea4:	e28db004 	add	fp, sp, #4
5000fea8:	e24dd010 	sub	sp, sp, #16
5000feac:	e50b0010 	str	r0, [fp, #-16]
5000feb0:	e3a03000 	mov	r3, #0
5000feb4:	e50b300c 	str	r3, [fp, #-12]
5000feb8:	e3a03000 	mov	r3, #0
5000febc:	e50b3008 	str	r3, [fp, #-8]
5000fec0:	ea000009 	b	5000feec <cal_all_holes_in_scr+0x4c>
5000fec4:	e51b0010 	ldr	r0, [fp, #-16]
5000fec8:	e51b1008 	ldr	r1, [fp, #-8]
5000fecc:	eb00000f 	bl	5000ff10 <cal_holes_in_one_column>
5000fed0:	e1a02000 	mov	r2, r0
5000fed4:	e51b300c 	ldr	r3, [fp, #-12]
5000fed8:	e0833002 	add	r3, r3, r2
5000fedc:	e50b300c 	str	r3, [fp, #-12]
5000fee0:	e51b3008 	ldr	r3, [fp, #-8]
5000fee4:	e2833001 	add	r3, r3, #1
5000fee8:	e50b3008 	str	r3, [fp, #-8]
5000feec:	e51b3010 	ldr	r3, [fp, #-16]
5000fef0:	e5932004 	ldr	r2, [r3, #4]
5000fef4:	e51b3008 	ldr	r3, [fp, #-8]
5000fef8:	e1520003 	cmp	r2, r3
5000fefc:	cafffff0 	bgt	5000fec4 <cal_all_holes_in_scr+0x24>
5000ff00:	e51b300c 	ldr	r3, [fp, #-12]
5000ff04:	e1a00003 	mov	r0, r3
5000ff08:	e24bd004 	sub	sp, fp, #4
5000ff0c:	e8bd8800 	pop	{fp, pc}

5000ff10 <cal_holes_in_one_column>:
5000ff10:	e52db004 	push	{fp}		; (str fp, [sp, #-4]!)
5000ff14:	e28db000 	add	fp, sp, #0
5000ff18:	e24dd01c 	sub	sp, sp, #28
5000ff1c:	e50b0018 	str	r0, [fp, #-24]
5000ff20:	e50b101c 	str	r1, [fp, #-28]
5000ff24:	e51b3018 	ldr	r3, [fp, #-24]
5000ff28:	e5933004 	ldr	r3, [r3, #4]
5000ff2c:	e3a02001 	mov	r2, #1
5000ff30:	e1a03312 	lsl	r3, r2, r3
5000ff34:	e2433001 	sub	r3, r3, #1
5000ff38:	e50b3014 	str	r3, [fp, #-20]
5000ff3c:	e3a03000 	mov	r3, #0
5000ff40:	e50b300c 	str	r3, [fp, #-12]
5000ff44:	e3a03000 	mov	r3, #0
5000ff48:	e50b3010 	str	r3, [fp, #-16]
5000ff4c:	e3a03000 	mov	r3, #0
5000ff50:	e50b3008 	str	r3, [fp, #-8]
5000ff54:	ea00001d 	b	5000ffd0 <cal_holes_in_one_column+0xc0>
5000ff58:	e51b3018 	ldr	r3, [fp, #-24]
5000ff5c:	e5932000 	ldr	r2, [r3]
5000ff60:	e51b3008 	ldr	r3, [fp, #-8]
5000ff64:	e1a03103 	lsl	r3, r3, #2
5000ff68:	e0823003 	add	r3, r2, r3
5000ff6c:	e5932000 	ldr	r2, [r3]
5000ff70:	e51b3014 	ldr	r3, [fp, #-20]
5000ff74:	e1520003 	cmp	r2, r3
5000ff78:	0a000011 	beq	5000ffc4 <cal_holes_in_one_column+0xb4>
5000ff7c:	e51b3018 	ldr	r3, [fp, #-24]
5000ff80:	e5932000 	ldr	r2, [r3]
5000ff84:	e51b3008 	ldr	r3, [fp, #-8]
5000ff88:	e1a03103 	lsl	r3, r3, #2
5000ff8c:	e0823003 	add	r3, r2, r3
5000ff90:	e5932000 	ldr	r2, [r3]
5000ff94:	e51b301c 	ldr	r3, [fp, #-28]
5000ff98:	e1a03332 	lsr	r3, r2, r3
5000ff9c:	e2033001 	and	r3, r3, #1
5000ffa0:	e3530000 	cmp	r3, #0
5000ffa4:	0a000002 	beq	5000ffb4 <cal_holes_in_one_column+0xa4>
5000ffa8:	e3a03001 	mov	r3, #1
5000ffac:	e50b300c 	str	r3, [fp, #-12]
5000ffb0:	ea000003 	b	5000ffc4 <cal_holes_in_one_column+0xb4>
5000ffb4:	e51b2010 	ldr	r2, [fp, #-16]
5000ffb8:	e51b300c 	ldr	r3, [fp, #-12]
5000ffbc:	e0823003 	add	r3, r2, r3
5000ffc0:	e50b3010 	str	r3, [fp, #-16]
5000ffc4:	e51b3008 	ldr	r3, [fp, #-8]
5000ffc8:	e2833001 	add	r3, r3, #1
5000ffcc:	e50b3008 	str	r3, [fp, #-8]
5000ffd0:	e51b3018 	ldr	r3, [fp, #-24]
5000ffd4:	e5932008 	ldr	r2, [r3, #8]
5000ffd8:	e51b3008 	ldr	r3, [fp, #-8]
5000ffdc:	e1520003 	cmp	r2, r3
5000ffe0:	caffffdc 	bgt	5000ff58 <cal_holes_in_one_column+0x48>
5000ffe4:	e51b3010 	ldr	r3, [fp, #-16]
5000ffe8:	e1a00003 	mov	r0, r3
5000ffec:	e24bd000 	sub	sp, fp, #0
5000fff0:	e49db004 	pop	{fp}		; (ldr fp, [sp], #4)
5000fff4:	e12fff1e 	bx	lr

5000fff8 <get_height>:
5000fff8:	e52db004 	push	{fp}		; (str fp, [sp, #-4]!)
5000fffc:	e28db000 	add	fp, sp, #0
50010000:	e24dd014 	sub	sp, sp, #20
50010004:	e50b0010 	str	r0, [fp, #-16]
50010008:	e3a03000 	mov	r3, #0
5001000c:	e50b3008 	str	r3, [fp, #-8]
50010010:	ea000002 	b	50010020 <get_height+0x28>
50010014:	e51b3008 	ldr	r3, [fp, #-8]
50010018:	e2833001 	add	r3, r3, #1
5001001c:	e50b3008 	str	r3, [fp, #-8]
50010020:	e51b3010 	ldr	r3, [fp, #-16]
50010024:	e5932008 	ldr	r2, [r3, #8]
50010028:	e51b3008 	ldr	r3, [fp, #-8]
5001002c:	e1520003 	cmp	r2, r3
50010030:	da000007 	ble	50010054 <get_height+0x5c>
50010034:	e51b3010 	ldr	r3, [fp, #-16]
50010038:	e5932000 	ldr	r2, [r3]
5001003c:	e51b3008 	ldr	r3, [fp, #-8]
50010040:	e1a03103 	lsl	r3, r3, #2
50010044:	e0823003 	add	r3, r2, r3
50010048:	e5933000 	ldr	r3, [r3]
5001004c:	e3530000 	cmp	r3, #0
50010050:	0affffef 	beq	50010014 <get_height+0x1c>
50010054:	e51b3010 	ldr	r3, [fp, #-16]
50010058:	e5932008 	ldr	r2, [r3, #8]
5001005c:	e51b3008 	ldr	r3, [fp, #-8]
50010060:	e0633002 	rsb	r3, r3, r2
50010064:	e1a00003 	mov	r0, r3
50010068:	e24bd000 	sub	sp, fp, #0
5001006c:	e49db004 	pop	{fp}		; (ldr fp, [sp], #4)
50010070:	e12fff1e 	bx	lr

50010074 <min_interval_between_blk_scr>:
50010074:	e92d4800 	push	{fp, lr}
50010078:	e28db004 	add	fp, sp, #4
5001007c:	e24dd040 	sub	sp, sp, #64	; 0x40
50010080:	e50b0040 	str	r0, [fp, #-64]	; 0x40
50010084:	e50b1044 	str	r1, [fp, #-68]	; 0x44
50010088:	e51b3040 	ldr	r3, [fp, #-64]	; 0x40
5001008c:	e5933008 	ldr	r3, [r3, #8]
50010090:	e50b300c 	str	r3, [fp, #-12]
50010094:	e3a03000 	mov	r3, #0
50010098:	e50b3008 	str	r3, [fp, #-8]
5001009c:	ea000011 	b	500100e8 <min_interval_between_blk_scr+0x74>
500100a0:	e51b3044 	ldr	r3, [fp, #-68]	; 0x44
500100a4:	e1d330b2 	ldrh	r3, [r3, #2]
500100a8:	e6bf2073 	sxth	r2, r3
500100ac:	e51b3008 	ldr	r3, [fp, #-8]
500100b0:	e1a03103 	lsl	r3, r3, #2
500100b4:	e24b1004 	sub	r1, fp, #4
500100b8:	e0813003 	add	r3, r1, r3
500100bc:	e5032024 	str	r2, [r3, #-36]	; 0x24
500100c0:	e51b3040 	ldr	r3, [fp, #-64]	; 0x40
500100c4:	e5932008 	ldr	r2, [r3, #8]
500100c8:	e51b3008 	ldr	r3, [fp, #-8]
500100cc:	e1a03103 	lsl	r3, r3, #2
500100d0:	e24b1004 	sub	r1, fp, #4
500100d4:	e0813003 	add	r3, r1, r3
500100d8:	e5032034 	str	r2, [r3, #-52]	; 0x34
500100dc:	e51b3008 	ldr	r3, [fp, #-8]
500100e0:	e2833001 	add	r3, r3, #1
500100e4:	e50b3008 	str	r3, [fp, #-8]
500100e8:	e51b3008 	ldr	r3, [fp, #-8]
500100ec:	e3530003 	cmp	r3, #3
500100f0:	daffffea 	ble	500100a0 <min_interval_between_blk_scr+0x2c>
500100f4:	e51b3044 	ldr	r3, [fp, #-68]	; 0x44
500100f8:	e5933004 	ldr	r3, [r3, #4]
500100fc:	e1a00003 	mov	r0, r3
50010100:	ebffff40 	bl	5000fe08 <get_type_column_num>
50010104:	e50b0018 	str	r0, [fp, #-24]
50010108:	e3a03000 	mov	r3, #0
5001010c:	e50b3008 	str	r3, [fp, #-8]
50010110:	ea000030 	b	500101d8 <min_interval_between_blk_scr+0x164>
50010114:	e51b3044 	ldr	r3, [fp, #-68]	; 0x44
50010118:	e5932004 	ldr	r2, [r3, #4]
5001011c:	e3063dd4 	movw	r3, #28116	; 0x6dd4
50010120:	e3453001 	movt	r3, #20481	; 0x5001
50010124:	e1a01102 	lsl	r1, r2, #2
50010128:	e51b2008 	ldr	r2, [fp, #-8]
5001012c:	e0812002 	add	r2, r1, r2
50010130:	e7d33102 	ldrb	r3, [r3, r2, lsl #2]
50010134:	e7e33053 	ubfx	r3, r3, #0, #4
50010138:	e6ef3073 	uxtb	r3, r3
5001013c:	e1a0c003 	mov	ip, r3
50010140:	e51b3044 	ldr	r3, [fp, #-68]	; 0x44
50010144:	e1d330b2 	ldrh	r3, [r3, #2]
50010148:	e6bf2073 	sxth	r2, r3
5001014c:	e51b3044 	ldr	r3, [fp, #-68]	; 0x44
50010150:	e5931004 	ldr	r1, [r3, #4]
50010154:	e3063dd4 	movw	r3, #28116	; 0x6dd4
50010158:	e3453001 	movt	r3, #20481	; 0x5001
5001015c:	e1a00101 	lsl	r0, r1, #2
50010160:	e51b1008 	ldr	r1, [fp, #-8]
50010164:	e0801001 	add	r1, r0, r1
50010168:	e7d33101 	ldrb	r3, [r3, r1, lsl #2]
5001016c:	e7e33253 	ubfx	r3, r3, #4, #4
50010170:	e6ef3073 	uxtb	r3, r3
50010174:	e0822003 	add	r2, r2, r3
50010178:	e51b3044 	ldr	r3, [fp, #-68]	; 0x44
5001017c:	e5931004 	ldr	r1, [r3, #4]
50010180:	e3063dd4 	movw	r3, #28116	; 0x6dd4
50010184:	e3453001 	movt	r3, #20481	; 0x5001
50010188:	e1a00101 	lsl	r0, r1, #2
5001018c:	e51b1008 	ldr	r1, [fp, #-8]
50010190:	e0801001 	add	r1, r0, r1
50010194:	e7d33101 	ldrb	r3, [r3, r1, lsl #2]
50010198:	e7e33053 	ubfx	r3, r3, #0, #4
5001019c:	e6ef3073 	uxtb	r3, r3
500101a0:	e1a03103 	lsl	r3, r3, #2
500101a4:	e24b1004 	sub	r1, fp, #4
500101a8:	e0813003 	add	r3, r1, r3
500101ac:	e5133024 	ldr	r3, [r3, #-36]	; 0x24
500101b0:	e1520003 	cmp	r2, r3
500101b4:	a1a02002 	movge	r2, r2
500101b8:	b1a02003 	movlt	r2, r3
500101bc:	e1a0310c 	lsl	r3, ip, #2
500101c0:	e24b1004 	sub	r1, fp, #4
500101c4:	e0813003 	add	r3, r1, r3
500101c8:	e5032024 	str	r2, [r3, #-36]	; 0x24
500101cc:	e51b3008 	ldr	r3, [fp, #-8]
500101d0:	e2833001 	add	r3, r3, #1
500101d4:	e50b3008 	str	r3, [fp, #-8]
500101d8:	e51b3008 	ldr	r3, [fp, #-8]
500101dc:	e3530003 	cmp	r3, #3
500101e0:	daffffcb 	ble	50010114 <min_interval_between_blk_scr+0xa0>
500101e4:	e51b3018 	ldr	r3, [fp, #-24]
500101e8:	e50b3010 	str	r3, [fp, #-16]
500101ec:	e3a03000 	mov	r3, #0
500101f0:	e50b3008 	str	r3, [fp, #-8]
500101f4:	ea000032 	b	500102c4 <min_interval_between_blk_scr+0x250>
500101f8:	e3a03000 	mov	r3, #0
500101fc:	e50b3014 	str	r3, [fp, #-20]
50010200:	ea000024 	b	50010298 <min_interval_between_blk_scr+0x224>
50010204:	e51b3014 	ldr	r3, [fp, #-20]
50010208:	e1a03103 	lsl	r3, r3, #2
5001020c:	e24b2004 	sub	r2, fp, #4
50010210:	e0823003 	add	r3, r2, r3
50010214:	e5132034 	ldr	r2, [r3, #-52]	; 0x34
50010218:	e51b3040 	ldr	r3, [fp, #-64]	; 0x40
5001021c:	e5933008 	ldr	r3, [r3, #8]
50010220:	e1520003 	cmp	r2, r3
50010224:	0a000000 	beq	5001022c <min_interval_between_blk_scr+0x1b8>
50010228:	ea000017 	b	5001028c <min_interval_between_blk_scr+0x218>
5001022c:	e51b3040 	ldr	r3, [fp, #-64]	; 0x40
50010230:	e5932000 	ldr	r2, [r3]
50010234:	e51b3008 	ldr	r3, [fp, #-8]
50010238:	e1a03103 	lsl	r3, r3, #2
5001023c:	e0823003 	add	r3, r2, r3
50010240:	e5932000 	ldr	r2, [r3]
50010244:	e51b3044 	ldr	r3, [fp, #-68]	; 0x44
50010248:	e1d330b0 	ldrh	r3, [r3]
5001024c:	e6bf1073 	sxth	r1, r3
50010250:	e51b3014 	ldr	r3, [fp, #-20]
50010254:	e0813003 	add	r3, r1, r3
50010258:	e1a03332 	lsr	r3, r2, r3
5001025c:	e2033001 	and	r3, r3, #1
50010260:	e3530000 	cmp	r3, #0
50010264:	0a000008 	beq	5001028c <min_interval_between_blk_scr+0x218>
50010268:	e51b3010 	ldr	r3, [fp, #-16]
5001026c:	e2433001 	sub	r3, r3, #1
50010270:	e50b3010 	str	r3, [fp, #-16]
50010274:	e51b3014 	ldr	r3, [fp, #-20]
50010278:	e1a03103 	lsl	r3, r3, #2
5001027c:	e24b2004 	sub	r2, fp, #4
50010280:	e0823003 	add	r3, r2, r3
50010284:	e51b2008 	ldr	r2, [fp, #-8]
50010288:	e5032034 	str	r2, [r3, #-52]	; 0x34
5001028c:	e51b3014 	ldr	r3, [fp, #-20]
50010290:	e2833001 	add	r3, r3, #1
50010294:	e50b3014 	str	r3, [fp, #-20]
50010298:	e51b2014 	ldr	r2, [fp, #-20]
5001029c:	e51b3018 	ldr	r3, [fp, #-24]
500102a0:	e1520003 	cmp	r2, r3
500102a4:	baffffd6 	blt	50010204 <min_interval_between_blk_scr+0x190>
500102a8:	e51b3010 	ldr	r3, [fp, #-16]
500102ac:	e3530000 	cmp	r3, #0
500102b0:	1a000000 	bne	500102b8 <min_interval_between_blk_scr+0x244>
500102b4:	ea000007 	b	500102d8 <min_interval_between_blk_scr+0x264>
500102b8:	e51b3008 	ldr	r3, [fp, #-8]
500102bc:	e2833001 	add	r3, r3, #1
500102c0:	e50b3008 	str	r3, [fp, #-8]
500102c4:	e51b3040 	ldr	r3, [fp, #-64]	; 0x40
500102c8:	e5932008 	ldr	r2, [r3, #8]
500102cc:	e51b3008 	ldr	r3, [fp, #-8]
500102d0:	e1520003 	cmp	r2, r3
500102d4:	caffffc7 	bgt	500101f8 <min_interval_between_blk_scr+0x184>
500102d8:	e3a03000 	mov	r3, #0
500102dc:	e50b3008 	str	r3, [fp, #-8]
500102e0:	ea000013 	b	50010334 <min_interval_between_blk_scr+0x2c0>
500102e4:	e51b3008 	ldr	r3, [fp, #-8]
500102e8:	e1a03103 	lsl	r3, r3, #2
500102ec:	e24b2004 	sub	r2, fp, #4
500102f0:	e0823003 	add	r3, r2, r3
500102f4:	e5132034 	ldr	r2, [r3, #-52]	; 0x34
500102f8:	e51b3008 	ldr	r3, [fp, #-8]
500102fc:	e1a03103 	lsl	r3, r3, #2
50010300:	e24b1004 	sub	r1, fp, #4
50010304:	e0813003 	add	r3, r1, r3
50010308:	e5133024 	ldr	r3, [r3, #-36]	; 0x24
5001030c:	e0633002 	rsb	r3, r3, r2
50010310:	e2433001 	sub	r3, r3, #1
50010314:	e51b200c 	ldr	r2, [fp, #-12]
50010318:	e1520003 	cmp	r2, r3
5001031c:	b1a03002 	movlt	r3, r2
50010320:	a1a03003 	movge	r3, r3
50010324:	e50b300c 	str	r3, [fp, #-12]
50010328:	e51b3008 	ldr	r3, [fp, #-8]
5001032c:	e2833001 	add	r3, r3, #1
50010330:	e50b3008 	str	r3, [fp, #-8]
50010334:	e51b2008 	ldr	r2, [fp, #-8]
50010338:	e51b3018 	ldr	r3, [fp, #-24]
5001033c:	e1520003 	cmp	r2, r3
50010340:	baffffe7 	blt	500102e4 <min_interval_between_blk_scr+0x270>
50010344:	e51b300c 	ldr	r3, [fp, #-12]
50010348:	e1a00003 	mov	r0, r3
5001034c:	e24bd004 	sub	sp, fp, #4
50010350:	e8bd8800 	pop	{fp, pc}

50010354 <get_turn_num>:
50010354:	e52db004 	push	{fp}		; (str fp, [sp, #-4]!)
50010358:	e28db000 	add	fp, sp, #0
5001035c:	e24dd014 	sub	sp, sp, #20
50010360:	e50b0010 	str	r0, [fp, #-16]
50010364:	e3a03000 	mov	r3, #0
50010368:	e50b3008 	str	r3, [fp, #-8]
5001036c:	e51b3010 	ldr	r3, [fp, #-16]
50010370:	e5933000 	ldr	r3, [r3]
50010374:	e3530012 	cmp	r3, #18
50010378:	979ff103 	ldrls	pc, [pc, r3, lsl #2]
5001037c:	ea000039 	b	50010468 <get_turn_num+0x114>
50010380:	500103cc 	.word	0x500103cc
50010384:	500103d8 	.word	0x500103d8
50010388:	500103d8 	.word	0x500103d8
5001038c:	500103f0 	.word	0x500103f0
50010390:	500103f0 	.word	0x500103f0
50010394:	50010408 	.word	0x50010408
50010398:	50010408 	.word	0x50010408
5001039c:	50010420 	.word	0x50010420
500103a0:	50010420 	.word	0x50010420
500103a4:	50010420 	.word	0x50010420
500103a8:	50010420 	.word	0x50010420
500103ac:	50010438 	.word	0x50010438
500103b0:	50010438 	.word	0x50010438
500103b4:	50010438 	.word	0x50010438
500103b8:	50010438 	.word	0x50010438
500103bc:	50010450 	.word	0x50010450
500103c0:	50010450 	.word	0x50010450
500103c4:	50010450 	.word	0x50010450
500103c8:	50010450 	.word	0x50010450
500103cc:	e3a03001 	mov	r3, #1
500103d0:	e50b3008 	str	r3, [fp, #-8]
500103d4:	ea000024 	b	5001046c <get_turn_num+0x118>
500103d8:	e51b3010 	ldr	r3, [fp, #-16]
500103dc:	e3a02001 	mov	r2, #1
500103e0:	e5832000 	str	r2, [r3]
500103e4:	e3a03002 	mov	r3, #2
500103e8:	e50b3008 	str	r3, [fp, #-8]
500103ec:	ea00001e 	b	5001046c <get_turn_num+0x118>
500103f0:	e51b3010 	ldr	r3, [fp, #-16]
500103f4:	e3a02003 	mov	r2, #3
500103f8:	e5832000 	str	r2, [r3]
500103fc:	e3a03002 	mov	r3, #2
50010400:	e50b3008 	str	r3, [fp, #-8]
50010404:	ea000018 	b	5001046c <get_turn_num+0x118>
50010408:	e51b3010 	ldr	r3, [fp, #-16]
5001040c:	e3a02005 	mov	r2, #5
50010410:	e5832000 	str	r2, [r3]
50010414:	e3a03002 	mov	r3, #2
50010418:	e50b3008 	str	r3, [fp, #-8]
5001041c:	ea000012 	b	5001046c <get_turn_num+0x118>
50010420:	e51b3010 	ldr	r3, [fp, #-16]
50010424:	e3a02007 	mov	r2, #7
50010428:	e5832000 	str	r2, [r3]
5001042c:	e3a03004 	mov	r3, #4
50010430:	e50b3008 	str	r3, [fp, #-8]
50010434:	ea00000c 	b	5001046c <get_turn_num+0x118>
50010438:	e51b3010 	ldr	r3, [fp, #-16]
5001043c:	e3a0200b 	mov	r2, #11
50010440:	e5832000 	str	r2, [r3]
50010444:	e3a03004 	mov	r3, #4
50010448:	e50b3008 	str	r3, [fp, #-8]
5001044c:	ea000006 	b	5001046c <get_turn_num+0x118>
50010450:	e51b3010 	ldr	r3, [fp, #-16]
50010454:	e3a0200f 	mov	r2, #15
50010458:	e5832000 	str	r2, [r3]
5001045c:	e3a03004 	mov	r3, #4
50010460:	e50b3008 	str	r3, [fp, #-8]
50010464:	ea000000 	b	5001046c <get_turn_num+0x118>
50010468:	e1a00000 	nop			; (mov r0, r0)
5001046c:	e51b3008 	ldr	r3, [fp, #-8]
50010470:	e1a00003 	mov	r0, r3
50010474:	e24bd000 	sub	sp, fp, #0
50010478:	e49db004 	pop	{fp}		; (ldr fp, [sp], #4)
5001047c:	e12fff1e 	bx	lr

50010480 <Russian_main>:
50010480:	e92d4800 	push	{fp, lr}
50010484:	e28db004 	add	fp, sp, #4
50010488:	e24dd028 	sub	sp, sp, #40	; 0x28
5001048c:	e50b0020 	str	r0, [fp, #-32]
50010490:	e50b1024 	str	r1, [fp, #-36]	; 0x24
50010494:	e50b2028 	str	r2, [fp, #-40]	; 0x28
50010498:	e50b302c 	str	r3, [fp, #-44]	; 0x2c
5001049c:	e3a03000 	mov	r3, #0
500104a0:	e50b3008 	str	r3, [fp, #-8]
500104a4:	e3a00018 	mov	r0, #24
500104a8:	ebffc5c2 	bl	50001bb8 <memH_malloc>
500104ac:	e50b0008 	str	r0, [fp, #-8]
500104b0:	e51b3008 	ldr	r3, [fp, #-8]
500104b4:	e3530000 	cmp	r3, #0
500104b8:	1a000003 	bne	500104cc <Russian_main+0x4c>
500104bc:	e3060f64 	movw	r0, #28516	; 0x6f64
500104c0:	e3450001 	movt	r0, #20481	; 0x5001
500104c4:	ebffd07a 	bl	500046b4 <serial_printf>
500104c8:	ea0000d3 	b	5001081c <Russian_main+0x39c>
500104cc:	e59b2004 	ldr	r2, [fp, #4]
500104d0:	e51b3028 	ldr	r3, [fp, #-40]	; 0x28
500104d4:	e0633002 	rsb	r3, r3, r2
500104d8:	e1a00003 	mov	r0, r3
500104dc:	e59b100c 	ldr	r1, [fp, #12]
500104e0:	eb0011b4 	bl	50014bb8 <__aeabi_idiv>
500104e4:	e1a03000 	mov	r3, r0
500104e8:	e50b300c 	str	r3, [fp, #-12]
500104ec:	e59b2008 	ldr	r2, [fp, #8]
500104f0:	e51b302c 	ldr	r3, [fp, #-44]	; 0x2c
500104f4:	e0633002 	rsb	r3, r3, r2
500104f8:	e1a00003 	mov	r0, r3
500104fc:	e59b100c 	ldr	r1, [fp, #12]
50010500:	eb0011ac 	bl	50014bb8 <__aeabi_idiv>
50010504:	e1a03000 	mov	r3, r0
50010508:	e50b3010 	str	r3, [fp, #-16]
5001050c:	e51b3008 	ldr	r3, [fp, #-8]
50010510:	e51b2020 	ldr	r2, [fp, #-32]
50010514:	e5832000 	str	r2, [r3]
50010518:	e51b3008 	ldr	r3, [fp, #-8]
5001051c:	e59b2010 	ldr	r2, [fp, #16]
50010520:	e5832004 	str	r2, [r3, #4]
50010524:	e51b3008 	ldr	r3, [fp, #-8]
50010528:	e51b2028 	ldr	r2, [fp, #-40]	; 0x28
5001052c:	e583200c 	str	r2, [r3, #12]
50010530:	e51b3008 	ldr	r3, [fp, #-8]
50010534:	e51b202c 	ldr	r2, [fp, #-44]	; 0x2c
50010538:	e5832010 	str	r2, [r3, #16]
5001053c:	e51b3008 	ldr	r3, [fp, #-8]
50010540:	e59b200c 	ldr	r2, [fp, #12]
50010544:	e5832014 	str	r2, [r3, #20]
50010548:	e51b0008 	ldr	r0, [fp, #-8]
5001054c:	e51b100c 	ldr	r1, [fp, #-12]
50010550:	e51b2010 	ldr	r2, [fp, #-16]
50010554:	e3003824 	movw	r3, #2084	; 0x824
50010558:	e3453001 	movt	r3, #20481	; 0x5001
5001055c:	eb00016c 	bl	50010b14 <rb_init>
50010560:	e1a02000 	mov	r2, r0
50010564:	e51b3008 	ldr	r3, [fp, #-8]
50010568:	e5832008 	str	r2, [r3, #8]
5001056c:	e24b3018 	sub	r3, fp, #24
50010570:	e1a00003 	mov	r0, r3
50010574:	e3a01003 	mov	r1, #3
50010578:	ebffd00d 	bl	500045b4 <serial_read>
5001057c:	e50b0014 	str	r0, [fp, #-20]
50010580:	e24b2018 	sub	r2, fp, #24
50010584:	e51b3014 	ldr	r3, [fp, #-20]
50010588:	e0823003 	add	r3, r2, r3
5001058c:	e3a02000 	mov	r2, #0
50010590:	e5c32000 	strb	r2, [r3]
50010594:	e24b3018 	sub	r3, fp, #24
50010598:	e1a00003 	mov	r0, r3
5001059c:	e3061f8c 	movw	r1, #28556	; 0x6f8c
500105a0:	e3451001 	movt	r1, #20481	; 0x5001
500105a4:	ebffd1f5 	bl	50004d80 <strcmp>
500105a8:	e1a03000 	mov	r3, r0
500105ac:	e3530000 	cmp	r3, #0
500105b0:	1a000011 	bne	500105fc <Russian_main+0x17c>
500105b4:	e51b3008 	ldr	r3, [fp, #-8]
500105b8:	e5933008 	ldr	r3, [r3, #8]
500105bc:	e1a00003 	mov	r0, r3
500105c0:	e3a01002 	mov	r1, #2
500105c4:	eb0006d5 	bl	50012120 <rb_send_msg>
500105c8:	e1a03000 	mov	r3, r0
500105cc:	e3730002 	cmn	r3, #2
500105d0:	1a000000 	bne	500105d8 <Russian_main+0x158>
500105d4:	ea000081 	b	500107e0 <Russian_main+0x360>
500105d8:	e51b3008 	ldr	r3, [fp, #-8]
500105dc:	e5933008 	ldr	r3, [r3, #8]
500105e0:	e1a00003 	mov	r0, r3
500105e4:	e3a01002 	mov	r1, #2
500105e8:	eb0006cc 	bl	50012120 <rb_send_msg>
500105ec:	e1a03000 	mov	r3, r0
500105f0:	e3730002 	cmn	r3, #2
500105f4:	1a000078 	bne	500107dc <Russian_main+0x35c>
500105f8:	ea000078 	b	500107e0 <Russian_main+0x360>
500105fc:	e24b3018 	sub	r3, fp, #24
50010600:	e1a00003 	mov	r0, r3
50010604:	e3061f90 	movw	r1, #28560	; 0x6f90
50010608:	e3451001 	movt	r1, #20481	; 0x5001
5001060c:	ebffd1db 	bl	50004d80 <strcmp>
50010610:	e1a03000 	mov	r3, r0
50010614:	e3530000 	cmp	r3, #0
50010618:	1a000008 	bne	50010640 <Russian_main+0x1c0>
5001061c:	e51b3008 	ldr	r3, [fp, #-8]
50010620:	e5933008 	ldr	r3, [r3, #8]
50010624:	e1a00003 	mov	r0, r3
50010628:	e3a01006 	mov	r1, #6
5001062c:	eb0006bb 	bl	50012120 <rb_send_msg>
50010630:	e1a03000 	mov	r3, r0
50010634:	e3730002 	cmn	r3, #2
50010638:	1a000067 	bne	500107dc <Russian_main+0x35c>
5001063c:	ea000067 	b	500107e0 <Russian_main+0x360>
50010640:	e24b3018 	sub	r3, fp, #24
50010644:	e1a00003 	mov	r0, r3
50010648:	e3061f94 	movw	r1, #28564	; 0x6f94
5001064c:	e3451001 	movt	r1, #20481	; 0x5001
50010650:	ebffd1ca 	bl	50004d80 <strcmp>
50010654:	e1a03000 	mov	r3, r0
50010658:	e3530000 	cmp	r3, #0
5001065c:	1a000008 	bne	50010684 <Russian_main+0x204>
50010660:	e51b3008 	ldr	r3, [fp, #-8]
50010664:	e5933008 	ldr	r3, [r3, #8]
50010668:	e1a00003 	mov	r0, r3
5001066c:	e3a01001 	mov	r1, #1
50010670:	eb0006aa 	bl	50012120 <rb_send_msg>
50010674:	e1a03000 	mov	r3, r0
50010678:	e3730002 	cmn	r3, #2
5001067c:	1a000056 	bne	500107dc <Russian_main+0x35c>
50010680:	ea000056 	b	500107e0 <Russian_main+0x360>
50010684:	e24b3018 	sub	r3, fp, #24
50010688:	e1a00003 	mov	r0, r3
5001068c:	e3061f98 	movw	r1, #28568	; 0x6f98
50010690:	e3451001 	movt	r1, #20481	; 0x5001
50010694:	ebffd1b9 	bl	50004d80 <strcmp>
50010698:	e1a03000 	mov	r3, r0
5001069c:	e3530000 	cmp	r3, #0
500106a0:	1a000008 	bne	500106c8 <Russian_main+0x248>
500106a4:	e51b3008 	ldr	r3, [fp, #-8]
500106a8:	e5933008 	ldr	r3, [r3, #8]
500106ac:	e1a00003 	mov	r0, r3
500106b0:	e3a01004 	mov	r1, #4
500106b4:	eb000699 	bl	50012120 <rb_send_msg>
500106b8:	e1a03000 	mov	r3, r0
500106bc:	e3730002 	cmn	r3, #2
500106c0:	1a000045 	bne	500107dc <Russian_main+0x35c>
500106c4:	ea000045 	b	500107e0 <Russian_main+0x360>
500106c8:	e24b3018 	sub	r3, fp, #24
500106cc:	e1a00003 	mov	r0, r3
500106d0:	e3061f9c 	movw	r1, #28572	; 0x6f9c
500106d4:	e3451001 	movt	r1, #20481	; 0x5001
500106d8:	ebffd1a8 	bl	50004d80 <strcmp>
500106dc:	e1a03000 	mov	r3, r0
500106e0:	e3530000 	cmp	r3, #0
500106e4:	1a000008 	bne	5001070c <Russian_main+0x28c>
500106e8:	e51b3008 	ldr	r3, [fp, #-8]
500106ec:	e5933008 	ldr	r3, [r3, #8]
500106f0:	e1a00003 	mov	r0, r3
500106f4:	e3a01003 	mov	r1, #3
500106f8:	eb000688 	bl	50012120 <rb_send_msg>
500106fc:	e1a03000 	mov	r3, r0
50010700:	e3730002 	cmn	r3, #2
50010704:	1a000034 	bne	500107dc <Russian_main+0x35c>
50010708:	ea000034 	b	500107e0 <Russian_main+0x360>
5001070c:	e24b3018 	sub	r3, fp, #24
50010710:	e1a00003 	mov	r0, r3
50010714:	e3061fa0 	movw	r1, #28576	; 0x6fa0
50010718:	e3451001 	movt	r1, #20481	; 0x5001
5001071c:	ebffd197 	bl	50004d80 <strcmp>
50010720:	e1a03000 	mov	r3, r0
50010724:	e3530000 	cmp	r3, #0
50010728:	1a000008 	bne	50010750 <Russian_main+0x2d0>
5001072c:	e51b3008 	ldr	r3, [fp, #-8]
50010730:	e5933008 	ldr	r3, [r3, #8]
50010734:	e1a00003 	mov	r0, r3
50010738:	e3a01005 	mov	r1, #5
5001073c:	eb000677 	bl	50012120 <rb_send_msg>
50010740:	e1a03000 	mov	r3, r0
50010744:	e3730002 	cmn	r3, #2
50010748:	1a000023 	bne	500107dc <Russian_main+0x35c>
5001074c:	ea000023 	b	500107e0 <Russian_main+0x360>
50010750:	e24b3018 	sub	r3, fp, #24
50010754:	e1a00003 	mov	r0, r3
50010758:	e3061fa4 	movw	r1, #28580	; 0x6fa4
5001075c:	e3451001 	movt	r1, #20481	; 0x5001
50010760:	ebffd186 	bl	50004d80 <strcmp>
50010764:	e1a03000 	mov	r3, r0
50010768:	e3530000 	cmp	r3, #0
5001076c:	1a000008 	bne	50010794 <Russian_main+0x314>
50010770:	e51b3008 	ldr	r3, [fp, #-8]
50010774:	e5933008 	ldr	r3, [r3, #8]
50010778:	e1a00003 	mov	r0, r3
5001077c:	e3a01007 	mov	r1, #7
50010780:	eb000666 	bl	50012120 <rb_send_msg>
50010784:	e1a03000 	mov	r3, r0
50010788:	e3730002 	cmn	r3, #2
5001078c:	1a000012 	bne	500107dc <Russian_main+0x35c>
50010790:	ea000012 	b	500107e0 <Russian_main+0x360>
50010794:	e24b3018 	sub	r3, fp, #24
50010798:	e1a00003 	mov	r0, r3
5001079c:	e3061fa8 	movw	r1, #28584	; 0x6fa8
500107a0:	e3451001 	movt	r1, #20481	; 0x5001
500107a4:	ebffd175 	bl	50004d80 <strcmp>
500107a8:	e1a03000 	mov	r3, r0
500107ac:	e3530000 	cmp	r3, #0
500107b0:	1a000009 	bne	500107dc <Russian_main+0x35c>
500107b4:	e51b3008 	ldr	r3, [fp, #-8]
500107b8:	e5933008 	ldr	r3, [r3, #8]
500107bc:	e1a00003 	mov	r0, r3
500107c0:	e3a01000 	mov	r1, #0
500107c4:	eb000655 	bl	50012120 <rb_send_msg>
500107c8:	e1a03000 	mov	r3, r0
500107cc:	e3730002 	cmn	r3, #2
500107d0:	1a000000 	bne	500107d8 <Russian_main+0x358>
500107d4:	ea000001 	b	500107e0 <Russian_main+0x360>
500107d8:	ea000000 	b	500107e0 <Russian_main+0x360>
500107dc:	eaffff62 	b	5001056c <Russian_main+0xec>
500107e0:	e51b3008 	ldr	r3, [fp, #-8]
500107e4:	e5933008 	ldr	r3, [r3, #8]
500107e8:	e1a00003 	mov	r0, r3
500107ec:	e3a01000 	mov	r1, #0
500107f0:	eb00064a 	bl	50012120 <rb_send_msg>
500107f4:	e1a03000 	mov	r3, r0
500107f8:	e3730002 	cmn	r3, #2
500107fc:	1a000003 	bne	50010810 <Russian_main+0x390>
50010800:	e1a00000 	nop			; (mov r0, r0)
50010804:	e51b0008 	ldr	r0, [fp, #-8]
50010808:	ebffc59a 	bl	50001e78 <memH_free>
5001080c:	ea000002 	b	5001081c <Russian_main+0x39c>
50010810:	e3a0000a 	mov	r0, #10
50010814:	ebffc285 	bl	50001230 <delayQ_delay>
50010818:	eafffff0 	b	500107e0 <Russian_main+0x360>
5001081c:	e24bd004 	sub	sp, fp, #4
50010820:	e8bd8800 	pop	{fp, pc}

50010824 <bri_show_routine>:
50010824:	e92d4800 	push	{fp, lr}
50010828:	e28db004 	add	fp, sp, #4
5001082c:	e24dd030 	sub	sp, sp, #48	; 0x30
50010830:	e50b0020 	str	r0, [fp, #-32]
50010834:	e50b1024 	str	r1, [fp, #-36]	; 0x24
50010838:	e50b2028 	str	r2, [fp, #-40]	; 0x28
5001083c:	e51b3020 	ldr	r3, [fp, #-32]
50010840:	e50b3008 	str	r3, [fp, #-8]
50010844:	e51b3008 	ldr	r3, [fp, #-8]
50010848:	e5933014 	ldr	r3, [r3, #20]
5001084c:	e50b300c 	str	r3, [fp, #-12]
50010850:	e51b3008 	ldr	r3, [fp, #-8]
50010854:	e593200c 	ldr	r2, [r3, #12]
50010858:	e51b3024 	ldr	r3, [fp, #-36]	; 0x24
5001085c:	e1d330b0 	ldrh	r3, [r3]
50010860:	e6bf3073 	sxth	r3, r3
50010864:	e51b100c 	ldr	r1, [fp, #-12]
50010868:	e0030391 	mul	r3, r1, r3
5001086c:	e0823003 	add	r3, r2, r3
50010870:	e50b3010 	str	r3, [fp, #-16]
50010874:	e51b3008 	ldr	r3, [fp, #-8]
50010878:	e5932010 	ldr	r2, [r3, #16]
5001087c:	e51b3024 	ldr	r3, [fp, #-36]	; 0x24
50010880:	e1d330b2 	ldrh	r3, [r3, #2]
50010884:	e6bf3073 	sxth	r3, r3
50010888:	e51b100c 	ldr	r1, [fp, #-12]
5001088c:	e0030391 	mul	r3, r1, r3
50010890:	e0823003 	add	r3, r2, r3
50010894:	e50b3014 	str	r3, [fp, #-20]
50010898:	e51b2010 	ldr	r2, [fp, #-16]
5001089c:	e51b300c 	ldr	r3, [fp, #-12]
500108a0:	e0823003 	add	r3, r2, r3
500108a4:	e2433001 	sub	r3, r3, #1
500108a8:	e50b3018 	str	r3, [fp, #-24]
500108ac:	e51b2014 	ldr	r2, [fp, #-20]
500108b0:	e51b300c 	ldr	r3, [fp, #-12]
500108b4:	e0823003 	add	r3, r2, r3
500108b8:	e2433001 	sub	r3, r3, #1
500108bc:	e50b301c 	str	r3, [fp, #-28]
500108c0:	e51b3008 	ldr	r3, [fp, #-8]
500108c4:	e593c004 	ldr	ip, [r3, #4]
500108c8:	e51b3008 	ldr	r3, [fp, #-8]
500108cc:	e5932000 	ldr	r2, [r3]
500108d0:	e51b301c 	ldr	r3, [fp, #-28]
500108d4:	e58d3000 	str	r3, [sp]
500108d8:	e51b3028 	ldr	r3, [fp, #-40]	; 0x28
500108dc:	e58d3004 	str	r3, [sp, #4]
500108e0:	e1a00002 	mov	r0, r2
500108e4:	e51b1010 	ldr	r1, [fp, #-16]
500108e8:	e51b2014 	ldr	r2, [fp, #-20]
500108ec:	e51b3018 	ldr	r3, [fp, #-24]
500108f0:	e12fff3c 	blx	ip
500108f4:	e1a03000 	mov	r3, r0
500108f8:	e1a00003 	mov	r0, r3
500108fc:	e24bd004 	sub	sp, fp, #4
50010900:	e8bd8800 	pop	{fp, pc}

50010904 <os_task_create>:
50010904:	e92d4800 	push	{fp, lr}
50010908:	e28db004 	add	fp, sp, #4
5001090c:	e24dd018 	sub	sp, sp, #24
50010910:	e50b0008 	str	r0, [fp, #-8]
50010914:	e50b100c 	str	r1, [fp, #-12]
50010918:	e50b3014 	str	r3, [fp, #-20]
5001091c:	e1a03002 	mov	r3, r2
50010920:	e54b300d 	strb	r3, [fp, #-13]
50010924:	e55be00d 	ldrb	lr, [fp, #-13]
50010928:	e51bc014 	ldr	ip, [fp, #-20]
5001092c:	e59b2004 	ldr	r2, [fp, #4]
50010930:	e59b3008 	ldr	r3, [fp, #8]
50010934:	e58d2000 	str	r2, [sp]
50010938:	e58d3004 	str	r3, [sp, #4]
5001093c:	e51b0008 	ldr	r0, [fp, #-8]
50010940:	e51b100c 	ldr	r1, [fp, #-12]
50010944:	e1a0200e 	mov	r2, lr
50010948:	e1a0300c 	mov	r3, ip
5001094c:	ebffdd49 	bl	50007e78 <task_create>
50010950:	e1a03000 	mov	r3, r0
50010954:	e1a00003 	mov	r0, r3
50010958:	e24bd004 	sub	sp, fp, #4
5001095c:	e8bd8800 	pop	{fp, pc}

50010960 <os_task_delay>:
50010960:	e92d4800 	push	{fp, lr}
50010964:	e28db004 	add	fp, sp, #4
50010968:	e24dd010 	sub	sp, sp, #16
5001096c:	e50b0010 	str	r0, [fp, #-16]
50010970:	e51b3010 	ldr	r3, [fp, #-16]
50010974:	e1a03103 	lsl	r3, r3, #2
50010978:	e1a02103 	lsl	r2, r3, #2
5001097c:	e0833002 	add	r3, r3, r2
50010980:	e1a02103 	lsl	r2, r3, #2
50010984:	e0831002 	add	r1, r3, r2
50010988:	e3043dd3 	movw	r3, #19923	; 0x4dd3
5001098c:	e3413062 	movt	r3, #4194	; 0x1062
50010990:	e0c32391 	smull	r2, r3, r1, r3
50010994:	e1a02343 	asr	r2, r3, #6
50010998:	e1a03fc1 	asr	r3, r1, #31
5001099c:	e0633002 	rsb	r3, r3, r2
500109a0:	e50b3008 	str	r3, [fp, #-8]
500109a4:	e51b3008 	ldr	r3, [fp, #-8]
500109a8:	e1a00003 	mov	r0, r3
500109ac:	ebffc21f 	bl	50001230 <delayQ_delay>
500109b0:	e24bd004 	sub	sp, fp, #4
500109b4:	e8bd8800 	pop	{fp, pc}

500109b8 <os_task_delete>:
500109b8:	e92d4800 	push	{fp, lr}
500109bc:	e28db004 	add	fp, sp, #4
500109c0:	e24dd008 	sub	sp, sp, #8
500109c4:	e50b0008 	str	r0, [fp, #-8]
500109c8:	e51b0008 	ldr	r0, [fp, #-8]
500109cc:	ebffdd87 	bl	50007ff0 <task_delete>
500109d0:	e24bd004 	sub	sp, fp, #4
500109d4:	e8bd8800 	pop	{fp, pc}

500109d8 <os_msgQ_create>:
500109d8:	e92d4800 	push	{fp, lr}
500109dc:	e28db004 	add	fp, sp, #4
500109e0:	e24dd008 	sub	sp, sp, #8
500109e4:	e50b0008 	str	r0, [fp, #-8]
500109e8:	e50b100c 	str	r1, [fp, #-12]
500109ec:	e51b2008 	ldr	r2, [fp, #-8]
500109f0:	e51b300c 	ldr	r3, [fp, #-12]
500109f4:	e3a00000 	mov	r0, #0
500109f8:	e1a01002 	mov	r1, r2
500109fc:	e1a02003 	mov	r2, r3
50010a00:	ebffc6ea 	bl	500025b0 <msgQ_init>
50010a04:	e1a03000 	mov	r3, r0
50010a08:	e1a00003 	mov	r0, r3
50010a0c:	e24bd004 	sub	sp, fp, #4
50010a10:	e8bd8800 	pop	{fp, pc}

50010a14 <os_msgQ_send>:
50010a14:	e92d4800 	push	{fp, lr}
50010a18:	e28db004 	add	fp, sp, #4
50010a1c:	e24dd010 	sub	sp, sp, #16
50010a20:	e50b0008 	str	r0, [fp, #-8]
50010a24:	e50b100c 	str	r1, [fp, #-12]
50010a28:	e50b2010 	str	r2, [fp, #-16]
50010a2c:	e51b3008 	ldr	r3, [fp, #-8]
50010a30:	e3530000 	cmp	r3, #0
50010a34:	1a000001 	bne	50010a40 <os_msgQ_send+0x2c>
50010a38:	e3e03001 	mvn	r3, #1
50010a3c:	ea000006 	b	50010a5c <os_msgQ_send+0x48>
50010a40:	e51b3010 	ldr	r3, [fp, #-16]
50010a44:	e51b0008 	ldr	r0, [fp, #-8]
50010a48:	e51b100c 	ldr	r1, [fp, #-12]
50010a4c:	e1a02003 	mov	r2, r3
50010a50:	e3a03000 	mov	r3, #0
50010a54:	ebffc70d 	bl	50002690 <msgQ_send>
50010a58:	e3a03000 	mov	r3, #0
50010a5c:	e1a00003 	mov	r0, r3
50010a60:	e24bd004 	sub	sp, fp, #4
50010a64:	e8bd8800 	pop	{fp, pc}

50010a68 <os_msgQ_receive>:
50010a68:	e92d4800 	push	{fp, lr}
50010a6c:	e28db004 	add	fp, sp, #4
50010a70:	e24dd010 	sub	sp, sp, #16
50010a74:	e50b0008 	str	r0, [fp, #-8]
50010a78:	e50b100c 	str	r1, [fp, #-12]
50010a7c:	e50b2010 	str	r2, [fp, #-16]
50010a80:	e51b3010 	ldr	r3, [fp, #-16]
50010a84:	e51b0008 	ldr	r0, [fp, #-8]
50010a88:	e51b100c 	ldr	r1, [fp, #-12]
50010a8c:	e1a02003 	mov	r2, r3
50010a90:	e3e03000 	mvn	r3, #0
50010a94:	ebffc772 	bl	50002864 <msgQ_receive>
50010a98:	e24bd004 	sub	sp, fp, #4
50010a9c:	e8bd8800 	pop	{fp, pc}

50010aa0 <os_msgQ_delete>:
50010aa0:	e92d4800 	push	{fp, lr}
50010aa4:	e28db004 	add	fp, sp, #4
50010aa8:	e24dd008 	sub	sp, sp, #8
50010aac:	e50b0008 	str	r0, [fp, #-8]
50010ab0:	e51b0008 	ldr	r0, [fp, #-8]
50010ab4:	ebffc7d8 	bl	50002a1c <msgQ_delete>
50010ab8:	e24bd004 	sub	sp, fp, #4
50010abc:	e8bd8800 	pop	{fp, pc}

50010ac0 <os_msgQ_flush>:
50010ac0:	e92d4800 	push	{fp, lr}
50010ac4:	e28db004 	add	fp, sp, #4
50010ac8:	e24dd008 	sub	sp, sp, #8
50010acc:	e50b0008 	str	r0, [fp, #-8]
50010ad0:	e1a00000 	nop			; (mov r0, r0)
50010ad4:	e51b0008 	ldr	r0, [fp, #-8]
50010ad8:	e3a01000 	mov	r1, #0
50010adc:	e3a02000 	mov	r2, #0
50010ae0:	e3a03000 	mov	r3, #0
50010ae4:	ebffc75e 	bl	50002864 <msgQ_receive>
50010ae8:	e1a03000 	mov	r3, r0
50010aec:	e3530000 	cmp	r3, #0
50010af0:	0afffff7 	beq	50010ad4 <os_msgQ_flush+0x14>
50010af4:	e24bd004 	sub	sp, fp, #4
50010af8:	e8bd8800 	pop	{fp, pc}

50010afc <os_tick_get>:
50010afc:	e92d4800 	push	{fp, lr}
50010b00:	e28db004 	add	fp, sp, #4
50010b04:	ebffde4f 	bl	50008448 <tick_get>
50010b08:	e1a03000 	mov	r3, r0
50010b0c:	e1a00003 	mov	r0, r3
50010b10:	e8bd8800 	pop	{fp, pc}

50010b14 <rb_init>:
50010b14:	e92d4800 	push	{fp, lr}
50010b18:	e28db004 	add	fp, sp, #4
50010b1c:	e24dd020 	sub	sp, sp, #32
50010b20:	e50b0010 	str	r0, [fp, #-16]
50010b24:	e50b1014 	str	r1, [fp, #-20]
50010b28:	e50b2018 	str	r2, [fp, #-24]
50010b2c:	e50b301c 	str	r3, [fp, #-28]
50010b30:	e3a03000 	mov	r3, #0
50010b34:	e50b3008 	str	r3, [fp, #-8]
50010b38:	e3a0003c 	mov	r0, #60	; 0x3c
50010b3c:	ebffc41d 	bl	50001bb8 <memH_malloc>
50010b40:	e50b0008 	str	r0, [fp, #-8]
50010b44:	e51b3008 	ldr	r3, [fp, #-8]
50010b48:	e3530000 	cmp	r3, #0
50010b4c:	1a000004 	bne	50010b64 <rb_init+0x50>
50010b50:	e307013c 	movw	r0, #28988	; 0x713c
50010b54:	e3450001 	movt	r0, #20481	; 0x5001
50010b58:	ebffced5 	bl	500046b4 <serial_printf>
50010b5c:	e3a03000 	mov	r3, #0
50010b60:	ea000082 	b	50010d70 <rb_init+0x25c>
50010b64:	e51b3008 	ldr	r3, [fp, #-8]
50010b68:	e51b2010 	ldr	r2, [fp, #-16]
50010b6c:	e5832000 	str	r2, [r3]
50010b70:	e51b3008 	ldr	r3, [fp, #-8]
50010b74:	e51b201c 	ldr	r2, [fp, #-28]
50010b78:	e5832004 	str	r2, [r3, #4]
50010b7c:	e51b3014 	ldr	r3, [fp, #-20]
50010b80:	e3530020 	cmp	r3, #32
50010b84:	b1a02003 	movlt	r2, r3
50010b88:	a3a02020 	movge	r2, #32
50010b8c:	e51b3008 	ldr	r3, [fp, #-8]
50010b90:	e5832010 	str	r2, [r3, #16]
50010b94:	e51b3008 	ldr	r3, [fp, #-8]
50010b98:	e51b2018 	ldr	r2, [fp, #-24]
50010b9c:	e5832014 	str	r2, [r3, #20]
50010ba0:	e51b3018 	ldr	r3, [fp, #-24]
50010ba4:	e1a03083 	lsl	r3, r3, #1
50010ba8:	e1a00003 	mov	r0, r3
50010bac:	e3a01004 	mov	r1, #4
50010bb0:	ebffc499 	bl	50001e1c <memH_calloc>
50010bb4:	e1a02000 	mov	r2, r0
50010bb8:	e51b3008 	ldr	r3, [fp, #-8]
50010bbc:	e583200c 	str	r2, [r3, #12]
50010bc0:	e51b3008 	ldr	r3, [fp, #-8]
50010bc4:	e5933010 	ldr	r3, [r3, #16]
50010bc8:	e3a02001 	mov	r2, #1
50010bcc:	e1a03312 	lsl	r3, r2, r3
50010bd0:	e2433001 	sub	r3, r3, #1
50010bd4:	e1a02003 	mov	r2, r3
50010bd8:	e51b3008 	ldr	r3, [fp, #-8]
50010bdc:	e5832018 	str	r2, [r3, #24]
50010be0:	e51b3008 	ldr	r3, [fp, #-8]
50010be4:	e3a02000 	mov	r2, #0
50010be8:	e583201c 	str	r2, [r3, #28]
50010bec:	e51b3008 	ldr	r3, [fp, #-8]
50010bf0:	e3a02000 	mov	r2, #0
50010bf4:	e5832020 	str	r2, [r3, #32]
50010bf8:	e51b3008 	ldr	r3, [fp, #-8]
50010bfc:	e593300c 	ldr	r3, [r3, #12]
50010c00:	e3530000 	cmp	r3, #0
50010c04:	1a000006 	bne	50010c24 <rb_init+0x110>
50010c08:	e3070164 	movw	r0, #29028	; 0x7164
50010c0c:	e3450001 	movt	r0, #20481	; 0x5001
50010c10:	ebffcea7 	bl	500046b4 <serial_printf>
50010c14:	e51b0008 	ldr	r0, [fp, #-8]
50010c18:	ebffc496 	bl	50001e78 <memH_free>
50010c1c:	e3a03000 	mov	r3, #0
50010c20:	ea000052 	b	50010d70 <rb_init+0x25c>
50010c24:	e51b3008 	ldr	r3, [fp, #-8]
50010c28:	e5933010 	ldr	r3, [r3, #16]
50010c2c:	e51b2018 	ldr	r2, [fp, #-24]
50010c30:	e0030392 	mul	r3, r2, r3
50010c34:	e1a00003 	mov	r0, r3
50010c38:	e3a01001 	mov	r1, #1
50010c3c:	ebffc476 	bl	50001e1c <memH_calloc>
50010c40:	e1a02000 	mov	r2, r0
50010c44:	e51b3008 	ldr	r3, [fp, #-8]
50010c48:	e5832008 	str	r2, [r3, #8]
50010c4c:	e51b3008 	ldr	r3, [fp, #-8]
50010c50:	e5933008 	ldr	r3, [r3, #8]
50010c54:	e3530000 	cmp	r3, #0
50010c58:	1a00000a 	bne	50010c88 <rb_init+0x174>
50010c5c:	e3070188 	movw	r0, #29064	; 0x7188
50010c60:	e3450001 	movt	r0, #20481	; 0x5001
50010c64:	ebffce92 	bl	500046b4 <serial_printf>
50010c68:	e51b3008 	ldr	r3, [fp, #-8]
50010c6c:	e593300c 	ldr	r3, [r3, #12]
50010c70:	e1a00003 	mov	r0, r3
50010c74:	ebffc47f 	bl	50001e78 <memH_free>
50010c78:	e51b0008 	ldr	r0, [fp, #-8]
50010c7c:	ebffc47d 	bl	50001e78 <memH_free>
50010c80:	e3a03000 	mov	r3, #0
50010c84:	ea000039 	b	50010d70 <rb_init+0x25c>
50010c88:	e3a0003c 	mov	r0, #60	; 0x3c
50010c8c:	e3a01004 	mov	r1, #4
50010c90:	ebffff50 	bl	500109d8 <os_msgQ_create>
50010c94:	e1a02000 	mov	r2, r0
50010c98:	e51b3008 	ldr	r3, [fp, #-8]
50010c9c:	e583202c 	str	r2, [r3, #44]	; 0x2c
50010ca0:	e51b3008 	ldr	r3, [fp, #-8]
50010ca4:	e3a02000 	mov	r2, #0
50010ca8:	e5832030 	str	r2, [r3, #48]	; 0x30
50010cac:	e51b3008 	ldr	r3, [fp, #-8]
50010cb0:	e593200c 	ldr	r2, [r3, #12]
50010cb4:	e51b3018 	ldr	r3, [fp, #-24]
50010cb8:	e1a03103 	lsl	r3, r3, #2
50010cbc:	e0822003 	add	r2, r2, r3
50010cc0:	e51b3008 	ldr	r3, [fp, #-8]
50010cc4:	e5832034 	str	r2, [r3, #52]	; 0x34
50010cc8:	e51b3008 	ldr	r3, [fp, #-8]
50010ccc:	e3a02000 	mov	r2, #0
50010cd0:	e5832038 	str	r2, [r3, #56]	; 0x38
50010cd4:	ebffff88 	bl	50010afc <os_tick_get>
50010cd8:	e1a03000 	mov	r3, r0
50010cdc:	e1a00003 	mov	r0, r3
50010ce0:	ebffd585 	bl	500062fc <srand>
50010ce4:	e51b0008 	ldr	r0, [fp, #-8]
50010ce8:	eb00028a 	bl	50011718 <new_block>
50010cec:	e51b3008 	ldr	r3, [fp, #-8]
50010cf0:	e5933004 	ldr	r3, [r3, #4]
50010cf4:	e51b2008 	ldr	r2, [fp, #-8]
50010cf8:	e5920000 	ldr	r0, [r2]
50010cfc:	e51b2008 	ldr	r2, [fp, #-8]
50010d00:	e2821024 	add	r1, r2, #36	; 0x24
50010d04:	e51b2008 	ldr	r2, [fp, #-8]
50010d08:	e5922020 	ldr	r2, [r2, #32]
50010d0c:	e3822102 	orr	r2, r2, #-2147483648	; 0x80000000
50010d10:	e12fff33 	blx	r3
50010d14:	e51b3008 	ldr	r3, [fp, #-8]
50010d18:	e58d3000 	str	r3, [sp]
50010d1c:	e3a03002 	mov	r3, #2
50010d20:	e58d3004 	str	r3, [sp, #4]
50010d24:	e30701b4 	movw	r0, #29108	; 0x71b4
50010d28:	e3450001 	movt	r0, #20481	; 0x5001
50010d2c:	e3a01a0a 	mov	r1, #40960	; 0xa000
50010d30:	e3a02064 	mov	r2, #100	; 0x64
50010d34:	e3013e8c 	movw	r3, #7820	; 0x1e8c
50010d38:	e3453001 	movt	r3, #20481	; 0x5001
50010d3c:	ebfffef0 	bl	50010904 <os_task_create>
50010d40:	e51b3008 	ldr	r3, [fp, #-8]
50010d44:	e58d3000 	str	r3, [sp]
50010d48:	e3a03002 	mov	r3, #2
50010d4c:	e58d3004 	str	r3, [sp, #4]
50010d50:	e30701bc 	movw	r0, #29116	; 0x71bc
50010d54:	e3450001 	movt	r0, #20481	; 0x5001
50010d58:	e3a01b0a 	mov	r1, #10240	; 0x2800
50010d5c:	e3a02064 	mov	r2, #100	; 0x64
50010d60:	e3013dc8 	movw	r3, #7624	; 0x1dc8
50010d64:	e3453001 	movt	r3, #20481	; 0x5001
50010d68:	ebfffee5 	bl	50010904 <os_task_create>
50010d6c:	e51b3008 	ldr	r3, [fp, #-8]
50010d70:	e1a00003 	mov	r0, r3
50010d74:	e24bd004 	sub	sp, fp, #4
50010d78:	e8bd8800 	pop	{fp, pc}

50010d7c <is_occupied>:
50010d7c:	e52db004 	push	{fp}		; (str fp, [sp, #-4]!)
50010d80:	e28db000 	add	fp, sp, #0
50010d84:	e24dd00c 	sub	sp, sp, #12
50010d88:	e50b0008 	str	r0, [fp, #-8]
50010d8c:	e50b100c 	str	r1, [fp, #-12]
50010d90:	e51b300c 	ldr	r3, [fp, #-12]
50010d94:	e1d330b0 	ldrh	r3, [r3]
50010d98:	e6bf3073 	sxth	r3, r3
50010d9c:	e3530000 	cmp	r3, #0
50010da0:	ba000020 	blt	50010e28 <is_occupied+0xac>
50010da4:	e51b300c 	ldr	r3, [fp, #-12]
50010da8:	e1d330b0 	ldrh	r3, [r3]
50010dac:	e6bf2073 	sxth	r2, r3
50010db0:	e51b3008 	ldr	r3, [fp, #-8]
50010db4:	e5933004 	ldr	r3, [r3, #4]
50010db8:	e1520003 	cmp	r2, r3
50010dbc:	aa000019 	bge	50010e28 <is_occupied+0xac>
50010dc0:	e51b300c 	ldr	r3, [fp, #-12]
50010dc4:	e1d330b2 	ldrh	r3, [r3, #2]
50010dc8:	e6bf3073 	sxth	r3, r3
50010dcc:	e3530000 	cmp	r3, #0
50010dd0:	ba000014 	blt	50010e28 <is_occupied+0xac>
50010dd4:	e51b300c 	ldr	r3, [fp, #-12]
50010dd8:	e1d330b2 	ldrh	r3, [r3, #2]
50010ddc:	e6bf2073 	sxth	r2, r3
50010de0:	e51b3008 	ldr	r3, [fp, #-8]
50010de4:	e5933008 	ldr	r3, [r3, #8]
50010de8:	e1520003 	cmp	r2, r3
50010dec:	aa00000d 	bge	50010e28 <is_occupied+0xac>
50010df0:	e51b3008 	ldr	r3, [fp, #-8]
50010df4:	e5932000 	ldr	r2, [r3]
50010df8:	e51b300c 	ldr	r3, [fp, #-12]
50010dfc:	e1d330b2 	ldrh	r3, [r3, #2]
50010e00:	e6bf3073 	sxth	r3, r3
50010e04:	e1a03103 	lsl	r3, r3, #2
50010e08:	e0823003 	add	r3, r2, r3
50010e0c:	e5932000 	ldr	r2, [r3]
50010e10:	e51b300c 	ldr	r3, [fp, #-12]
50010e14:	e1d330b0 	ldrh	r3, [r3]
50010e18:	e6bf3073 	sxth	r3, r3
50010e1c:	e1a03332 	lsr	r3, r2, r3
50010e20:	e2033001 	and	r3, r3, #1
50010e24:	ea000000 	b	50010e2c <is_occupied+0xb0>
50010e28:	e3a03001 	mov	r3, #1
50010e2c:	e1a00003 	mov	r0, r3
50010e30:	e24bd000 	sub	sp, fp, #0
50010e34:	e49db004 	pop	{fp}		; (ldr fp, [sp], #4)
50010e38:	e12fff1e 	bx	lr

50010e3c <update_block>:
50010e3c:	e92d4800 	push	{fp, lr}
50010e40:	e28db004 	add	fp, sp, #4
50010e44:	e24dd010 	sub	sp, sp, #16
50010e48:	e50b0010 	str	r0, [fp, #-16]
50010e4c:	e50b1014 	str	r1, [fp, #-20]
50010e50:	e3a03000 	mov	r3, #0
50010e54:	e50b3008 	str	r3, [fp, #-8]
50010e58:	ea00002f 	b	50010f1c <update_block+0xe0>
50010e5c:	e51b3010 	ldr	r3, [fp, #-16]
50010e60:	e1d332b4 	ldrh	r3, [r3, #36]	; 0x24
50010e64:	e6ff2073 	uxth	r2, r3
50010e68:	e51b3010 	ldr	r3, [fp, #-16]
50010e6c:	e5931028 	ldr	r1, [r3, #40]	; 0x28
50010e70:	e3063fac 	movw	r3, #28588	; 0x6fac
50010e74:	e3453001 	movt	r3, #20481	; 0x5001
50010e78:	e1a00101 	lsl	r0, r1, #2
50010e7c:	e51b1008 	ldr	r1, [fp, #-8]
50010e80:	e0801001 	add	r1, r0, r1
50010e84:	e7d33101 	ldrb	r3, [r3, r1, lsl #2]
50010e88:	e7e33053 	ubfx	r3, r3, #0, #4
50010e8c:	e6ef3073 	uxtb	r3, r3
50010e90:	e6ff3073 	uxth	r3, r3
50010e94:	e0823003 	add	r3, r2, r3
50010e98:	e6ff3073 	uxth	r3, r3
50010e9c:	e6ff3073 	uxth	r3, r3
50010ea0:	e14b30bc 	strh	r3, [fp, #-12]
50010ea4:	e51b3010 	ldr	r3, [fp, #-16]
50010ea8:	e1d332b6 	ldrh	r3, [r3, #38]	; 0x26
50010eac:	e6ff2073 	uxth	r2, r3
50010eb0:	e51b3010 	ldr	r3, [fp, #-16]
50010eb4:	e5931028 	ldr	r1, [r3, #40]	; 0x28
50010eb8:	e3063fac 	movw	r3, #28588	; 0x6fac
50010ebc:	e3453001 	movt	r3, #20481	; 0x5001
50010ec0:	e1a00101 	lsl	r0, r1, #2
50010ec4:	e51b1008 	ldr	r1, [fp, #-8]
50010ec8:	e0801001 	add	r1, r0, r1
50010ecc:	e7d33101 	ldrb	r3, [r3, r1, lsl #2]
50010ed0:	e7e33253 	ubfx	r3, r3, #4, #4
50010ed4:	e6ef3073 	uxtb	r3, r3
50010ed8:	e6ff3073 	uxth	r3, r3
50010edc:	e0823003 	add	r3, r2, r3
50010ee0:	e6ff3073 	uxth	r3, r3
50010ee4:	e6ff3073 	uxth	r3, r3
50010ee8:	e14b30ba 	strh	r3, [fp, #-10]
50010eec:	e51b3010 	ldr	r3, [fp, #-16]
50010ef0:	e5933004 	ldr	r3, [r3, #4]
50010ef4:	e51b2010 	ldr	r2, [fp, #-16]
50010ef8:	e5921000 	ldr	r1, [r2]
50010efc:	e24b200c 	sub	r2, fp, #12
50010f00:	e1a00001 	mov	r0, r1
50010f04:	e1a01002 	mov	r1, r2
50010f08:	e51b2014 	ldr	r2, [fp, #-20]
50010f0c:	e12fff33 	blx	r3
50010f10:	e51b3008 	ldr	r3, [fp, #-8]
50010f14:	e2833001 	add	r3, r3, #1
50010f18:	e50b3008 	str	r3, [fp, #-8]
50010f1c:	e51b3008 	ldr	r3, [fp, #-8]
50010f20:	e3530003 	cmp	r3, #3
50010f24:	daffffcc 	ble	50010e5c <update_block+0x20>
50010f28:	e24bd004 	sub	sp, fp, #4
50010f2c:	e8bd8800 	pop	{fp, pc}

50010f30 <left>:
50010f30:	e92d4800 	push	{fp, lr}
50010f34:	e28db004 	add	fp, sp, #4
50010f38:	e24dd010 	sub	sp, sp, #16
50010f3c:	e50b0010 	str	r0, [fp, #-16]
50010f40:	e3a03000 	mov	r3, #0
50010f44:	e50b3008 	str	r3, [fp, #-8]
50010f48:	ea000033 	b	5001101c <left+0xec>
50010f4c:	e51b3010 	ldr	r3, [fp, #-16]
50010f50:	e1d332b4 	ldrh	r3, [r3, #36]	; 0x24
50010f54:	e6ff2073 	uxth	r2, r3
50010f58:	e51b3010 	ldr	r3, [fp, #-16]
50010f5c:	e5931028 	ldr	r1, [r3, #40]	; 0x28
50010f60:	e3063fac 	movw	r3, #28588	; 0x6fac
50010f64:	e3453001 	movt	r3, #20481	; 0x5001
50010f68:	e1a00101 	lsl	r0, r1, #2
50010f6c:	e51b1008 	ldr	r1, [fp, #-8]
50010f70:	e0801001 	add	r1, r0, r1
50010f74:	e7d33101 	ldrb	r3, [r3, r1, lsl #2]
50010f78:	e7e33053 	ubfx	r3, r3, #0, #4
50010f7c:	e6ef3073 	uxtb	r3, r3
50010f80:	e6ff3073 	uxth	r3, r3
50010f84:	e0823003 	add	r3, r2, r3
50010f88:	e6ff3073 	uxth	r3, r3
50010f8c:	e2433001 	sub	r3, r3, #1
50010f90:	e6ff3073 	uxth	r3, r3
50010f94:	e6ff3073 	uxth	r3, r3
50010f98:	e14b30bc 	strh	r3, [fp, #-12]
50010f9c:	e51b3010 	ldr	r3, [fp, #-16]
50010fa0:	e1d332b6 	ldrh	r3, [r3, #38]	; 0x26
50010fa4:	e6ff2073 	uxth	r2, r3
50010fa8:	e51b3010 	ldr	r3, [fp, #-16]
50010fac:	e5931028 	ldr	r1, [r3, #40]	; 0x28
50010fb0:	e3063fac 	movw	r3, #28588	; 0x6fac
50010fb4:	e3453001 	movt	r3, #20481	; 0x5001
50010fb8:	e1a00101 	lsl	r0, r1, #2
50010fbc:	e51b1008 	ldr	r1, [fp, #-8]
50010fc0:	e0801001 	add	r1, r0, r1
50010fc4:	e7d33101 	ldrb	r3, [r3, r1, lsl #2]
50010fc8:	e7e33253 	ubfx	r3, r3, #4, #4
50010fcc:	e6ef3073 	uxtb	r3, r3
50010fd0:	e6ff3073 	uxth	r3, r3
50010fd4:	e0823003 	add	r3, r2, r3
50010fd8:	e6ff3073 	uxth	r3, r3
50010fdc:	e6ff3073 	uxth	r3, r3
50010fe0:	e14b30ba 	strh	r3, [fp, #-10]
50010fe4:	e51b3010 	ldr	r3, [fp, #-16]
50010fe8:	e283200c 	add	r2, r3, #12
50010fec:	e24b300c 	sub	r3, fp, #12
50010ff0:	e1a00002 	mov	r0, r2
50010ff4:	e1a01003 	mov	r1, r3
50010ff8:	ebffff5f 	bl	50010d7c <is_occupied>
50010ffc:	e1a03000 	mov	r3, r0
50011000:	e3530000 	cmp	r3, #0
50011004:	0a000001 	beq	50011010 <left+0xe0>
50011008:	e3e03000 	mvn	r3, #0
5001100c:	ea00001a 	b	5001107c <left+0x14c>
50011010:	e51b3008 	ldr	r3, [fp, #-8]
50011014:	e2833001 	add	r3, r3, #1
50011018:	e50b3008 	str	r3, [fp, #-8]
5001101c:	e51b3008 	ldr	r3, [fp, #-8]
50011020:	e3530003 	cmp	r3, #3
50011024:	daffffc8 	ble	50010f4c <left+0x1c>
50011028:	e51b0010 	ldr	r0, [fp, #-16]
5001102c:	e3a01000 	mov	r1, #0
50011030:	ebffff81 	bl	50010e3c <update_block>
50011034:	e51b3010 	ldr	r3, [fp, #-16]
50011038:	e1d332b4 	ldrh	r3, [r3, #36]	; 0x24
5001103c:	e6ff3073 	uxth	r3, r3
50011040:	e6ff3073 	uxth	r3, r3
50011044:	e2433001 	sub	r3, r3, #1
50011048:	e6ff3073 	uxth	r3, r3
5001104c:	e6ff2073 	uxth	r2, r3
50011050:	e51b3010 	ldr	r3, [fp, #-16]
50011054:	e1c322b4 	strh	r2, [r3, #36]	; 0x24
50011058:	e51b3010 	ldr	r3, [fp, #-16]
5001105c:	e5932028 	ldr	r2, [r3, #40]	; 0x28
50011060:	e30730f0 	movw	r3, #28912	; 0x70f0
50011064:	e3453001 	movt	r3, #20481	; 0x5001
50011068:	e7933102 	ldr	r3, [r3, r2, lsl #2]
5001106c:	e51b0010 	ldr	r0, [fp, #-16]
50011070:	e1a01003 	mov	r1, r3
50011074:	ebffff70 	bl	50010e3c <update_block>
50011078:	e3a03000 	mov	r3, #0
5001107c:	e1a00003 	mov	r0, r3
50011080:	e24bd004 	sub	sp, fp, #4
50011084:	e8bd8800 	pop	{fp, pc}

50011088 <right>:
50011088:	e92d4800 	push	{fp, lr}
5001108c:	e28db004 	add	fp, sp, #4
50011090:	e24dd010 	sub	sp, sp, #16
50011094:	e50b0010 	str	r0, [fp, #-16]
50011098:	e3a03000 	mov	r3, #0
5001109c:	e50b3008 	str	r3, [fp, #-8]
500110a0:	ea000033 	b	50011174 <right+0xec>
500110a4:	e51b3010 	ldr	r3, [fp, #-16]
500110a8:	e1d332b4 	ldrh	r3, [r3, #36]	; 0x24
500110ac:	e6ff2073 	uxth	r2, r3
500110b0:	e51b3010 	ldr	r3, [fp, #-16]
500110b4:	e5931028 	ldr	r1, [r3, #40]	; 0x28
500110b8:	e3063fac 	movw	r3, #28588	; 0x6fac
500110bc:	e3453001 	movt	r3, #20481	; 0x5001
500110c0:	e1a00101 	lsl	r0, r1, #2
500110c4:	e51b1008 	ldr	r1, [fp, #-8]
500110c8:	e0801001 	add	r1, r0, r1
500110cc:	e7d33101 	ldrb	r3, [r3, r1, lsl #2]
500110d0:	e7e33053 	ubfx	r3, r3, #0, #4
500110d4:	e6ef3073 	uxtb	r3, r3
500110d8:	e6ff3073 	uxth	r3, r3
500110dc:	e0823003 	add	r3, r2, r3
500110e0:	e6ff3073 	uxth	r3, r3
500110e4:	e2833001 	add	r3, r3, #1
500110e8:	e6ff3073 	uxth	r3, r3
500110ec:	e6ff3073 	uxth	r3, r3
500110f0:	e14b30bc 	strh	r3, [fp, #-12]
500110f4:	e51b3010 	ldr	r3, [fp, #-16]
500110f8:	e1d332b6 	ldrh	r3, [r3, #38]	; 0x26
500110fc:	e6ff2073 	uxth	r2, r3
50011100:	e51b3010 	ldr	r3, [fp, #-16]
50011104:	e5931028 	ldr	r1, [r3, #40]	; 0x28
50011108:	e3063fac 	movw	r3, #28588	; 0x6fac
5001110c:	e3453001 	movt	r3, #20481	; 0x5001
50011110:	e1a00101 	lsl	r0, r1, #2
50011114:	e51b1008 	ldr	r1, [fp, #-8]
50011118:	e0801001 	add	r1, r0, r1
5001111c:	e7d33101 	ldrb	r3, [r3, r1, lsl #2]
50011120:	e7e33253 	ubfx	r3, r3, #4, #4
50011124:	e6ef3073 	uxtb	r3, r3
50011128:	e6ff3073 	uxth	r3, r3
5001112c:	e0823003 	add	r3, r2, r3
50011130:	e6ff3073 	uxth	r3, r3
50011134:	e6ff3073 	uxth	r3, r3
50011138:	e14b30ba 	strh	r3, [fp, #-10]
5001113c:	e51b3010 	ldr	r3, [fp, #-16]
50011140:	e283200c 	add	r2, r3, #12
50011144:	e24b300c 	sub	r3, fp, #12
50011148:	e1a00002 	mov	r0, r2
5001114c:	e1a01003 	mov	r1, r3
50011150:	ebffff09 	bl	50010d7c <is_occupied>
50011154:	e1a03000 	mov	r3, r0
50011158:	e3530000 	cmp	r3, #0
5001115c:	0a000001 	beq	50011168 <right+0xe0>
50011160:	e3e03000 	mvn	r3, #0
50011164:	ea00001a 	b	500111d4 <right+0x14c>
50011168:	e51b3008 	ldr	r3, [fp, #-8]
5001116c:	e2833001 	add	r3, r3, #1
50011170:	e50b3008 	str	r3, [fp, #-8]
50011174:	e51b3008 	ldr	r3, [fp, #-8]
50011178:	e3530003 	cmp	r3, #3
5001117c:	daffffc8 	ble	500110a4 <right+0x1c>
50011180:	e51b0010 	ldr	r0, [fp, #-16]
50011184:	e3a01000 	mov	r1, #0
50011188:	ebffff2b 	bl	50010e3c <update_block>
5001118c:	e51b3010 	ldr	r3, [fp, #-16]
50011190:	e1d332b4 	ldrh	r3, [r3, #36]	; 0x24
50011194:	e6ff3073 	uxth	r3, r3
50011198:	e6ff3073 	uxth	r3, r3
5001119c:	e2833001 	add	r3, r3, #1
500111a0:	e6ff3073 	uxth	r3, r3
500111a4:	e6ff2073 	uxth	r2, r3
500111a8:	e51b3010 	ldr	r3, [fp, #-16]
500111ac:	e1c322b4 	strh	r2, [r3, #36]	; 0x24
500111b0:	e51b3010 	ldr	r3, [fp, #-16]
500111b4:	e5932028 	ldr	r2, [r3, #40]	; 0x28
500111b8:	e30730f0 	movw	r3, #28912	; 0x70f0
500111bc:	e3453001 	movt	r3, #20481	; 0x5001
500111c0:	e7933102 	ldr	r3, [r3, r2, lsl #2]
500111c4:	e51b0010 	ldr	r0, [fp, #-16]
500111c8:	e1a01003 	mov	r1, r3
500111cc:	ebffff1a 	bl	50010e3c <update_block>
500111d0:	e3a03000 	mov	r3, #0
500111d4:	e1a00003 	mov	r0, r3
500111d8:	e24bd004 	sub	sp, fp, #4
500111dc:	e8bd8800 	pop	{fp, pc}

500111e0 <down>:
500111e0:	e92d4800 	push	{fp, lr}
500111e4:	e28db004 	add	fp, sp, #4
500111e8:	e24dd010 	sub	sp, sp, #16
500111ec:	e50b0010 	str	r0, [fp, #-16]
500111f0:	e3a03000 	mov	r3, #0
500111f4:	e50b3008 	str	r3, [fp, #-8]
500111f8:	ea00003e 	b	500112f8 <down+0x118>
500111fc:	e51b3010 	ldr	r3, [fp, #-16]
50011200:	e1d332b4 	ldrh	r3, [r3, #36]	; 0x24
50011204:	e6ff2073 	uxth	r2, r3
50011208:	e51b3010 	ldr	r3, [fp, #-16]
5001120c:	e5931028 	ldr	r1, [r3, #40]	; 0x28
50011210:	e3063fac 	movw	r3, #28588	; 0x6fac
50011214:	e3453001 	movt	r3, #20481	; 0x5001
50011218:	e1a00101 	lsl	r0, r1, #2
5001121c:	e51b1008 	ldr	r1, [fp, #-8]
50011220:	e0801001 	add	r1, r0, r1
50011224:	e7d33101 	ldrb	r3, [r3, r1, lsl #2]
50011228:	e7e33053 	ubfx	r3, r3, #0, #4
5001122c:	e6ef3073 	uxtb	r3, r3
50011230:	e6ff3073 	uxth	r3, r3
50011234:	e0823003 	add	r3, r2, r3
50011238:	e6ff3073 	uxth	r3, r3
5001123c:	e6ff3073 	uxth	r3, r3
50011240:	e14b30bc 	strh	r3, [fp, #-12]
50011244:	e51b3010 	ldr	r3, [fp, #-16]
50011248:	e1d332b6 	ldrh	r3, [r3, #38]	; 0x26
5001124c:	e6ff2073 	uxth	r2, r3
50011250:	e51b3010 	ldr	r3, [fp, #-16]
50011254:	e5931028 	ldr	r1, [r3, #40]	; 0x28
50011258:	e3063fac 	movw	r3, #28588	; 0x6fac
5001125c:	e3453001 	movt	r3, #20481	; 0x5001
50011260:	e1a00101 	lsl	r0, r1, #2
50011264:	e51b1008 	ldr	r1, [fp, #-8]
50011268:	e0801001 	add	r1, r0, r1
5001126c:	e7d33101 	ldrb	r3, [r3, r1, lsl #2]
50011270:	e7e33253 	ubfx	r3, r3, #4, #4
50011274:	e6ef3073 	uxtb	r3, r3
50011278:	e6ff3073 	uxth	r3, r3
5001127c:	e0823003 	add	r3, r2, r3
50011280:	e6ff3073 	uxth	r3, r3
50011284:	e2833001 	add	r3, r3, #1
50011288:	e6ff3073 	uxth	r3, r3
5001128c:	e6ff3073 	uxth	r3, r3
50011290:	e14b30ba 	strh	r3, [fp, #-10]
50011294:	e51b3010 	ldr	r3, [fp, #-16]
50011298:	e283200c 	add	r2, r3, #12
5001129c:	e24b300c 	sub	r3, fp, #12
500112a0:	e1a00002 	mov	r0, r2
500112a4:	e1a01003 	mov	r1, r3
500112a8:	ebfffeb3 	bl	50010d7c <is_occupied>
500112ac:	e1a03000 	mov	r3, r0
500112b0:	e3530000 	cmp	r3, #0
500112b4:	0a00000c 	beq	500112ec <down+0x10c>
500112b8:	e51b3010 	ldr	r3, [fp, #-16]
500112bc:	e1d332b6 	ldrh	r3, [r3, #38]	; 0x26
500112c0:	e6bf3073 	sxth	r3, r3
500112c4:	e3530000 	cmp	r3, #0
500112c8:	da000005 	ble	500112e4 <down+0x104>
500112cc:	e51b0010 	ldr	r0, [fp, #-16]
500112d0:	eb0001a7 	bl	50011974 <fix_block>
500112d4:	e51b0010 	ldr	r0, [fp, #-16]
500112d8:	eb00010e 	bl	50011718 <new_block>
500112dc:	e3e03000 	mvn	r3, #0
500112e0:	ea00001c 	b	50011358 <down+0x178>
500112e4:	e3e03001 	mvn	r3, #1
500112e8:	ea00001a 	b	50011358 <down+0x178>
500112ec:	e51b3008 	ldr	r3, [fp, #-8]
500112f0:	e2833001 	add	r3, r3, #1
500112f4:	e50b3008 	str	r3, [fp, #-8]
500112f8:	e51b3008 	ldr	r3, [fp, #-8]
500112fc:	e3530003 	cmp	r3, #3
50011300:	daffffbd 	ble	500111fc <down+0x1c>
50011304:	e51b0010 	ldr	r0, [fp, #-16]
50011308:	e3a01000 	mov	r1, #0
5001130c:	ebfffeca 	bl	50010e3c <update_block>
50011310:	e51b3010 	ldr	r3, [fp, #-16]
50011314:	e1d332b6 	ldrh	r3, [r3, #38]	; 0x26
50011318:	e6ff3073 	uxth	r3, r3
5001131c:	e6ff3073 	uxth	r3, r3
50011320:	e2833001 	add	r3, r3, #1
50011324:	e6ff3073 	uxth	r3, r3
50011328:	e6ff2073 	uxth	r2, r3
5001132c:	e51b3010 	ldr	r3, [fp, #-16]
50011330:	e1c322b6 	strh	r2, [r3, #38]	; 0x26
50011334:	e51b3010 	ldr	r3, [fp, #-16]
50011338:	e5932028 	ldr	r2, [r3, #40]	; 0x28
5001133c:	e30730f0 	movw	r3, #28912	; 0x70f0
50011340:	e3453001 	movt	r3, #20481	; 0x5001
50011344:	e7933102 	ldr	r3, [r3, r2, lsl #2]
50011348:	e51b0010 	ldr	r0, [fp, #-16]
5001134c:	e1a01003 	mov	r1, r3
50011350:	ebfffeb9 	bl	50010e3c <update_block>
50011354:	e3a03000 	mov	r3, #0
50011358:	e1a00003 	mov	r0, r3
5001135c:	e24bd004 	sub	sp, fp, #4
50011360:	e8bd8800 	pop	{fp, pc}

50011364 <bottom>:
50011364:	e92d4800 	push	{fp, lr}
50011368:	e28db004 	add	fp, sp, #4
5001136c:	e24dd018 	sub	sp, sp, #24
50011370:	e50b0018 	str	r0, [fp, #-24]
50011374:	e3a03000 	mov	r3, #0
50011378:	e50b300c 	str	r3, [fp, #-12]
5001137c:	e51b0018 	ldr	r0, [fp, #-24]
50011380:	e3a01000 	mov	r1, #0
50011384:	ebfffeac 	bl	50010e3c <update_block>
50011388:	ea00005e 	b	50011508 <bottom+0x1a4>
5001138c:	e3a03000 	mov	r3, #0
50011390:	e50b3008 	str	r3, [fp, #-8]
50011394:	ea00003c 	b	5001148c <bottom+0x128>
50011398:	e51b3018 	ldr	r3, [fp, #-24]
5001139c:	e1d332b4 	ldrh	r3, [r3, #36]	; 0x24
500113a0:	e6ff2073 	uxth	r2, r3
500113a4:	e51b3018 	ldr	r3, [fp, #-24]
500113a8:	e5931028 	ldr	r1, [r3, #40]	; 0x28
500113ac:	e3063fac 	movw	r3, #28588	; 0x6fac
500113b0:	e3453001 	movt	r3, #20481	; 0x5001
500113b4:	e1a00101 	lsl	r0, r1, #2
500113b8:	e51b1008 	ldr	r1, [fp, #-8]
500113bc:	e0801001 	add	r1, r0, r1
500113c0:	e7d33101 	ldrb	r3, [r3, r1, lsl #2]
500113c4:	e7e33053 	ubfx	r3, r3, #0, #4
500113c8:	e6ef3073 	uxtb	r3, r3
500113cc:	e6ff3073 	uxth	r3, r3
500113d0:	e0823003 	add	r3, r2, r3
500113d4:	e6ff3073 	uxth	r3, r3
500113d8:	e6ff3073 	uxth	r3, r3
500113dc:	e14b31b0 	strh	r3, [fp, #-16]
500113e0:	e51b3018 	ldr	r3, [fp, #-24]
500113e4:	e1d332b6 	ldrh	r3, [r3, #38]	; 0x26
500113e8:	e6ff2073 	uxth	r2, r3
500113ec:	e51b3018 	ldr	r3, [fp, #-24]
500113f0:	e5931028 	ldr	r1, [r3, #40]	; 0x28
500113f4:	e3063fac 	movw	r3, #28588	; 0x6fac
500113f8:	e3453001 	movt	r3, #20481	; 0x5001
500113fc:	e1a00101 	lsl	r0, r1, #2
50011400:	e51b1008 	ldr	r1, [fp, #-8]
50011404:	e0801001 	add	r1, r0, r1
50011408:	e7d33101 	ldrb	r3, [r3, r1, lsl #2]
5001140c:	e7e33253 	ubfx	r3, r3, #4, #4
50011410:	e6ef3073 	uxtb	r3, r3
50011414:	e6ff3073 	uxth	r3, r3
50011418:	e0823003 	add	r3, r2, r3
5001141c:	e6ff3073 	uxth	r3, r3
50011420:	e2833001 	add	r3, r3, #1
50011424:	e6ff3073 	uxth	r3, r3
50011428:	e6ff3073 	uxth	r3, r3
5001142c:	e14b30be 	strh	r3, [fp, #-14]
50011430:	e51b3018 	ldr	r3, [fp, #-24]
50011434:	e283200c 	add	r2, r3, #12
50011438:	e24b3010 	sub	r3, fp, #16
5001143c:	e1a00002 	mov	r0, r2
50011440:	e1a01003 	mov	r1, r3
50011444:	ebfffe4c 	bl	50010d7c <is_occupied>
50011448:	e1a03000 	mov	r3, r0
5001144c:	e3530000 	cmp	r3, #0
50011450:	0a00000a 	beq	50011480 <bottom+0x11c>
50011454:	e51b3018 	ldr	r3, [fp, #-24]
50011458:	e1d332b6 	ldrh	r3, [r3, #38]	; 0x26
5001145c:	e6bf3073 	sxth	r3, r3
50011460:	e3530000 	cmp	r3, #0
50011464:	da000002 	ble	50011474 <bottom+0x110>
50011468:	e3e03000 	mvn	r3, #0
5001146c:	e50b300c 	str	r3, [fp, #-12]
50011470:	ea000008 	b	50011498 <bottom+0x134>
50011474:	e3e03001 	mvn	r3, #1
50011478:	e50b300c 	str	r3, [fp, #-12]
5001147c:	ea000005 	b	50011498 <bottom+0x134>
50011480:	e51b3008 	ldr	r3, [fp, #-8]
50011484:	e2833001 	add	r3, r3, #1
50011488:	e50b3008 	str	r3, [fp, #-8]
5001148c:	e51b3008 	ldr	r3, [fp, #-8]
50011490:	e3530003 	cmp	r3, #3
50011494:	daffffbf 	ble	50011398 <bottom+0x34>
50011498:	e51b300c 	ldr	r3, [fp, #-12]
5001149c:	e3530000 	cmp	r3, #0
500114a0:	1a000009 	bne	500114cc <bottom+0x168>
500114a4:	e51b3018 	ldr	r3, [fp, #-24]
500114a8:	e1d332b6 	ldrh	r3, [r3, #38]	; 0x26
500114ac:	e6ff3073 	uxth	r3, r3
500114b0:	e6ff3073 	uxth	r3, r3
500114b4:	e2833001 	add	r3, r3, #1
500114b8:	e6ff3073 	uxth	r3, r3
500114bc:	e6ff2073 	uxth	r2, r3
500114c0:	e51b3018 	ldr	r3, [fp, #-24]
500114c4:	e1c322b6 	strh	r2, [r3, #38]	; 0x26
500114c8:	ea00000e 	b	50011508 <bottom+0x1a4>
500114cc:	e51b300c 	ldr	r3, [fp, #-12]
500114d0:	e3730001 	cmn	r3, #1
500114d4:	1a00000b 	bne	50011508 <bottom+0x1a4>
500114d8:	e51b3018 	ldr	r3, [fp, #-24]
500114dc:	e5932028 	ldr	r2, [r3, #40]	; 0x28
500114e0:	e30730f0 	movw	r3, #28912	; 0x70f0
500114e4:	e3453001 	movt	r3, #20481	; 0x5001
500114e8:	e7933102 	ldr	r3, [r3, r2, lsl #2]
500114ec:	e51b0018 	ldr	r0, [fp, #-24]
500114f0:	e1a01003 	mov	r1, r3
500114f4:	ebfffe50 	bl	50010e3c <update_block>
500114f8:	e51b0018 	ldr	r0, [fp, #-24]
500114fc:	eb00011c 	bl	50011974 <fix_block>
50011500:	e51b0018 	ldr	r0, [fp, #-24]
50011504:	eb000083 	bl	50011718 <new_block>
50011508:	e51b300c 	ldr	r3, [fp, #-12]
5001150c:	e3530000 	cmp	r3, #0
50011510:	0affff9d 	beq	5001138c <bottom+0x28>
50011514:	e51b300c 	ldr	r3, [fp, #-12]
50011518:	e1a00003 	mov	r0, r3
5001151c:	e24bd004 	sub	sp, fp, #4
50011520:	e8bd8800 	pop	{fp, pc}

50011524 <turn>:
50011524:	e92d4800 	push	{fp, lr}
50011528:	e28db004 	add	fp, sp, #4
5001152c:	e24dd018 	sub	sp, sp, #24
50011530:	e50b0018 	str	r0, [fp, #-24]
50011534:	e51b3018 	ldr	r3, [fp, #-24]
50011538:	e5933028 	ldr	r3, [r3, #40]	; 0x28
5001153c:	e3530012 	cmp	r3, #18
50011540:	979ff103 	ldrls	pc, [pc, r3, lsl #2]
50011544:	ea000026 	b	500115e4 <turn+0xc0>
50011548:	50011594 	.word	0x50011594
5001154c:	500115e4 	.word	0x500115e4
50011550:	5001159c 	.word	0x5001159c
50011554:	500115e4 	.word	0x500115e4
50011558:	500115a8 	.word	0x500115a8
5001155c:	500115e4 	.word	0x500115e4
50011560:	500115b4 	.word	0x500115b4
50011564:	500115e4 	.word	0x500115e4
50011568:	500115e4 	.word	0x500115e4
5001156c:	500115e4 	.word	0x500115e4
50011570:	500115c0 	.word	0x500115c0
50011574:	500115e4 	.word	0x500115e4
50011578:	500115e4 	.word	0x500115e4
5001157c:	500115e4 	.word	0x500115e4
50011580:	500115cc 	.word	0x500115cc
50011584:	500115e4 	.word	0x500115e4
50011588:	500115e4 	.word	0x500115e4
5001158c:	500115e4 	.word	0x500115e4
50011590:	500115d8 	.word	0x500115d8
50011594:	e3a03000 	mov	r3, #0
50011598:	ea00005b 	b	5001170c <turn+0x1e8>
5001159c:	e3a03001 	mov	r3, #1
500115a0:	e50b300c 	str	r3, [fp, #-12]
500115a4:	ea000013 	b	500115f8 <turn+0xd4>
500115a8:	e3a03003 	mov	r3, #3
500115ac:	e50b300c 	str	r3, [fp, #-12]
500115b0:	ea000010 	b	500115f8 <turn+0xd4>
500115b4:	e3a03005 	mov	r3, #5
500115b8:	e50b300c 	str	r3, [fp, #-12]
500115bc:	ea00000d 	b	500115f8 <turn+0xd4>
500115c0:	e3a03007 	mov	r3, #7
500115c4:	e50b300c 	str	r3, [fp, #-12]
500115c8:	ea00000a 	b	500115f8 <turn+0xd4>
500115cc:	e3a0300b 	mov	r3, #11
500115d0:	e50b300c 	str	r3, [fp, #-12]
500115d4:	ea000007 	b	500115f8 <turn+0xd4>
500115d8:	e3a0300f 	mov	r3, #15
500115dc:	e50b300c 	str	r3, [fp, #-12]
500115e0:	ea000004 	b	500115f8 <turn+0xd4>
500115e4:	e51b3018 	ldr	r3, [fp, #-24]
500115e8:	e5933028 	ldr	r3, [r3, #40]	; 0x28
500115ec:	e2833001 	add	r3, r3, #1
500115f0:	e50b300c 	str	r3, [fp, #-12]
500115f4:	e1a00000 	nop			; (mov r0, r0)
500115f8:	e3a03000 	mov	r3, #0
500115fc:	e50b3008 	str	r3, [fp, #-8]
50011600:	ea00002f 	b	500116c4 <turn+0x1a0>
50011604:	e51b3018 	ldr	r3, [fp, #-24]
50011608:	e1d332b4 	ldrh	r3, [r3, #36]	; 0x24
5001160c:	e6ff2073 	uxth	r2, r3
50011610:	e3063fac 	movw	r3, #28588	; 0x6fac
50011614:	e3453001 	movt	r3, #20481	; 0x5001
50011618:	e51b100c 	ldr	r1, [fp, #-12]
5001161c:	e1a00101 	lsl	r0, r1, #2
50011620:	e51b1008 	ldr	r1, [fp, #-8]
50011624:	e0801001 	add	r1, r0, r1
50011628:	e7d33101 	ldrb	r3, [r3, r1, lsl #2]
5001162c:	e7e33053 	ubfx	r3, r3, #0, #4
50011630:	e6ef3073 	uxtb	r3, r3
50011634:	e6ff3073 	uxth	r3, r3
50011638:	e0823003 	add	r3, r2, r3
5001163c:	e6ff3073 	uxth	r3, r3
50011640:	e6ff3073 	uxth	r3, r3
50011644:	e14b31b0 	strh	r3, [fp, #-16]
50011648:	e51b3018 	ldr	r3, [fp, #-24]
5001164c:	e1d332b6 	ldrh	r3, [r3, #38]	; 0x26
50011650:	e6ff2073 	uxth	r2, r3
50011654:	e3063fac 	movw	r3, #28588	; 0x6fac
50011658:	e3453001 	movt	r3, #20481	; 0x5001
5001165c:	e51b100c 	ldr	r1, [fp, #-12]
50011660:	e1a00101 	lsl	r0, r1, #2
50011664:	e51b1008 	ldr	r1, [fp, #-8]
50011668:	e0801001 	add	r1, r0, r1
5001166c:	e7d33101 	ldrb	r3, [r3, r1, lsl #2]
50011670:	e7e33253 	ubfx	r3, r3, #4, #4
50011674:	e6ef3073 	uxtb	r3, r3
50011678:	e6ff3073 	uxth	r3, r3
5001167c:	e0823003 	add	r3, r2, r3
50011680:	e6ff3073 	uxth	r3, r3
50011684:	e6ff3073 	uxth	r3, r3
50011688:	e14b30be 	strh	r3, [fp, #-14]
5001168c:	e51b3018 	ldr	r3, [fp, #-24]
50011690:	e283200c 	add	r2, r3, #12
50011694:	e24b3010 	sub	r3, fp, #16
50011698:	e1a00002 	mov	r0, r2
5001169c:	e1a01003 	mov	r1, r3
500116a0:	ebfffdb5 	bl	50010d7c <is_occupied>
500116a4:	e1a03000 	mov	r3, r0
500116a8:	e3530000 	cmp	r3, #0
500116ac:	0a000001 	beq	500116b8 <turn+0x194>
500116b0:	e3e03000 	mvn	r3, #0
500116b4:	ea000014 	b	5001170c <turn+0x1e8>
500116b8:	e51b3008 	ldr	r3, [fp, #-8]
500116bc:	e2833001 	add	r3, r3, #1
500116c0:	e50b3008 	str	r3, [fp, #-8]
500116c4:	e51b3008 	ldr	r3, [fp, #-8]
500116c8:	e3530003 	cmp	r3, #3
500116cc:	daffffcc 	ble	50011604 <turn+0xe0>
500116d0:	e51b0018 	ldr	r0, [fp, #-24]
500116d4:	e3a01000 	mov	r1, #0
500116d8:	ebfffdd7 	bl	50010e3c <update_block>
500116dc:	e51b3018 	ldr	r3, [fp, #-24]
500116e0:	e51b200c 	ldr	r2, [fp, #-12]
500116e4:	e5832028 	str	r2, [r3, #40]	; 0x28
500116e8:	e51b3018 	ldr	r3, [fp, #-24]
500116ec:	e5932028 	ldr	r2, [r3, #40]	; 0x28
500116f0:	e30730f0 	movw	r3, #28912	; 0x70f0
500116f4:	e3453001 	movt	r3, #20481	; 0x5001
500116f8:	e7933102 	ldr	r3, [r3, r2, lsl #2]
500116fc:	e51b0018 	ldr	r0, [fp, #-24]
50011700:	e1a01003 	mov	r1, r3
50011704:	ebfffdcc 	bl	50010e3c <update_block>
50011708:	e3a03000 	mov	r3, #0
5001170c:	e1a00003 	mov	r0, r3
50011710:	e24bd004 	sub	sp, fp, #4
50011714:	e8bd8800 	pop	{fp, pc}

50011718 <new_block>:
50011718:	e92d4800 	push	{fp, lr}
5001171c:	e28db004 	add	fp, sp, #4
50011720:	e24dd010 	sub	sp, sp, #16
50011724:	e50b0008 	str	r0, [fp, #-8]
50011728:	e51b3008 	ldr	r3, [fp, #-8]
5001172c:	e5933010 	ldr	r3, [r3, #16]
50011730:	e1a02fa3 	lsr	r2, r3, #31
50011734:	e0823003 	add	r3, r2, r3
50011738:	e1a030c3 	asr	r3, r3, #1
5001173c:	e6ff3073 	uxth	r3, r3
50011740:	e2433001 	sub	r3, r3, #1
50011744:	e6ff3073 	uxth	r3, r3
50011748:	e6ff2073 	uxth	r2, r3
5001174c:	e51b3008 	ldr	r3, [fp, #-8]
50011750:	e1c322b4 	strh	r2, [r3, #36]	; 0x24
50011754:	e51b3008 	ldr	r3, [fp, #-8]
50011758:	e3a02000 	mov	r2, #0
5001175c:	e1c322b6 	strh	r2, [r3, #38]	; 0x26
50011760:	ebffd2f0 	bl	50006328 <rand>
50011764:	e1a01000 	mov	r1, r0
50011768:	e3013af3 	movw	r3, #6899	; 0x1af3
5001176c:	e3463bca 	movt	r3, #27594	; 0x6bca
50011770:	e0c32391 	smull	r2, r3, r1, r3
50011774:	e1a021c3 	asr	r2, r3, #3
50011778:	e1a03fc1 	asr	r3, r1, #31
5001177c:	e0632002 	rsb	r2, r3, r2
50011780:	e1a03002 	mov	r3, r2
50011784:	e1a03103 	lsl	r3, r3, #2
50011788:	e1a00103 	lsl	r0, r3, #2
5001178c:	e0833000 	add	r3, r3, r0
50011790:	e0623003 	rsb	r3, r2, r3
50011794:	e0632001 	rsb	r2, r3, r1
50011798:	e51b3008 	ldr	r3, [fp, #-8]
5001179c:	e5832028 	str	r2, [r3, #40]	; 0x28
500117a0:	e51b3008 	ldr	r3, [fp, #-8]
500117a4:	e5933030 	ldr	r3, [r3, #48]	; 0x30
500117a8:	e3530000 	cmp	r3, #0
500117ac:	1a000003 	bne	500117c0 <new_block+0xa8>
500117b0:	e51b3008 	ldr	r3, [fp, #-8]
500117b4:	e593302c 	ldr	r3, [r3, #44]	; 0x2c
500117b8:	e1a00003 	mov	r0, r3
500117bc:	ebfffcbf 	bl	50010ac0 <os_msgQ_flush>
500117c0:	e51b3008 	ldr	r3, [fp, #-8]
500117c4:	e5932028 	ldr	r2, [r3, #40]	; 0x28
500117c8:	e30730f0 	movw	r3, #28912	; 0x70f0
500117cc:	e3453001 	movt	r3, #20481	; 0x5001
500117d0:	e7933102 	ldr	r3, [r3, r2, lsl #2]
500117d4:	e51b0008 	ldr	r0, [fp, #-8]
500117d8:	e1a01003 	mov	r1, r3
500117dc:	ebfffd96 	bl	50010e3c <update_block>
500117e0:	e51b3008 	ldr	r3, [fp, #-8]
500117e4:	e5933030 	ldr	r3, [r3, #48]	; 0x30
500117e8:	e3530000 	cmp	r3, #0
500117ec:	0a000015 	beq	50011848 <new_block+0x130>
500117f0:	e51b3008 	ldr	r3, [fp, #-8]
500117f4:	e5933038 	ldr	r3, [r3, #56]	; 0x38
500117f8:	e3530000 	cmp	r3, #0
500117fc:	0a000003 	beq	50011810 <new_block+0xf8>
50011800:	e51b3008 	ldr	r3, [fp, #-8]
50011804:	e5933038 	ldr	r3, [r3, #56]	; 0x38
50011808:	e1a00003 	mov	r0, r3
5001180c:	ebfffc69 	bl	500109b8 <os_task_delete>
50011810:	e51b3008 	ldr	r3, [fp, #-8]
50011814:	e58d3000 	str	r3, [sp]
50011818:	e3a03002 	mov	r3, #2
5001181c:	e58d3004 	str	r3, [sp, #4]
50011820:	e30701c4 	movw	r0, #29124	; 0x71c4
50011824:	e3450001 	movt	r0, #20481	; 0x5001
50011828:	e3a01a0a 	mov	r1, #40960	; 0xa000
5001182c:	e3a0206f 	mov	r2, #111	; 0x6f
50011830:	e3013fa0 	movw	r3, #8096	; 0x1fa0
50011834:	e3453001 	movt	r3, #20481	; 0x5001
50011838:	ebfffc31 	bl	50010904 <os_task_create>
5001183c:	e1a02000 	mov	r2, r0
50011840:	e51b3008 	ldr	r3, [fp, #-8]
50011844:	e5832038 	str	r2, [r3, #56]	; 0x38
50011848:	e24bd004 	sub	sp, fp, #4
5001184c:	e8bd8800 	pop	{fp, pc}

50011850 <fix_node>:
50011850:	e52db004 	push	{fp}		; (str fp, [sp, #-4]!)
50011854:	e28db000 	add	fp, sp, #0
50011858:	e24dd00c 	sub	sp, sp, #12
5001185c:	e50b0008 	str	r0, [fp, #-8]
50011860:	e50b100c 	str	r1, [fp, #-12]
50011864:	e51b3008 	ldr	r3, [fp, #-8]
50011868:	e593200c 	ldr	r2, [r3, #12]
5001186c:	e51b300c 	ldr	r3, [fp, #-12]
50011870:	e1d330b2 	ldrh	r3, [r3, #2]
50011874:	e6bf3073 	sxth	r3, r3
50011878:	e1a03103 	lsl	r3, r3, #2
5001187c:	e0823003 	add	r3, r2, r3
50011880:	e51b2008 	ldr	r2, [fp, #-8]
50011884:	e592100c 	ldr	r1, [r2, #12]
50011888:	e51b200c 	ldr	r2, [fp, #-12]
5001188c:	e1d220b2 	ldrh	r2, [r2, #2]
50011890:	e6bf2072 	sxth	r2, r2
50011894:	e1a02102 	lsl	r2, r2, #2
50011898:	e0812002 	add	r2, r1, r2
5001189c:	e5922000 	ldr	r2, [r2]
500118a0:	e51b100c 	ldr	r1, [fp, #-12]
500118a4:	e1d110b0 	ldrh	r1, [r1]
500118a8:	e6bf1071 	sxth	r1, r1
500118ac:	e3a00001 	mov	r0, #1
500118b0:	e1a01110 	lsl	r1, r0, r1
500118b4:	e1822001 	orr	r2, r2, r1
500118b8:	e5832000 	str	r2, [r3]
500118bc:	e51b3008 	ldr	r3, [fp, #-8]
500118c0:	e5933008 	ldr	r3, [r3, #8]
500118c4:	e51b200c 	ldr	r2, [fp, #-12]
500118c8:	e1d220b2 	ldrh	r2, [r2, #2]
500118cc:	e6bf2072 	sxth	r2, r2
500118d0:	e51b1008 	ldr	r1, [fp, #-8]
500118d4:	e5911010 	ldr	r1, [r1, #16]
500118d8:	e0010291 	mul	r1, r1, r2
500118dc:	e51b200c 	ldr	r2, [fp, #-12]
500118e0:	e1d220b0 	ldrh	r2, [r2]
500118e4:	e6bf2072 	sxth	r2, r2
500118e8:	e0812002 	add	r2, r1, r2
500118ec:	e0832002 	add	r2, r3, r2
500118f0:	e51b3008 	ldr	r3, [fp, #-8]
500118f4:	e5931028 	ldr	r1, [r3, #40]	; 0x28
500118f8:	e30730f0 	movw	r3, #28912	; 0x70f0
500118fc:	e3453001 	movt	r3, #20481	; 0x5001
50011900:	e7933101 	ldr	r3, [r3, r1, lsl #2]
50011904:	e6ef3073 	uxtb	r3, r3
50011908:	e5c23000 	strb	r3, [r2]
5001190c:	e51b3008 	ldr	r3, [fp, #-8]
50011910:	e593200c 	ldr	r2, [r3, #12]
50011914:	e51b300c 	ldr	r3, [fp, #-12]
50011918:	e1d330b2 	ldrh	r3, [r3, #2]
5001191c:	e6bf3073 	sxth	r3, r3
50011920:	e1a03103 	lsl	r3, r3, #2
50011924:	e0823003 	add	r3, r2, r3
50011928:	e5932000 	ldr	r2, [r3]
5001192c:	e51b3008 	ldr	r3, [fp, #-8]
50011930:	e5933018 	ldr	r3, [r3, #24]
50011934:	e1520003 	cmp	r2, r3
50011938:	1a000008 	bne	50011960 <fix_node+0x110>
5001193c:	e51b3008 	ldr	r3, [fp, #-8]
50011940:	e593301c 	ldr	r3, [r3, #28]
50011944:	e2832001 	add	r2, r3, #1
50011948:	e51b3008 	ldr	r3, [fp, #-8]
5001194c:	e583201c 	str	r2, [r3, #28]
50011950:	e51b300c 	ldr	r3, [fp, #-12]
50011954:	e1d330b2 	ldrh	r3, [r3, #2]
50011958:	e6bf3073 	sxth	r3, r3
5001195c:	ea000000 	b	50011964 <fix_node+0x114>
50011960:	e3e03000 	mvn	r3, #0
50011964:	e1a00003 	mov	r0, r3
50011968:	e24bd000 	sub	sp, fp, #0
5001196c:	e49db004 	pop	{fp}		; (ldr fp, [sp], #4)
50011970:	e12fff1e 	bx	lr

50011974 <fix_block>:
50011974:	e92d4800 	push	{fp, lr}
50011978:	e28db004 	add	fp, sp, #4
5001197c:	e24dd018 	sub	sp, sp, #24
50011980:	e50b0018 	str	r0, [fp, #-24]
50011984:	e3e03000 	mvn	r3, #0
50011988:	e50b300c 	str	r3, [fp, #-12]
5001198c:	e3a03000 	mov	r3, #0
50011990:	e50b3008 	str	r3, [fp, #-8]
50011994:	ea000031 	b	50011a60 <fix_block+0xec>
50011998:	e51b3018 	ldr	r3, [fp, #-24]
5001199c:	e1d332b4 	ldrh	r3, [r3, #36]	; 0x24
500119a0:	e6ff2073 	uxth	r2, r3
500119a4:	e51b3018 	ldr	r3, [fp, #-24]
500119a8:	e5931028 	ldr	r1, [r3, #40]	; 0x28
500119ac:	e3063fac 	movw	r3, #28588	; 0x6fac
500119b0:	e3453001 	movt	r3, #20481	; 0x5001
500119b4:	e1a00101 	lsl	r0, r1, #2
500119b8:	e51b1008 	ldr	r1, [fp, #-8]
500119bc:	e0801001 	add	r1, r0, r1
500119c0:	e7d33101 	ldrb	r3, [r3, r1, lsl #2]
500119c4:	e7e33053 	ubfx	r3, r3, #0, #4
500119c8:	e6ef3073 	uxtb	r3, r3
500119cc:	e6ff3073 	uxth	r3, r3
500119d0:	e0823003 	add	r3, r2, r3
500119d4:	e6ff3073 	uxth	r3, r3
500119d8:	e6ff3073 	uxth	r3, r3
500119dc:	e14b31b4 	strh	r3, [fp, #-20]	; 0xffffffec
500119e0:	e51b3018 	ldr	r3, [fp, #-24]
500119e4:	e1d332b6 	ldrh	r3, [r3, #38]	; 0x26
500119e8:	e6ff2073 	uxth	r2, r3
500119ec:	e51b3018 	ldr	r3, [fp, #-24]
500119f0:	e5931028 	ldr	r1, [r3, #40]	; 0x28
500119f4:	e3063fac 	movw	r3, #28588	; 0x6fac
500119f8:	e3453001 	movt	r3, #20481	; 0x5001
500119fc:	e1a00101 	lsl	r0, r1, #2
50011a00:	e51b1008 	ldr	r1, [fp, #-8]
50011a04:	e0801001 	add	r1, r0, r1
50011a08:	e7d33101 	ldrb	r3, [r3, r1, lsl #2]
50011a0c:	e7e33253 	ubfx	r3, r3, #4, #4
50011a10:	e6ef3073 	uxtb	r3, r3
50011a14:	e6ff3073 	uxth	r3, r3
50011a18:	e0823003 	add	r3, r2, r3
50011a1c:	e6ff3073 	uxth	r3, r3
50011a20:	e6ff3073 	uxth	r3, r3
50011a24:	e14b31b2 	strh	r3, [fp, #-18]	; 0xffffffee
50011a28:	e24b3014 	sub	r3, fp, #20
50011a2c:	e51b0018 	ldr	r0, [fp, #-24]
50011a30:	e1a01003 	mov	r1, r3
50011a34:	ebffff85 	bl	50011850 <fix_node>
50011a38:	e50b0010 	str	r0, [fp, #-16]
50011a3c:	e51b200c 	ldr	r2, [fp, #-12]
50011a40:	e51b3010 	ldr	r3, [fp, #-16]
50011a44:	e1520003 	cmp	r2, r3
50011a48:	a1a03002 	movge	r3, r2
50011a4c:	b1a03003 	movlt	r3, r3
50011a50:	e50b300c 	str	r3, [fp, #-12]
50011a54:	e51b3008 	ldr	r3, [fp, #-8]
50011a58:	e2833001 	add	r3, r3, #1
50011a5c:	e50b3008 	str	r3, [fp, #-8]
50011a60:	e51b3008 	ldr	r3, [fp, #-8]
50011a64:	e3530003 	cmp	r3, #3
50011a68:	daffffca 	ble	50011998 <fix_block+0x24>
50011a6c:	e51b3018 	ldr	r3, [fp, #-24]
50011a70:	e593301c 	ldr	r3, [r3, #28]
50011a74:	e3530000 	cmp	r3, #0
50011a78:	0a000032 	beq	50011b48 <fix_block+0x1d4>
50011a7c:	e51b3018 	ldr	r3, [fp, #-24]
50011a80:	e5932020 	ldr	r2, [r3, #32]
50011a84:	e51b3018 	ldr	r3, [fp, #-24]
50011a88:	e593101c 	ldr	r1, [r3, #28]
50011a8c:	e30730dc 	movw	r3, #28892	; 0x70dc
50011a90:	e3453001 	movt	r3, #20481	; 0x5001
50011a94:	e7933101 	ldr	r3, [r3, r1, lsl #2]
50011a98:	e0822003 	add	r2, r2, r3
50011a9c:	e51b3018 	ldr	r3, [fp, #-24]
50011aa0:	e5832020 	str	r2, [r3, #32]
50011aa4:	e51b3018 	ldr	r3, [fp, #-24]
50011aa8:	e5933004 	ldr	r3, [r3, #4]
50011aac:	e51b2018 	ldr	r2, [fp, #-24]
50011ab0:	e5921000 	ldr	r1, [r2]
50011ab4:	e51b2018 	ldr	r2, [fp, #-24]
50011ab8:	e5922020 	ldr	r2, [r2, #32]
50011abc:	e3822102 	orr	r2, r2, #-2147483648	; 0x80000000
50011ac0:	e1a0c002 	mov	ip, r2
50011ac4:	e24b2014 	sub	r2, fp, #20
50011ac8:	e1a00001 	mov	r0, r1
50011acc:	e1a01002 	mov	r1, r2
50011ad0:	e1a0200c 	mov	r2, ip
50011ad4:	e12fff33 	blx	r3
50011ad8:	e51b300c 	ldr	r3, [fp, #-12]
50011adc:	e50b3008 	str	r3, [fp, #-8]
50011ae0:	ea000015 	b	50011b3c <fix_block+0x1c8>
50011ae4:	e51b3018 	ldr	r3, [fp, #-24]
50011ae8:	e593301c 	ldr	r3, [r3, #28]
50011aec:	e3530000 	cmp	r3, #0
50011af0:	1a000000 	bne	50011af8 <fix_block+0x184>
50011af4:	ea000013 	b	50011b48 <fix_block+0x1d4>
50011af8:	e51b3018 	ldr	r3, [fp, #-24]
50011afc:	e593200c 	ldr	r2, [r3, #12]
50011b00:	e51b3008 	ldr	r3, [fp, #-8]
50011b04:	e1a03103 	lsl	r3, r3, #2
50011b08:	e0823003 	add	r3, r2, r3
50011b0c:	e5932000 	ldr	r2, [r3]
50011b10:	e51b3018 	ldr	r3, [fp, #-24]
50011b14:	e5933018 	ldr	r3, [r3, #24]
50011b18:	e1520003 	cmp	r2, r3
50011b1c:	0a000000 	beq	50011b24 <fix_block+0x1b0>
50011b20:	ea000002 	b	50011b30 <fix_block+0x1bc>
50011b24:	e51b0018 	ldr	r0, [fp, #-24]
50011b28:	e51b1008 	ldr	r1, [fp, #-8]
50011b2c:	eb00005b 	bl	50011ca0 <delete_this_line>
50011b30:	e51b3008 	ldr	r3, [fp, #-8]
50011b34:	e2433001 	sub	r3, r3, #1
50011b38:	e50b3008 	str	r3, [fp, #-8]
50011b3c:	e51b3008 	ldr	r3, [fp, #-8]
50011b40:	e3530000 	cmp	r3, #0
50011b44:	aaffffe6 	bge	50011ae4 <fix_block+0x170>
50011b48:	e24bd004 	sub	sp, fp, #4
50011b4c:	e8bd8800 	pop	{fp, pc}

50011b50 <update_line>:
50011b50:	e92d4800 	push	{fp, lr}
50011b54:	e28db004 	add	fp, sp, #4
50011b58:	e24dd018 	sub	sp, sp, #24
50011b5c:	e50b0010 	str	r0, [fp, #-16]
50011b60:	e50b1014 	str	r1, [fp, #-20]
50011b64:	e50b2018 	str	r2, [fp, #-24]
50011b68:	e50b301c 	str	r3, [fp, #-28]
50011b6c:	e3a03000 	mov	r3, #0
50011b70:	e50b3008 	str	r3, [fp, #-8]
50011b74:	ea000039 	b	50011c60 <update_line+0x110>
50011b78:	e51b3008 	ldr	r3, [fp, #-8]
50011b7c:	e6ff3073 	uxth	r3, r3
50011b80:	e14b30bc 	strh	r3, [fp, #-12]
50011b84:	e51b3014 	ldr	r3, [fp, #-20]
50011b88:	e6ff3073 	uxth	r3, r3
50011b8c:	e14b30ba 	strh	r3, [fp, #-10]
50011b90:	e51b301c 	ldr	r3, [fp, #-28]
50011b94:	e3530000 	cmp	r3, #0
50011b98:	0a00000e 	beq	50011bd8 <update_line+0x88>
50011b9c:	e51b3010 	ldr	r3, [fp, #-16]
50011ba0:	e5933008 	ldr	r3, [r3, #8]
50011ba4:	e51b2010 	ldr	r2, [fp, #-16]
50011ba8:	e5922010 	ldr	r2, [r2, #16]
50011bac:	e51b1014 	ldr	r1, [fp, #-20]
50011bb0:	e0010291 	mul	r1, r1, r2
50011bb4:	e51b2008 	ldr	r2, [fp, #-8]
50011bb8:	e0812002 	add	r2, r1, r2
50011bbc:	e0833002 	add	r3, r3, r2
50011bc0:	e51b2008 	ldr	r2, [fp, #-8]
50011bc4:	e51b101c 	ldr	r1, [fp, #-28]
50011bc8:	e0812002 	add	r2, r1, r2
50011bcc:	e5d22000 	ldrb	r2, [r2]
50011bd0:	e5c32000 	strb	r2, [r3]
50011bd4:	ea00000a 	b	50011c04 <update_line+0xb4>
50011bd8:	e51b3010 	ldr	r3, [fp, #-16]
50011bdc:	e5933008 	ldr	r3, [r3, #8]
50011be0:	e51b2010 	ldr	r2, [fp, #-16]
50011be4:	e5922010 	ldr	r2, [r2, #16]
50011be8:	e51b1014 	ldr	r1, [fp, #-20]
50011bec:	e0010291 	mul	r1, r1, r2
50011bf0:	e51b2008 	ldr	r2, [fp, #-8]
50011bf4:	e0812002 	add	r2, r1, r2
50011bf8:	e0833002 	add	r3, r3, r2
50011bfc:	e3a02000 	mov	r2, #0
50011c00:	e5c32000 	strb	r2, [r3]
50011c04:	e51b3010 	ldr	r3, [fp, #-16]
50011c08:	e5933004 	ldr	r3, [r3, #4]
50011c0c:	e51b2010 	ldr	r2, [fp, #-16]
50011c10:	e592c000 	ldr	ip, [r2]
50011c14:	e51b2010 	ldr	r2, [fp, #-16]
50011c18:	e5922008 	ldr	r2, [r2, #8]
50011c1c:	e51b1010 	ldr	r1, [fp, #-16]
50011c20:	e5911010 	ldr	r1, [r1, #16]
50011c24:	e51b0014 	ldr	r0, [fp, #-20]
50011c28:	e0000190 	mul	r0, r0, r1
50011c2c:	e51b1008 	ldr	r1, [fp, #-8]
50011c30:	e0801001 	add	r1, r0, r1
50011c34:	e0822001 	add	r2, r2, r1
50011c38:	e5d22000 	ldrb	r2, [r2]
50011c3c:	e1a0e002 	mov	lr, r2
50011c40:	e24b200c 	sub	r2, fp, #12
50011c44:	e1a0000c 	mov	r0, ip
50011c48:	e1a01002 	mov	r1, r2
50011c4c:	e1a0200e 	mov	r2, lr
50011c50:	e12fff33 	blx	r3
50011c54:	e51b3008 	ldr	r3, [fp, #-8]
50011c58:	e2833001 	add	r3, r3, #1
50011c5c:	e50b3008 	str	r3, [fp, #-8]
50011c60:	e51b3010 	ldr	r3, [fp, #-16]
50011c64:	e5932010 	ldr	r2, [r3, #16]
50011c68:	e51b3008 	ldr	r3, [fp, #-8]
50011c6c:	e1520003 	cmp	r2, r3
50011c70:	caffffc0 	bgt	50011b78 <update_line+0x28>
50011c74:	e51b3010 	ldr	r3, [fp, #-16]
50011c78:	e593200c 	ldr	r2, [r3, #12]
50011c7c:	e51b3014 	ldr	r3, [fp, #-20]
50011c80:	e1a03103 	lsl	r3, r3, #2
50011c84:	e0823003 	add	r3, r2, r3
50011c88:	e51b2018 	ldr	r2, [fp, #-24]
50011c8c:	e5832000 	str	r2, [r3]
50011c90:	e3a03000 	mov	r3, #0
50011c94:	e1a00003 	mov	r0, r3
50011c98:	e24bd004 	sub	sp, fp, #4
50011c9c:	e8bd8800 	pop	{fp, pc}

50011ca0 <delete_this_line>:
50011ca0:	e92d4800 	push	{fp, lr}
50011ca4:	e28db004 	add	fp, sp, #4
50011ca8:	e24dd010 	sub	sp, sp, #16
50011cac:	e50b0010 	str	r0, [fp, #-16]
50011cb0:	e50b1014 	str	r1, [fp, #-20]
50011cb4:	e51b3014 	ldr	r3, [fp, #-20]
50011cb8:	e50b3008 	str	r3, [fp, #-8]
50011cbc:	e51b3014 	ldr	r3, [fp, #-20]
50011cc0:	e50b3008 	str	r3, [fp, #-8]
50011cc4:	ea00001e 	b	50011d44 <delete_this_line+0xa4>
50011cc8:	e51b3010 	ldr	r3, [fp, #-16]
50011ccc:	e593200c 	ldr	r2, [r3, #12]
50011cd0:	e51b3008 	ldr	r3, [fp, #-8]
50011cd4:	e2433107 	sub	r3, r3, #-1073741823	; 0xc0000001
50011cd8:	e1a03103 	lsl	r3, r3, #2
50011cdc:	e0823003 	add	r3, r2, r3
50011ce0:	e593c000 	ldr	ip, [r3]
50011ce4:	e51b3010 	ldr	r3, [fp, #-16]
50011ce8:	e5933008 	ldr	r3, [r3, #8]
50011cec:	e51b2008 	ldr	r2, [fp, #-8]
50011cf0:	e2422001 	sub	r2, r2, #1
50011cf4:	e51b1010 	ldr	r1, [fp, #-16]
50011cf8:	e5911010 	ldr	r1, [r1, #16]
50011cfc:	e0020291 	mul	r2, r1, r2
50011d00:	e0833002 	add	r3, r3, r2
50011d04:	e51b0010 	ldr	r0, [fp, #-16]
50011d08:	e51b1008 	ldr	r1, [fp, #-8]
50011d0c:	e1a0200c 	mov	r2, ip
50011d10:	ebffff8e 	bl	50011b50 <update_line>
50011d14:	e51b3010 	ldr	r3, [fp, #-16]
50011d18:	e593200c 	ldr	r2, [r3, #12]
50011d1c:	e51b3008 	ldr	r3, [fp, #-8]
50011d20:	e1a03103 	lsl	r3, r3, #2
50011d24:	e0823003 	add	r3, r2, r3
50011d28:	e5933000 	ldr	r3, [r3]
50011d2c:	e3530000 	cmp	r3, #0
50011d30:	1a000000 	bne	50011d38 <delete_this_line+0x98>
50011d34:	ea000005 	b	50011d50 <delete_this_line+0xb0>
50011d38:	e51b3008 	ldr	r3, [fp, #-8]
50011d3c:	e2433001 	sub	r3, r3, #1
50011d40:	e50b3008 	str	r3, [fp, #-8]
50011d44:	e51b3008 	ldr	r3, [fp, #-8]
50011d48:	e3530000 	cmp	r3, #0
50011d4c:	caffffdd 	bgt	50011cc8 <delete_this_line+0x28>
50011d50:	e51b3008 	ldr	r3, [fp, #-8]
50011d54:	e3530000 	cmp	r3, #0
50011d58:	1a000004 	bne	50011d70 <delete_this_line+0xd0>
50011d5c:	e51b0010 	ldr	r0, [fp, #-16]
50011d60:	e51b1008 	ldr	r1, [fp, #-8]
50011d64:	e3a02000 	mov	r2, #0
50011d68:	e3a03000 	mov	r3, #0
50011d6c:	ebffff77 	bl	50011b50 <update_line>
50011d70:	e51b3010 	ldr	r3, [fp, #-16]
50011d74:	e593301c 	ldr	r3, [r3, #28]
50011d78:	e2432001 	sub	r2, r3, #1
50011d7c:	e51b3010 	ldr	r3, [fp, #-16]
50011d80:	e583201c 	str	r2, [r3, #28]
50011d84:	e51b3010 	ldr	r3, [fp, #-16]
50011d88:	e593200c 	ldr	r2, [r3, #12]
50011d8c:	e51b3014 	ldr	r3, [fp, #-20]
50011d90:	e1a03103 	lsl	r3, r3, #2
50011d94:	e0823003 	add	r3, r2, r3
50011d98:	e5932000 	ldr	r2, [r3]
50011d9c:	e51b3010 	ldr	r3, [fp, #-16]
50011da0:	e5933018 	ldr	r3, [r3, #24]
50011da4:	e1520003 	cmp	r2, r3
50011da8:	1a000002 	bne	50011db8 <delete_this_line+0x118>
50011dac:	e51b0010 	ldr	r0, [fp, #-16]
50011db0:	e51b1014 	ldr	r1, [fp, #-20]
50011db4:	ebffffb9 	bl	50011ca0 <delete_this_line>
50011db8:	e3a03000 	mov	r3, #0
50011dbc:	e1a00003 	mov	r0, r3
50011dc0:	e24bd004 	sub	sp, fp, #4
50011dc4:	e8bd8800 	pop	{fp, pc}

50011dc8 <down_task>:
50011dc8:	e92d4800 	push	{fp, lr}
50011dcc:	e28db004 	add	fp, sp, #4
50011dd0:	e24dd010 	sub	sp, sp, #16
50011dd4:	e50b0010 	str	r0, [fp, #-16]
50011dd8:	e3003172 	movw	r3, #370	; 0x172
50011ddc:	e50b3008 	str	r3, [fp, #-8]
50011de0:	e3a03000 	mov	r3, #0
50011de4:	e50b300c 	str	r3, [fp, #-12]
50011de8:	e51b0010 	ldr	r0, [fp, #-16]
50011dec:	e3a01002 	mov	r1, #2
50011df0:	eb0000ca 	bl	50012120 <rb_send_msg>
50011df4:	e1a03000 	mov	r3, r0
50011df8:	e3730002 	cmn	r3, #2
50011dfc:	1a000000 	bne	50011e04 <down_task+0x3c>
50011e00:	ea00001f 	b	50011e84 <down_task+0xbc>
50011e04:	e51b0008 	ldr	r0, [fp, #-8]
50011e08:	ebfffad4 	bl	50010960 <os_task_delay>
50011e0c:	e51b300c 	ldr	r3, [fp, #-12]
50011e10:	e2833001 	add	r3, r3, #1
50011e14:	e50b300c 	str	r3, [fp, #-12]
50011e18:	e51b100c 	ldr	r1, [fp, #-12]
50011e1c:	e30831b5 	movw	r3, #33205	; 0x81b5
50011e20:	e3413b4e 	movt	r3, #6990	; 0x1b4e
50011e24:	e0c32391 	smull	r2, r3, r1, r3
50011e28:	e1a022c3 	asr	r2, r3, #5
50011e2c:	e1a03fc1 	asr	r3, r1, #31
50011e30:	e0633002 	rsb	r3, r3, r2
50011e34:	e1a03103 	lsl	r3, r3, #2
50011e38:	e1a02103 	lsl	r2, r3, #2
50011e3c:	e0833002 	add	r3, r3, r2
50011e40:	e1a02203 	lsl	r2, r3, #4
50011e44:	e0632002 	rsb	r2, r3, r2
50011e48:	e0623001 	rsb	r3, r2, r1
50011e4c:	e3530000 	cmp	r3, #0
50011e50:	1a00000a 	bne	50011e80 <down_task+0xb8>
50011e54:	e51b2008 	ldr	r2, [fp, #-8]
50011e58:	e1a03002 	mov	r3, r2
50011e5c:	e1a03183 	lsl	r3, r3, #3
50011e60:	e0831002 	add	r1, r3, r2
50011e64:	e3063667 	movw	r3, #26215	; 0x6667
50011e68:	e3463666 	movt	r3, #26214	; 0x6666
50011e6c:	e0c32391 	smull	r2, r3, r1, r3
50011e70:	e1a02143 	asr	r2, r3, #2
50011e74:	e1a03fc1 	asr	r3, r1, #31
50011e78:	e0633002 	rsb	r3, r3, r2
50011e7c:	e50b3008 	str	r3, [fp, #-8]
50011e80:	eaffffd8 	b	50011de8 <down_task+0x20>
50011e84:	e24bd004 	sub	sp, fp, #4
50011e88:	e8bd8800 	pop	{fp, pc}

50011e8c <job_task>:
50011e8c:	e92d4800 	push	{fp, lr}
50011e90:	e28db004 	add	fp, sp, #4
50011e94:	e24dd010 	sub	sp, sp, #16
50011e98:	e50b0010 	str	r0, [fp, #-16]
50011e9c:	e3a03000 	mov	r3, #0
50011ea0:	e50b3008 	str	r3, [fp, #-8]
50011ea4:	e51b0010 	ldr	r0, [fp, #-16]
50011ea8:	eb0000ba 	bl	50012198 <rb_recv_msg>
50011eac:	e50b000c 	str	r0, [fp, #-12]
50011eb0:	e51b300c 	ldr	r3, [fp, #-12]
50011eb4:	e3530007 	cmp	r3, #7
50011eb8:	979ff103 	ldrls	pc, [pc, r3, lsl #2]
50011ebc:	ea000030 	b	50011f84 <job_task+0xf8>
50011ec0:	50011f8c 	.word	0x50011f8c
50011ec4:	50011ef8 	.word	0x50011ef8
50011ec8:	50011f04 	.word	0x50011f04
50011ecc:	50011eec 	.word	0x50011eec
50011ed0:	50011ee0 	.word	0x50011ee0
50011ed4:	50011f5c 	.word	0x50011f5c
50011ed8:	50011f30 	.word	0x50011f30
50011edc:	50011f74 	.word	0x50011f74
50011ee0:	e51b0010 	ldr	r0, [fp, #-16]
50011ee4:	ebfffc11 	bl	50010f30 <left>
50011ee8:	ea000026 	b	50011f88 <job_task+0xfc>
50011eec:	e51b0010 	ldr	r0, [fp, #-16]
50011ef0:	ebfffc64 	bl	50011088 <right>
50011ef4:	ea000023 	b	50011f88 <job_task+0xfc>
50011ef8:	e51b0010 	ldr	r0, [fp, #-16]
50011efc:	ebfffd88 	bl	50011524 <turn>
50011f00:	ea000020 	b	50011f88 <job_task+0xfc>
50011f04:	e51b3008 	ldr	r3, [fp, #-8]
50011f08:	e3530000 	cmp	r3, #0
50011f0c:	0a000000 	beq	50011f14 <job_task+0x88>
50011f10:	ea00001c 	b	50011f88 <job_task+0xfc>
50011f14:	e51b0010 	ldr	r0, [fp, #-16]
50011f18:	ebfffcb0 	bl	500111e0 <down>
50011f1c:	e1a03000 	mov	r3, r0
50011f20:	e3730002 	cmn	r3, #2
50011f24:	1a000000 	bne	50011f2c <job_task+0xa0>
50011f28:	ea000018 	b	50011f90 <job_task+0x104>
50011f2c:	ea000015 	b	50011f88 <job_task+0xfc>
50011f30:	e51b3008 	ldr	r3, [fp, #-8]
50011f34:	e3530000 	cmp	r3, #0
50011f38:	0a000000 	beq	50011f40 <job_task+0xb4>
50011f3c:	ea000011 	b	50011f88 <job_task+0xfc>
50011f40:	e51b0010 	ldr	r0, [fp, #-16]
50011f44:	ebfffd06 	bl	50011364 <bottom>
50011f48:	e1a03000 	mov	r3, r0
50011f4c:	e3730002 	cmn	r3, #2
50011f50:	1a000000 	bne	50011f58 <job_task+0xcc>
50011f54:	ea00000d 	b	50011f90 <job_task+0x104>
50011f58:	ea00000a 	b	50011f88 <job_task+0xfc>
50011f5c:	e51b3010 	ldr	r3, [fp, #-16]
50011f60:	e5933030 	ldr	r3, [r3, #48]	; 0x30
50011f64:	e2632001 	rsb	r2, r3, #1
50011f68:	e51b3010 	ldr	r3, [fp, #-16]
50011f6c:	e5832030 	str	r2, [r3, #48]	; 0x30
50011f70:	ea000004 	b	50011f88 <job_task+0xfc>
50011f74:	e51b3008 	ldr	r3, [fp, #-8]
50011f78:	e2633001 	rsb	r3, r3, #1
50011f7c:	e50b3008 	str	r3, [fp, #-8]
50011f80:	ea000000 	b	50011f88 <job_task+0xfc>
50011f84:	e1a00000 	nop			; (mov r0, r0)
50011f88:	eaffffc5 	b	50011ea4 <job_task+0x18>
50011f8c:	e1a00000 	nop			; (mov r0, r0)
50011f90:	e51b0010 	ldr	r0, [fp, #-16]
50011f94:	eb000042 	bl	500120a4 <quit>
50011f98:	e24bd004 	sub	sp, fp, #4
50011f9c:	e8bd8800 	pop	{fp, pc}

50011fa0 <auto_task>:
50011fa0:	e92d4800 	push	{fp, lr}
50011fa4:	e28db004 	add	fp, sp, #4
50011fa8:	e24dd0f0 	sub	sp, sp, #240	; 0xf0
50011fac:	e50b00f0 	str	r0, [fp, #-240]	; 0xf0
50011fb0:	e51b30f0 	ldr	r3, [fp, #-240]	; 0xf0
50011fb4:	e5931034 	ldr	r1, [r3, #52]	; 0x34
50011fb8:	e51b30f0 	ldr	r3, [fp, #-240]	; 0xf0
50011fbc:	e593200c 	ldr	r2, [r3, #12]
50011fc0:	e51b30f0 	ldr	r3, [fp, #-240]	; 0xf0
50011fc4:	e5933014 	ldr	r3, [r3, #20]
50011fc8:	e1a03103 	lsl	r3, r3, #2
50011fcc:	e1a00001 	mov	r0, r1
50011fd0:	e1a01002 	mov	r1, r2
50011fd4:	e1a02003 	mov	r2, r3
50011fd8:	ebffcd40 	bl	500054e0 <memcpy>
50011fdc:	e51b30f0 	ldr	r3, [fp, #-240]	; 0xf0
50011fe0:	e5933034 	ldr	r3, [r3, #52]	; 0x34
50011fe4:	e50b3014 	str	r3, [fp, #-20]
50011fe8:	e51b30f0 	ldr	r3, [fp, #-240]	; 0xf0
50011fec:	e5933010 	ldr	r3, [r3, #16]
50011ff0:	e50b3010 	str	r3, [fp, #-16]
50011ff4:	e51b30f0 	ldr	r3, [fp, #-240]	; 0xf0
50011ff8:	e5933014 	ldr	r3, [r3, #20]
50011ffc:	e50b300c 	str	r3, [fp, #-12]
50012000:	e51b20f0 	ldr	r2, [fp, #-240]	; 0xf0
50012004:	e24b301c 	sub	r3, fp, #28
50012008:	e2822024 	add	r2, r2, #36	; 0x24
5001200c:	e8920003 	ldm	r2, {r0, r1}
50012010:	e8830003 	stm	r3, {r0, r1}
50012014:	e3a03000 	mov	r3, #0
50012018:	e50b3020 	str	r3, [fp, #-32]
5001201c:	e24b1014 	sub	r1, fp, #20
50012020:	e24b201c 	sub	r2, fp, #28
50012024:	e24b30e8 	sub	r3, fp, #232	; 0xe8
50012028:	e1a00001 	mov	r0, r1
5001202c:	e1a01002 	mov	r1, r2
50012030:	e1a02003 	mov	r2, r3
50012034:	ebfff5fb 	bl	5000f828 <find_steps>
50012038:	e3a03000 	mov	r3, #0
5001203c:	e50b3008 	str	r3, [fp, #-8]
50012040:	ea00000e 	b	50012080 <auto_task+0xe0>
50012044:	e51b3008 	ldr	r3, [fp, #-8]
50012048:	e1a03103 	lsl	r3, r3, #2
5001204c:	e24b2004 	sub	r2, fp, #4
50012050:	e0823003 	add	r3, r2, r3
50012054:	e51330e4 	ldr	r3, [r3, #-228]	; 0xe4
50012058:	e51b00f0 	ldr	r0, [fp, #-240]	; 0xf0
5001205c:	e1a01003 	mov	r1, r3
50012060:	eb00002e 	bl	50012120 <rb_send_msg>
50012064:	e1a03000 	mov	r3, r0
50012068:	e3730002 	cmn	r3, #2
5001206c:	1a000000 	bne	50012074 <auto_task+0xd4>
50012070:	ea000006 	b	50012090 <auto_task+0xf0>
50012074:	e51b3008 	ldr	r3, [fp, #-8]
50012078:	e2833001 	add	r3, r3, #1
5001207c:	e50b3008 	str	r3, [fp, #-8]
50012080:	e51b2020 	ldr	r2, [fp, #-32]
50012084:	e51b3008 	ldr	r3, [fp, #-8]
50012088:	e1520003 	cmp	r2, r3
5001208c:	caffffec 	bgt	50012044 <auto_task+0xa4>
50012090:	e51b30f0 	ldr	r3, [fp, #-240]	; 0xf0
50012094:	e3a02000 	mov	r2, #0
50012098:	e5832038 	str	r2, [r3, #56]	; 0x38
5001209c:	e24bd004 	sub	sp, fp, #4
500120a0:	e8bd8800 	pop	{fp, pc}

500120a4 <quit>:
500120a4:	e92d4800 	push	{fp, lr}
500120a8:	e28db004 	add	fp, sp, #4
500120ac:	e24dd008 	sub	sp, sp, #8
500120b0:	e50b0008 	str	r0, [fp, #-8]
500120b4:	e51b3008 	ldr	r3, [fp, #-8]
500120b8:	e593300c 	ldr	r3, [r3, #12]
500120bc:	e1a00003 	mov	r0, r3
500120c0:	ebffbf6c 	bl	50001e78 <memH_free>
500120c4:	e51b3008 	ldr	r3, [fp, #-8]
500120c8:	e5933008 	ldr	r3, [r3, #8]
500120cc:	e1a00003 	mov	r0, r3
500120d0:	ebffbf68 	bl	50001e78 <memH_free>
500120d4:	e51b3008 	ldr	r3, [fp, #-8]
500120d8:	e5933038 	ldr	r3, [r3, #56]	; 0x38
500120dc:	e3530000 	cmp	r3, #0
500120e0:	0a000003 	beq	500120f4 <quit+0x50>
500120e4:	e51b3008 	ldr	r3, [fp, #-8]
500120e8:	e5933038 	ldr	r3, [r3, #56]	; 0x38
500120ec:	e1a00003 	mov	r0, r3
500120f0:	ebfffa30 	bl	500109b8 <os_task_delete>
500120f4:	e51b3008 	ldr	r3, [fp, #-8]
500120f8:	e593302c 	ldr	r3, [r3, #44]	; 0x2c
500120fc:	e1a00003 	mov	r0, r3
50012100:	ebfffa66 	bl	50010aa0 <os_msgQ_delete>
50012104:	e51b3008 	ldr	r3, [fp, #-8]
50012108:	e3a02000 	mov	r2, #0
5001210c:	e583202c 	str	r2, [r3, #44]	; 0x2c
50012110:	e51b0008 	ldr	r0, [fp, #-8]
50012114:	ebffbf57 	bl	50001e78 <memH_free>
50012118:	e24bd004 	sub	sp, fp, #4
5001211c:	e8bd8800 	pop	{fp, pc}

50012120 <rb_send_msg>:
50012120:	e92d4800 	push	{fp, lr}
50012124:	e28db004 	add	fp, sp, #4
50012128:	e24dd010 	sub	sp, sp, #16
5001212c:	e50b0010 	str	r0, [fp, #-16]
50012130:	e50b1014 	str	r1, [fp, #-20]
50012134:	e3a03000 	mov	r3, #0
50012138:	e50b3008 	str	r3, [fp, #-8]
5001213c:	e51b3010 	ldr	r3, [fp, #-16]
50012140:	e593202c 	ldr	r2, [r3, #44]	; 0x2c
50012144:	e24b3014 	sub	r3, fp, #20
50012148:	e1a00002 	mov	r0, r2
5001214c:	e1a01003 	mov	r1, r3
50012150:	e3a02004 	mov	r2, #4
50012154:	ebfffa2e 	bl	50010a14 <os_msgQ_send>
50012158:	e50b000c 	str	r0, [fp, #-12]
5001215c:	e51b300c 	ldr	r3, [fp, #-12]
50012160:	e3730001 	cmn	r3, #1
50012164:	1a000002 	bne	50012174 <rb_send_msg+0x54>
50012168:	e3e03000 	mvn	r3, #0
5001216c:	e50b3008 	str	r3, [fp, #-8]
50012170:	ea000004 	b	50012188 <rb_send_msg+0x68>
50012174:	e51b300c 	ldr	r3, [fp, #-12]
50012178:	e3730002 	cmn	r3, #2
5001217c:	1a000001 	bne	50012188 <rb_send_msg+0x68>
50012180:	e3e03001 	mvn	r3, #1
50012184:	e50b3008 	str	r3, [fp, #-8]
50012188:	e51b3008 	ldr	r3, [fp, #-8]
5001218c:	e1a00003 	mov	r0, r3
50012190:	e24bd004 	sub	sp, fp, #4
50012194:	e8bd8800 	pop	{fp, pc}

50012198 <rb_recv_msg>:
50012198:	e92d4800 	push	{fp, lr}
5001219c:	e28db004 	add	fp, sp, #4
500121a0:	e24dd010 	sub	sp, sp, #16
500121a4:	e50b0010 	str	r0, [fp, #-16]
500121a8:	e51b3010 	ldr	r3, [fp, #-16]
500121ac:	e593202c 	ldr	r2, [r3, #44]	; 0x2c
500121b0:	e24b3008 	sub	r3, fp, #8
500121b4:	e1a00002 	mov	r0, r2
500121b8:	e1a01003 	mov	r1, r3
500121bc:	e3a02004 	mov	r2, #4
500121c0:	ebfffa28 	bl	50010a68 <os_msgQ_receive>
500121c4:	e51b3008 	ldr	r3, [fp, #-8]
500121c8:	e1a00003 	mov	r0, r3
500121cc:	e24bd004 	sub	sp, fp, #4
500121d0:	e8bd8800 	pop	{fp, pc}

500121d4 <snake_cmd_init>:
500121d4:	e92d4800 	push	{fp, lr}
500121d8:	e28db004 	add	fp, sp, #4
500121dc:	e307078c 	movw	r0, #30604	; 0x778c
500121e0:	e3450001 	movt	r0, #20481	; 0x5001
500121e4:	ebffbaad 	bl	50000ca0 <cmd_add>
500121e8:	e8bd8800 	pop	{fp, pc}

500121ec <os_task_create>:
500121ec:	e92d4800 	push	{fp, lr}
500121f0:	e28db004 	add	fp, sp, #4
500121f4:	e24dd018 	sub	sp, sp, #24
500121f8:	e50b0008 	str	r0, [fp, #-8]
500121fc:	e50b100c 	str	r1, [fp, #-12]
50012200:	e50b3014 	str	r3, [fp, #-20]
50012204:	e1a03002 	mov	r3, r2
50012208:	e54b300d 	strb	r3, [fp, #-13]
5001220c:	e55be00d 	ldrb	lr, [fp, #-13]
50012210:	e51bc014 	ldr	ip, [fp, #-20]
50012214:	e59b2004 	ldr	r2, [fp, #4]
50012218:	e59b3008 	ldr	r3, [fp, #8]
5001221c:	e58d2000 	str	r2, [sp]
50012220:	e58d3004 	str	r3, [sp, #4]
50012224:	e51b0008 	ldr	r0, [fp, #-8]
50012228:	e51b100c 	ldr	r1, [fp, #-12]
5001222c:	e1a0200e 	mov	r2, lr
50012230:	e1a0300c 	mov	r3, ip
50012234:	ebffd70f 	bl	50007e78 <task_create>
50012238:	e1a03000 	mov	r3, r0
5001223c:	e1a00003 	mov	r0, r3
50012240:	e24bd004 	sub	sp, fp, #4
50012244:	e8bd8800 	pop	{fp, pc}

50012248 <os_task_delay>:
50012248:	e92d4800 	push	{fp, lr}
5001224c:	e28db004 	add	fp, sp, #4
50012250:	e24dd010 	sub	sp, sp, #16
50012254:	e50b0010 	str	r0, [fp, #-16]
50012258:	e51b3010 	ldr	r3, [fp, #-16]
5001225c:	e1a03103 	lsl	r3, r3, #2
50012260:	e1a02103 	lsl	r2, r3, #2
50012264:	e0833002 	add	r3, r3, r2
50012268:	e1a02103 	lsl	r2, r3, #2
5001226c:	e0831002 	add	r1, r3, r2
50012270:	e3043dd3 	movw	r3, #19923	; 0x4dd3
50012274:	e3413062 	movt	r3, #4194	; 0x1062
50012278:	e0c32391 	smull	r2, r3, r1, r3
5001227c:	e1a02343 	asr	r2, r3, #6
50012280:	e1a03fc1 	asr	r3, r1, #31
50012284:	e0633002 	rsb	r3, r3, r2
50012288:	e50b3008 	str	r3, [fp, #-8]
5001228c:	e51b3008 	ldr	r3, [fp, #-8]
50012290:	e1a00003 	mov	r0, r3
50012294:	ebffbbe5 	bl	50001230 <delayQ_delay>
50012298:	e24bd004 	sub	sp, fp, #4
5001229c:	e8bd8800 	pop	{fp, pc}

500122a0 <os_msgQ_create>:
500122a0:	e92d4800 	push	{fp, lr}
500122a4:	e28db004 	add	fp, sp, #4
500122a8:	e24dd008 	sub	sp, sp, #8
500122ac:	e50b0008 	str	r0, [fp, #-8]
500122b0:	e50b100c 	str	r1, [fp, #-12]
500122b4:	e51b2008 	ldr	r2, [fp, #-8]
500122b8:	e51b300c 	ldr	r3, [fp, #-12]
500122bc:	e3a00000 	mov	r0, #0
500122c0:	e1a01002 	mov	r1, r2
500122c4:	e1a02003 	mov	r2, r3
500122c8:	ebffc0b8 	bl	500025b0 <msgQ_init>
500122cc:	e1a03000 	mov	r3, r0
500122d0:	e1a00003 	mov	r0, r3
500122d4:	e24bd004 	sub	sp, fp, #4
500122d8:	e8bd8800 	pop	{fp, pc}

500122dc <os_msgQ_send>:
500122dc:	e92d4800 	push	{fp, lr}
500122e0:	e28db004 	add	fp, sp, #4
500122e4:	e24dd010 	sub	sp, sp, #16
500122e8:	e50b0008 	str	r0, [fp, #-8]
500122ec:	e50b100c 	str	r1, [fp, #-12]
500122f0:	e50b2010 	str	r2, [fp, #-16]
500122f4:	e51b3008 	ldr	r3, [fp, #-8]
500122f8:	e3530000 	cmp	r3, #0
500122fc:	1a000001 	bne	50012308 <os_msgQ_send+0x2c>
50012300:	e3e03001 	mvn	r3, #1
50012304:	ea000006 	b	50012324 <os_msgQ_send+0x48>
50012308:	e51b3010 	ldr	r3, [fp, #-16]
5001230c:	e51b0008 	ldr	r0, [fp, #-8]
50012310:	e51b100c 	ldr	r1, [fp, #-12]
50012314:	e1a02003 	mov	r2, r3
50012318:	e3a03000 	mov	r3, #0
5001231c:	ebffc0db 	bl	50002690 <msgQ_send>
50012320:	e3a03000 	mov	r3, #0
50012324:	e1a00003 	mov	r0, r3
50012328:	e24bd004 	sub	sp, fp, #4
5001232c:	e8bd8800 	pop	{fp, pc}

50012330 <os_msgQ_receive>:
50012330:	e92d4800 	push	{fp, lr}
50012334:	e28db004 	add	fp, sp, #4
50012338:	e24dd010 	sub	sp, sp, #16
5001233c:	e50b0008 	str	r0, [fp, #-8]
50012340:	e50b100c 	str	r1, [fp, #-12]
50012344:	e50b2010 	str	r2, [fp, #-16]
50012348:	e51b3010 	ldr	r3, [fp, #-16]
5001234c:	e51b0008 	ldr	r0, [fp, #-8]
50012350:	e51b100c 	ldr	r1, [fp, #-12]
50012354:	e1a02003 	mov	r2, r3
50012358:	e3e03000 	mvn	r3, #0
5001235c:	ebffc140 	bl	50002864 <msgQ_receive>
50012360:	e24bd004 	sub	sp, fp, #4
50012364:	e8bd8800 	pop	{fp, pc}

50012368 <os_msgQ_delete>:
50012368:	e92d4800 	push	{fp, lr}
5001236c:	e28db004 	add	fp, sp, #4
50012370:	e24dd008 	sub	sp, sp, #8
50012374:	e50b0008 	str	r0, [fp, #-8]
50012378:	e51b0008 	ldr	r0, [fp, #-8]
5001237c:	ebffc1a6 	bl	50002a1c <msgQ_delete>
50012380:	e24bd004 	sub	sp, fp, #4
50012384:	e8bd8800 	pop	{fp, pc}

50012388 <_show_node>:
50012388:	e92d4800 	push	{fp, lr}
5001238c:	e28db004 	add	fp, sp, #4
50012390:	e24dd018 	sub	sp, sp, #24
50012394:	e50b0010 	str	r0, [fp, #-16]
50012398:	e50b1014 	str	r1, [fp, #-20]
5001239c:	e50b2018 	str	r2, [fp, #-24]
500123a0:	e51b3018 	ldr	r3, [fp, #-24]
500123a4:	e3530000 	cmp	r3, #0
500123a8:	aa000014 	bge	50012400 <_show_node+0x78>
500123ac:	e3a03024 	mov	r3, #36	; 0x24
500123b0:	e50b3008 	str	r3, [fp, #-8]
500123b4:	e30701e4 	movw	r0, #29156	; 0x71e4
500123b8:	e3450001 	movt	r0, #20481	; 0x5001
500123bc:	e3a01001 	mov	r1, #1
500123c0:	e51b2008 	ldr	r2, [fp, #-8]
500123c4:	ebffc8ba 	bl	500046b4 <serial_printf>
500123c8:	e30701f0 	movw	r0, #29168	; 0x71f0
500123cc:	e3450001 	movt	r0, #20481	; 0x5001
500123d0:	ebffc8b7 	bl	500046b4 <serial_printf>
500123d4:	e30701f8 	movw	r0, #29176	; 0x71f8
500123d8:	e3450001 	movt	r0, #20481	; 0x5001
500123dc:	ebffc8b4 	bl	500046b4 <serial_printf>
500123e0:	e51b3018 	ldr	r3, [fp, #-24]
500123e4:	e3c33102 	bic	r3, r3, #-2147483648	; 0x80000000
500123e8:	e3070200 	movw	r0, #29184	; 0x7200
500123ec:	e3450001 	movt	r0, #20481	; 0x5001
500123f0:	e1a01003 	mov	r1, r3
500123f4:	ebffc8ae 	bl	500046b4 <serial_printf>
500123f8:	e51b3018 	ldr	r3, [fp, #-24]
500123fc:	ea000016 	b	5001245c <_show_node+0xd4>
50012400:	e51b3014 	ldr	r3, [fp, #-20]
50012404:	e2832002 	add	r2, r3, #2
50012408:	e51b3010 	ldr	r3, [fp, #-16]
5001240c:	e1a03083 	lsl	r3, r3, #1
50012410:	e2833003 	add	r3, r3, #3
50012414:	e30701e4 	movw	r0, #29156	; 0x71e4
50012418:	e3450001 	movt	r0, #20481	; 0x5001
5001241c:	e1a01002 	mov	r1, r2
50012420:	e1a02003 	mov	r2, r3
50012424:	ebffc8a2 	bl	500046b4 <serial_printf>
50012428:	e307020c 	movw	r0, #29196	; 0x720c
5001242c:	e3450001 	movt	r0, #20481	; 0x5001
50012430:	ebffc89f 	bl	500046b4 <serial_printf>
50012434:	e51b3018 	ldr	r3, [fp, #-24]
50012438:	e2833028 	add	r3, r3, #40	; 0x28
5001243c:	e3070214 	movw	r0, #29204	; 0x7214
50012440:	e3450001 	movt	r0, #20481	; 0x5001
50012444:	e1a01003 	mov	r1, r3
50012448:	ebffc899 	bl	500046b4 <serial_printf>
5001244c:	e307021c 	movw	r0, #29212	; 0x721c
50012450:	e3450001 	movt	r0, #20481	; 0x5001
50012454:	ebffc896 	bl	500046b4 <serial_printf>
50012458:	e51b3018 	ldr	r3, [fp, #-24]
5001245c:	e1a00003 	mov	r0, r3
50012460:	e24bd004 	sub	sp, fp, #4
50012464:	e8bd8800 	pop	{fp, pc}

50012468 <_draw_frame>:
50012468:	e92d4800 	push	{fp, lr}
5001246c:	e28db004 	add	fp, sp, #4
50012470:	e24dd008 	sub	sp, sp, #8
50012474:	e30701e4 	movw	r0, #29156	; 0x71e4
50012478:	e3450001 	movt	r0, #20481	; 0x5001
5001247c:	e3a01001 	mov	r1, #1
50012480:	e3a02002 	mov	r2, #2
50012484:	ebffc88a 	bl	500046b4 <serial_printf>
50012488:	e3a0002b 	mov	r0, #43	; 0x2b
5001248c:	ebffc806 	bl	500044ac <serial_putc>
50012490:	e3a03000 	mov	r3, #0
50012494:	e50b3008 	str	r3, [fp, #-8]
50012498:	ea000004 	b	500124b0 <_draw_frame+0x48>
5001249c:	e3a0002d 	mov	r0, #45	; 0x2d
500124a0:	ebffc801 	bl	500044ac <serial_putc>
500124a4:	e51b3008 	ldr	r3, [fp, #-8]
500124a8:	e2833001 	add	r3, r3, #1
500124ac:	e50b3008 	str	r3, [fp, #-8]
500124b0:	e51b3008 	ldr	r3, [fp, #-8]
500124b4:	e353004b 	cmp	r3, #75	; 0x4b
500124b8:	dafffff7 	ble	5001249c <_draw_frame+0x34>
500124bc:	e3a0002b 	mov	r0, #43	; 0x2b
500124c0:	ebffc7f9 	bl	500044ac <serial_putc>
500124c4:	e30701e4 	movw	r0, #29156	; 0x71e4
500124c8:	e3450001 	movt	r0, #20481	; 0x5001
500124cc:	e3a01019 	mov	r1, #25
500124d0:	e3a02002 	mov	r2, #2
500124d4:	ebffc876 	bl	500046b4 <serial_printf>
500124d8:	e3a0002b 	mov	r0, #43	; 0x2b
500124dc:	ebffc7f2 	bl	500044ac <serial_putc>
500124e0:	e3a03000 	mov	r3, #0
500124e4:	e50b3008 	str	r3, [fp, #-8]
500124e8:	ea000004 	b	50012500 <_draw_frame+0x98>
500124ec:	e3a0002d 	mov	r0, #45	; 0x2d
500124f0:	ebffc7ed 	bl	500044ac <serial_putc>
500124f4:	e51b3008 	ldr	r3, [fp, #-8]
500124f8:	e2833001 	add	r3, r3, #1
500124fc:	e50b3008 	str	r3, [fp, #-8]
50012500:	e51b3008 	ldr	r3, [fp, #-8]
50012504:	e353004b 	cmp	r3, #75	; 0x4b
50012508:	dafffff7 	ble	500124ec <_draw_frame+0x84>
5001250c:	e3a0002b 	mov	r0, #43	; 0x2b
50012510:	ebffc7e5 	bl	500044ac <serial_putc>
50012514:	e3a03000 	mov	r3, #0
50012518:	e50b3008 	str	r3, [fp, #-8]
5001251c:	ea000014 	b	50012574 <_draw_frame+0x10c>
50012520:	e51b3008 	ldr	r3, [fp, #-8]
50012524:	e2833002 	add	r3, r3, #2
50012528:	e30701e4 	movw	r0, #29156	; 0x71e4
5001252c:	e3450001 	movt	r0, #20481	; 0x5001
50012530:	e1a01003 	mov	r1, r3
50012534:	e3a02002 	mov	r2, #2
50012538:	ebffc85d 	bl	500046b4 <serial_printf>
5001253c:	e3a0007c 	mov	r0, #124	; 0x7c
50012540:	ebffc7d9 	bl	500044ac <serial_putc>
50012544:	e51b3008 	ldr	r3, [fp, #-8]
50012548:	e2833002 	add	r3, r3, #2
5001254c:	e30701e4 	movw	r0, #29156	; 0x71e4
50012550:	e3450001 	movt	r0, #20481	; 0x5001
50012554:	e1a01003 	mov	r1, r3
50012558:	e3a0204f 	mov	r2, #79	; 0x4f
5001255c:	ebffc854 	bl	500046b4 <serial_printf>
50012560:	e3a0007c 	mov	r0, #124	; 0x7c
50012564:	ebffc7d0 	bl	500044ac <serial_putc>
50012568:	e51b3008 	ldr	r3, [fp, #-8]
5001256c:	e2833001 	add	r3, r3, #1
50012570:	e50b3008 	str	r3, [fp, #-8]
50012574:	e51b3008 	ldr	r3, [fp, #-8]
50012578:	e3530016 	cmp	r3, #22
5001257c:	daffffe7 	ble	50012520 <_draw_frame+0xb8>
50012580:	e24bd004 	sub	sp, fp, #4
50012584:	e8bd8800 	pop	{fp, pc}

50012588 <snake_main>:
50012588:	e92d4800 	push	{fp, lr}
5001258c:	e28db004 	add	fp, sp, #4
50012590:	e24dd008 	sub	sp, sp, #8
50012594:	e50b0008 	str	r0, [fp, #-8]
50012598:	e50b100c 	str	r1, [fp, #-12]
5001259c:	e3070220 	movw	r0, #29216	; 0x7220
500125a0:	e3450001 	movt	r0, #20481	; 0x5001
500125a4:	ebffc842 	bl	500046b4 <serial_printf>
500125a8:	e3070228 	movw	r0, #29224	; 0x7228
500125ac:	e3450001 	movt	r0, #20481	; 0x5001
500125b0:	ebffc83f 	bl	500046b4 <serial_printf>
500125b4:	ebffffab 	bl	50012468 <_draw_frame>
500125b8:	eb000266 	bl	50012f58 <_the_game>
500125bc:	e3070230 	movw	r0, #29232	; 0x7230
500125c0:	e3450001 	movt	r0, #20481	; 0x5001
500125c4:	ebffc83a 	bl	500046b4 <serial_printf>
500125c8:	e30701f0 	movw	r0, #29168	; 0x71f0
500125cc:	e3450001 	movt	r0, #20481	; 0x5001
500125d0:	ebffc837 	bl	500046b4 <serial_printf>
500125d4:	e3070220 	movw	r0, #29216	; 0x7220
500125d8:	e3450001 	movt	r0, #20481	; 0x5001
500125dc:	ebffc834 	bl	500046b4 <serial_printf>
500125e0:	e3070238 	movw	r0, #29240	; 0x7238
500125e4:	e3450001 	movt	r0, #20481	; 0x5001
500125e8:	ebffc831 	bl	500046b4 <serial_printf>
500125ec:	e24bd004 	sub	sp, fp, #4
500125f0:	e8bd8800 	pop	{fp, pc}

500125f4 <_send_msg>:
500125f4:	e92d4800 	push	{fp, lr}
500125f8:	e28db004 	add	fp, sp, #4
500125fc:	e24dd010 	sub	sp, sp, #16
50012600:	e50b0010 	str	r0, [fp, #-16]
50012604:	e3a03000 	mov	r3, #0
50012608:	e50b3008 	str	r3, [fp, #-8]
5001260c:	e30c3ef8 	movw	r3, #52984	; 0xcef8
50012610:	e3453001 	movt	r3, #20481	; 0x5001
50012614:	e5932000 	ldr	r2, [r3]
50012618:	e24b3010 	sub	r3, fp, #16
5001261c:	e1a00002 	mov	r0, r2
50012620:	e1a01003 	mov	r1, r3
50012624:	e3a02004 	mov	r2, #4
50012628:	ebffff2b 	bl	500122dc <os_msgQ_send>
5001262c:	e50b000c 	str	r0, [fp, #-12]
50012630:	e51b300c 	ldr	r3, [fp, #-12]
50012634:	e3730001 	cmn	r3, #1
50012638:	1a000002 	bne	50012648 <_send_msg+0x54>
5001263c:	e3e03000 	mvn	r3, #0
50012640:	e50b3008 	str	r3, [fp, #-8]
50012644:	ea000004 	b	5001265c <_send_msg+0x68>
50012648:	e51b300c 	ldr	r3, [fp, #-12]
5001264c:	e3730002 	cmn	r3, #2
50012650:	1a000001 	bne	5001265c <_send_msg+0x68>
50012654:	e3e03001 	mvn	r3, #1
50012658:	e50b3008 	str	r3, [fp, #-8]
5001265c:	e51b3008 	ldr	r3, [fp, #-8]
50012660:	e1a00003 	mov	r0, r3
50012664:	e24bd004 	sub	sp, fp, #4
50012668:	e8bd8800 	pop	{fp, pc}

5001266c <_recv_msg>:
5001266c:	e92d4800 	push	{fp, lr}
50012670:	e28db004 	add	fp, sp, #4
50012674:	e24dd008 	sub	sp, sp, #8
50012678:	e30c3ef8 	movw	r3, #52984	; 0xcef8
5001267c:	e3453001 	movt	r3, #20481	; 0x5001
50012680:	e5932000 	ldr	r2, [r3]
50012684:	e24b3008 	sub	r3, fp, #8
50012688:	e1a00002 	mov	r0, r2
5001268c:	e1a01003 	mov	r1, r3
50012690:	e3a02004 	mov	r2, #4
50012694:	ebffff25 	bl	50012330 <os_msgQ_receive>
50012698:	e51b3008 	ldr	r3, [fp, #-8]
5001269c:	e1a00003 	mov	r0, r3
500126a0:	e24bd004 	sub	sp, fp, #4
500126a4:	e8bd8800 	pop	{fp, pc}

500126a8 <_quit>:
500126a8:	e92d4800 	push	{fp, lr}
500126ac:	e28db004 	add	fp, sp, #4
500126b0:	e24dd008 	sub	sp, sp, #8
500126b4:	e30c0ee0 	movw	r0, #52960	; 0xcee0
500126b8:	e3450001 	movt	r0, #20481	; 0x5001
500126bc:	ebffbbab 	bl	50001570 <dlist_get>
500126c0:	e50b0008 	str	r0, [fp, #-8]
500126c4:	ea000005 	b	500126e0 <_quit+0x38>
500126c8:	e51b0008 	ldr	r0, [fp, #-8]
500126cc:	ebffbde9 	bl	50001e78 <memH_free>
500126d0:	e30c0ee0 	movw	r0, #52960	; 0xcee0
500126d4:	e3450001 	movt	r0, #20481	; 0x5001
500126d8:	ebffbba4 	bl	50001570 <dlist_get>
500126dc:	e50b0008 	str	r0, [fp, #-8]
500126e0:	e51b3008 	ldr	r3, [fp, #-8]
500126e4:	e3530000 	cmp	r3, #0
500126e8:	1afffff6 	bne	500126c8 <_quit+0x20>
500126ec:	e30c3ef8 	movw	r3, #52984	; 0xcef8
500126f0:	e3453001 	movt	r3, #20481	; 0x5001
500126f4:	e5933000 	ldr	r3, [r3]
500126f8:	e1a00003 	mov	r0, r3
500126fc:	ebffff19 	bl	50012368 <os_msgQ_delete>
50012700:	e30c3ef8 	movw	r3, #52984	; 0xcef8
50012704:	e3453001 	movt	r3, #20481	; 0x5001
50012708:	e3a02000 	mov	r2, #0
5001270c:	e5832000 	str	r2, [r3]
50012710:	e24bd004 	sub	sp, fp, #4
50012714:	e8bd8800 	pop	{fp, pc}

50012718 <_is_occupied>:
50012718:	e52db004 	push	{fp}		; (str fp, [sp, #-4]!)
5001271c:	e28db000 	add	fp, sp, #0
50012720:	e24dd014 	sub	sp, sp, #20
50012724:	e1a02000 	mov	r2, r0
50012728:	e1a03001 	mov	r3, r1
5001272c:	e14b20be 	strh	r2, [fp, #-14]
50012730:	e14b31b0 	strh	r3, [fp, #-16]
50012734:	e30c3ee0 	movw	r3, #52960	; 0xcee0
50012738:	e3453001 	movt	r3, #20481	; 0x5001
5001273c:	e5933000 	ldr	r3, [r3]
50012740:	e50b3008 	str	r3, [fp, #-8]
50012744:	ea000010 	b	5001278c <_is_occupied+0x74>
50012748:	e51b3008 	ldr	r3, [fp, #-8]
5001274c:	e1d330b8 	ldrh	r3, [r3, #8]
50012750:	e15b20fe 	ldrsh	r2, [fp, #-14]
50012754:	e6bf3073 	sxth	r3, r3
50012758:	e1520003 	cmp	r2, r3
5001275c:	1a000007 	bne	50012780 <_is_occupied+0x68>
50012760:	e51b3008 	ldr	r3, [fp, #-8]
50012764:	e1d330ba 	ldrh	r3, [r3, #10]
50012768:	e15b21f0 	ldrsh	r2, [fp, #-16]
5001276c:	e6bf3073 	sxth	r3, r3
50012770:	e1520003 	cmp	r2, r3
50012774:	1a000001 	bne	50012780 <_is_occupied+0x68>
50012778:	e3a03001 	mov	r3, #1
5001277c:	ea000006 	b	5001279c <_is_occupied+0x84>
50012780:	e51b3008 	ldr	r3, [fp, #-8]
50012784:	e5933000 	ldr	r3, [r3]
50012788:	e50b3008 	str	r3, [fp, #-8]
5001278c:	e51b3008 	ldr	r3, [fp, #-8]
50012790:	e3530000 	cmp	r3, #0
50012794:	1affffeb 	bne	50012748 <_is_occupied+0x30>
50012798:	e3a03000 	mov	r3, #0
5001279c:	e1a00003 	mov	r0, r3
500127a0:	e24bd000 	sub	sp, fp, #0
500127a4:	e49db004 	pop	{fp}		; (ldr fp, [sp], #4)
500127a8:	e12fff1e 	bx	lr

500127ac <_is_food>:
500127ac:	e52db004 	push	{fp}		; (str fp, [sp, #-4]!)
500127b0:	e28db000 	add	fp, sp, #0
500127b4:	e24dd00c 	sub	sp, sp, #12
500127b8:	e1a02000 	mov	r2, r0
500127bc:	e1a03001 	mov	r3, r1
500127c0:	e14b20b6 	strh	r2, [fp, #-6]
500127c4:	e14b30b8 	strh	r3, [fp, #-8]
500127c8:	e30c3ee8 	movw	r3, #52968	; 0xcee8
500127cc:	e3453001 	movt	r3, #20481	; 0x5001
500127d0:	e1d330b8 	ldrh	r3, [r3, #8]
500127d4:	e15b20f6 	ldrsh	r2, [fp, #-6]
500127d8:	e6bf3073 	sxth	r3, r3
500127dc:	e1520003 	cmp	r2, r3
500127e0:	1a000008 	bne	50012808 <_is_food+0x5c>
500127e4:	e30c3ee8 	movw	r3, #52968	; 0xcee8
500127e8:	e3453001 	movt	r3, #20481	; 0x5001
500127ec:	e1d330ba 	ldrh	r3, [r3, #10]
500127f0:	e15b20f8 	ldrsh	r2, [fp, #-8]
500127f4:	e6bf3073 	sxth	r3, r3
500127f8:	e1520003 	cmp	r2, r3
500127fc:	1a000001 	bne	50012808 <_is_food+0x5c>
50012800:	e3a03001 	mov	r3, #1
50012804:	ea000000 	b	5001280c <_is_food+0x60>
50012808:	e3a03000 	mov	r3, #0
5001280c:	e1a00003 	mov	r0, r3
50012810:	e24bd000 	sub	sp, fp, #0
50012814:	e49db004 	pop	{fp}		; (ldr fp, [sp], #4)
50012818:	e12fff1e 	bx	lr

5001281c <_create_food>:
5001281c:	e92d4800 	push	{fp, lr}
50012820:	e28db004 	add	fp, sp, #4
50012824:	e24dd008 	sub	sp, sp, #8
50012828:	ebffcebe 	bl	50006328 <rand>
5001282c:	e1a01000 	mov	r1, r0
50012830:	e3013af3 	movw	r3, #6899	; 0x1af3
50012834:	e3463bca 	movt	r3, #27594	; 0x6bca
50012838:	e0c32391 	smull	r2, r3, r1, r3
5001283c:	e1a02243 	asr	r2, r3, #4
50012840:	e1a03fc1 	asr	r3, r1, #31
50012844:	e0632002 	rsb	r2, r3, r2
50012848:	e1a03002 	mov	r3, r2
5001284c:	e1a03103 	lsl	r3, r3, #2
50012850:	e1a00103 	lsl	r0, r3, #2
50012854:	e0833000 	add	r3, r3, r0
50012858:	e0623003 	rsb	r3, r2, r3
5001285c:	e1a03083 	lsl	r3, r3, #1
50012860:	e0632001 	rsb	r2, r3, r1
50012864:	e14b20b6 	strh	r2, [fp, #-6]
50012868:	ebffceae 	bl	50006328 <rand>
5001286c:	e1a01000 	mov	r1, r0
50012870:	e30432c9 	movw	r3, #17097	; 0x42c9
50012874:	e34b3216 	movt	r3, #45590	; 0xb216
50012878:	e0c32391 	smull	r2, r3, r1, r3
5001287c:	e0813003 	add	r3, r1, r3
50012880:	e1a02243 	asr	r2, r3, #4
50012884:	e1a03fc1 	asr	r3, r1, #31
50012888:	e0632002 	rsb	r2, r3, r2
5001288c:	e1a00002 	mov	r0, r2
50012890:	e1a03180 	lsl	r3, r0, #3
50012894:	e1a00003 	mov	r0, r3
50012898:	e1a03100 	lsl	r3, r0, #2
5001289c:	e0603003 	rsb	r3, r0, r3
500128a0:	e0623003 	rsb	r3, r2, r3
500128a4:	e0632001 	rsb	r2, r3, r1
500128a8:	e14b20b8 	strh	r2, [fp, #-8]
500128ac:	e15b20f6 	ldrsh	r2, [fp, #-6]
500128b0:	e15b30f8 	ldrsh	r3, [fp, #-8]
500128b4:	e1a00002 	mov	r0, r2
500128b8:	e1a01003 	mov	r1, r3
500128bc:	ebffff95 	bl	50012718 <_is_occupied>
500128c0:	e1a03000 	mov	r3, r0
500128c4:	e3530000 	cmp	r3, #0
500128c8:	1affffd6 	bne	50012828 <_create_food+0xc>
500128cc:	e30c3ee8 	movw	r3, #52968	; 0xcee8
500128d0:	e3453001 	movt	r3, #20481	; 0x5001
500128d4:	e15b20b6 	ldrh	r2, [fp, #-6]
500128d8:	e1c320b8 	strh	r2, [r3, #8]
500128dc:	e30c3ee8 	movw	r3, #52968	; 0xcee8
500128e0:	e3453001 	movt	r3, #20481	; 0x5001
500128e4:	e15b20b8 	ldrh	r2, [fp, #-8]
500128e8:	e1c320ba 	strh	r2, [r3, #10]
500128ec:	e15b20f6 	ldrsh	r2, [fp, #-6]
500128f0:	e15b30f8 	ldrsh	r3, [fp, #-8]
500128f4:	e1a00002 	mov	r0, r2
500128f8:	e1a01003 	mov	r1, r3
500128fc:	e3a02002 	mov	r2, #2
50012900:	ebfffea0 	bl	50012388 <_show_node>
50012904:	e24bd004 	sub	sp, fp, #4
50012908:	e8bd8800 	pop	{fp, pc}

5001290c <_go_ahead>:
5001290c:	e92d4800 	push	{fp, lr}
50012910:	e28db004 	add	fp, sp, #4
50012914:	e24dd018 	sub	sp, sp, #24
50012918:	e50b0018 	str	r0, [fp, #-24]
5001291c:	e30c3ee0 	movw	r3, #52960	; 0xcee0
50012920:	e3453001 	movt	r3, #20481	; 0x5001
50012924:	e5933000 	ldr	r3, [r3]
50012928:	e50b3008 	str	r3, [fp, #-8]
5001292c:	e30c3ee0 	movw	r3, #52960	; 0xcee0
50012930:	e3453001 	movt	r3, #20481	; 0x5001
50012934:	e5933004 	ldr	r3, [r3, #4]
50012938:	e50b300c 	str	r3, [fp, #-12]
5001293c:	e51b300c 	ldr	r3, [fp, #-12]
50012940:	e1d330b8 	ldrh	r3, [r3, #8]
50012944:	e6bf2073 	sxth	r2, r3
50012948:	e51b300c 	ldr	r3, [fp, #-12]
5001294c:	e1d330ba 	ldrh	r3, [r3, #10]
50012950:	e6bf3073 	sxth	r3, r3
50012954:	e1a00002 	mov	r0, r2
50012958:	e1a01003 	mov	r1, r3
5001295c:	e3a02000 	mov	r2, #0
50012960:	ebfffe88 	bl	50012388 <_show_node>
50012964:	e51b3008 	ldr	r3, [fp, #-8]
50012968:	e1d330b8 	ldrh	r3, [r3, #8]
5001296c:	e6ff2073 	uxth	r2, r3
50012970:	e3073798 	movw	r3, #30616	; 0x7798
50012974:	e3453001 	movt	r3, #20481	; 0x5001
50012978:	e51b1018 	ldr	r1, [fp, #-24]
5001297c:	e1a01081 	lsl	r1, r1, #1
50012980:	e0833001 	add	r3, r3, r1
50012984:	e1d330b0 	ldrh	r3, [r3]
50012988:	e6ff3073 	uxth	r3, r3
5001298c:	e0823003 	add	r3, r2, r3
50012990:	e6ff3073 	uxth	r3, r3
50012994:	e14b30be 	strh	r3, [fp, #-14]
50012998:	e51b3008 	ldr	r3, [fp, #-8]
5001299c:	e1d330ba 	ldrh	r3, [r3, #10]
500129a0:	e6ff2073 	uxth	r2, r3
500129a4:	e30737a0 	movw	r3, #30624	; 0x77a0
500129a8:	e3453001 	movt	r3, #20481	; 0x5001
500129ac:	e51b1018 	ldr	r1, [fp, #-24]
500129b0:	e1a01081 	lsl	r1, r1, #1
500129b4:	e0833001 	add	r3, r3, r1
500129b8:	e1d330b0 	ldrh	r3, [r3]
500129bc:	e6ff3073 	uxth	r3, r3
500129c0:	e0823003 	add	r3, r2, r3
500129c4:	e6ff3073 	uxth	r3, r3
500129c8:	e14b31b0 	strh	r3, [fp, #-16]
500129cc:	e15b30fe 	ldrsh	r3, [fp, #-14]
500129d0:	e3530000 	cmp	r3, #0
500129d4:	ba00000f 	blt	50012a18 <_go_ahead+0x10c>
500129d8:	e15b20fe 	ldrsh	r2, [fp, #-14]
500129dc:	e3013af3 	movw	r3, #6899	; 0x1af3
500129e0:	e3463bca 	movt	r3, #27594	; 0x6bca
500129e4:	e0c10392 	smull	r0, r1, r2, r3
500129e8:	e1a01241 	asr	r1, r1, #4
500129ec:	e1a03fc2 	asr	r3, r2, #31
500129f0:	e0631001 	rsb	r1, r3, r1
500129f4:	e1a03001 	mov	r3, r1
500129f8:	e1a03103 	lsl	r3, r3, #2
500129fc:	e1a00103 	lsl	r0, r3, #2
50012a00:	e0833000 	add	r3, r3, r0
50012a04:	e0613003 	rsb	r3, r1, r3
50012a08:	e1a03083 	lsl	r3, r3, #1
50012a0c:	e0633002 	rsb	r3, r3, r2
50012a10:	e6ff3073 	uxth	r3, r3
50012a14:	ea000000 	b	50012a1c <_go_ahead+0x110>
50012a18:	e3a03025 	mov	r3, #37	; 0x25
50012a1c:	e14b30be 	strh	r3, [fp, #-14]
50012a20:	e15b31f0 	ldrsh	r3, [fp, #-16]
50012a24:	e3530000 	cmp	r3, #0
50012a28:	ba000010 	blt	50012a70 <_go_ahead+0x164>
50012a2c:	e15b21f0 	ldrsh	r2, [fp, #-16]
50012a30:	e30432c9 	movw	r3, #17097	; 0x42c9
50012a34:	e34b3216 	movt	r3, #45590	; 0xb216
50012a38:	e0c10392 	smull	r0, r1, r2, r3
50012a3c:	e0823001 	add	r3, r2, r1
50012a40:	e1a01243 	asr	r1, r3, #4
50012a44:	e1a03fc2 	asr	r3, r2, #31
50012a48:	e0630001 	rsb	r0, r3, r1
50012a4c:	e1a01000 	mov	r1, r0
50012a50:	e1a03181 	lsl	r3, r1, #3
50012a54:	e1a01003 	mov	r1, r3
50012a58:	e1a03101 	lsl	r3, r1, #2
50012a5c:	e0613003 	rsb	r3, r1, r3
50012a60:	e0603003 	rsb	r3, r0, r3
50012a64:	e0633002 	rsb	r3, r3, r2
50012a68:	e6ff3073 	uxth	r3, r3
50012a6c:	ea000000 	b	50012a74 <_go_ahead+0x168>
50012a70:	e3a03016 	mov	r3, #22
50012a74:	e14b31b0 	strh	r3, [fp, #-16]
50012a78:	e15b20fe 	ldrsh	r2, [fp, #-14]
50012a7c:	e15b31f0 	ldrsh	r3, [fp, #-16]
50012a80:	e1a00002 	mov	r0, r2
50012a84:	e1a01003 	mov	r1, r3
50012a88:	e3a02003 	mov	r2, #3
50012a8c:	ebfffe3d 	bl	50012388 <_show_node>
50012a90:	e51b300c 	ldr	r3, [fp, #-12]
50012a94:	e30c0ee0 	movw	r0, #52960	; 0xcee0
50012a98:	e3450001 	movt	r0, #20481	; 0x5001
50012a9c:	e1a01003 	mov	r1, r3
50012aa0:	ebffba8e 	bl	500014e0 <dlist_remove>
50012aa4:	e30c3ee0 	movw	r3, #52960	; 0xcee0
50012aa8:	e3453001 	movt	r3, #20481	; 0x5001
50012aac:	e5933000 	ldr	r3, [r3]
50012ab0:	e50b3008 	str	r3, [fp, #-8]
50012ab4:	e51b3008 	ldr	r3, [fp, #-8]
50012ab8:	e3530000 	cmp	r3, #0
50012abc:	0a000009 	beq	50012ae8 <_go_ahead+0x1dc>
50012ac0:	e51b3008 	ldr	r3, [fp, #-8]
50012ac4:	e1d330b8 	ldrh	r3, [r3, #8]
50012ac8:	e6bf2073 	sxth	r2, r3
50012acc:	e51b3008 	ldr	r3, [fp, #-8]
50012ad0:	e1d330ba 	ldrh	r3, [r3, #10]
50012ad4:	e6bf3073 	sxth	r3, r3
50012ad8:	e1a00002 	mov	r0, r2
50012adc:	e1a01003 	mov	r1, r3
50012ae0:	e3a02001 	mov	r2, #1
50012ae4:	ebfffe27 	bl	50012388 <_show_node>
50012ae8:	e15b20fe 	ldrsh	r2, [fp, #-14]
50012aec:	e15b31f0 	ldrsh	r3, [fp, #-16]
50012af0:	e1a00002 	mov	r0, r2
50012af4:	e1a01003 	mov	r1, r3
50012af8:	ebffff06 	bl	50012718 <_is_occupied>
50012afc:	e1a03000 	mov	r3, r0
50012b00:	e3530000 	cmp	r3, #0
50012b04:	0a000003 	beq	50012b18 <_go_ahead+0x20c>
50012b08:	e51b000c 	ldr	r0, [fp, #-12]
50012b0c:	ebffbcd9 	bl	50001e78 <memH_free>
50012b10:	e3e03001 	mvn	r3, #1
50012b14:	ea00004b 	b	50012c48 <_go_ahead+0x33c>
50012b18:	e15b20fe 	ldrsh	r2, [fp, #-14]
50012b1c:	e15b31f0 	ldrsh	r3, [fp, #-16]
50012b20:	e1a00002 	mov	r0, r2
50012b24:	e1a01003 	mov	r1, r3
50012b28:	ebffff1f 	bl	500127ac <_is_food>
50012b2c:	e1a03000 	mov	r3, r0
50012b30:	e3530000 	cmp	r3, #0
50012b34:	0a000036 	beq	50012c14 <_go_ahead+0x308>
50012b38:	e3a0000c 	mov	r0, #12
50012b3c:	ebffbc1d 	bl	50001bb8 <memH_malloc>
50012b40:	e50b0014 	str	r0, [fp, #-20]
50012b44:	e51b300c 	ldr	r3, [fp, #-12]
50012b48:	e1d320b8 	ldrh	r2, [r3, #8]
50012b4c:	e51b3014 	ldr	r3, [fp, #-20]
50012b50:	e1c320b8 	strh	r2, [r3, #8]
50012b54:	e51b300c 	ldr	r3, [fp, #-12]
50012b58:	e1d320ba 	ldrh	r2, [r3, #10]
50012b5c:	e51b3014 	ldr	r3, [fp, #-20]
50012b60:	e1c320ba 	strh	r2, [r3, #10]
50012b64:	e51b3014 	ldr	r3, [fp, #-20]
50012b68:	e30c0ee0 	movw	r0, #52960	; 0xcee0
50012b6c:	e3450001 	movt	r0, #20481	; 0x5001
50012b70:	e1a01003 	mov	r1, r3
50012b74:	ebffba4c 	bl	500014ac <dlist_add>
50012b78:	e51b3014 	ldr	r3, [fp, #-20]
50012b7c:	e1d330b8 	ldrh	r3, [r3, #8]
50012b80:	e6bf2073 	sxth	r2, r3
50012b84:	e51b3014 	ldr	r3, [fp, #-20]
50012b88:	e1d330ba 	ldrh	r3, [r3, #10]
50012b8c:	e6bf3073 	sxth	r3, r3
50012b90:	e1a00002 	mov	r0, r2
50012b94:	e1a01003 	mov	r1, r3
50012b98:	e3a02001 	mov	r2, #1
50012b9c:	ebfffdf9 	bl	50012388 <_show_node>
50012ba0:	e51b300c 	ldr	r3, [fp, #-12]
50012ba4:	e15b20be 	ldrh	r2, [fp, #-14]
50012ba8:	e1c320b8 	strh	r2, [r3, #8]
50012bac:	e51b300c 	ldr	r3, [fp, #-12]
50012bb0:	e15b21b0 	ldrh	r2, [fp, #-16]
50012bb4:	e1c320ba 	strh	r2, [r3, #10]
50012bb8:	e51b300c 	ldr	r3, [fp, #-12]
50012bbc:	e30c0ee0 	movw	r0, #52960	; 0xcee0
50012bc0:	e3450001 	movt	r0, #20481	; 0x5001
50012bc4:	e3a01000 	mov	r1, #0
50012bc8:	e1a02003 	mov	r2, r3
50012bcc:	ebffba0d 	bl	50001408 <dlist_insert>
50012bd0:	ebffff11 	bl	5001281c <_create_food>
50012bd4:	e30c3ef4 	movw	r3, #52980	; 0xcef4
50012bd8:	e3453001 	movt	r3, #20481	; 0x5001
50012bdc:	e5933000 	ldr	r3, [r3]
50012be0:	e2832001 	add	r2, r3, #1
50012be4:	e30c3ef4 	movw	r3, #52980	; 0xcef4
50012be8:	e3453001 	movt	r3, #20481	; 0x5001
50012bec:	e5832000 	str	r2, [r3]
50012bf0:	e30c3ef4 	movw	r3, #52980	; 0xcef4
50012bf4:	e3453001 	movt	r3, #20481	; 0x5001
50012bf8:	e5933000 	ldr	r3, [r3]
50012bfc:	e3833102 	orr	r3, r3, #-2147483648	; 0x80000000
50012c00:	e3a00000 	mov	r0, #0
50012c04:	e3a01000 	mov	r1, #0
50012c08:	e1a02003 	mov	r2, r3
50012c0c:	ebfffddd 	bl	50012388 <_show_node>
50012c10:	ea00000b 	b	50012c44 <_go_ahead+0x338>
50012c14:	e51b300c 	ldr	r3, [fp, #-12]
50012c18:	e15b20be 	ldrh	r2, [fp, #-14]
50012c1c:	e1c320b8 	strh	r2, [r3, #8]
50012c20:	e51b300c 	ldr	r3, [fp, #-12]
50012c24:	e15b21b0 	ldrh	r2, [fp, #-16]
50012c28:	e1c320ba 	strh	r2, [r3, #10]
50012c2c:	e51b300c 	ldr	r3, [fp, #-12]
50012c30:	e30c0ee0 	movw	r0, #52960	; 0xcee0
50012c34:	e3450001 	movt	r0, #20481	; 0x5001
50012c38:	e3a01000 	mov	r1, #0
50012c3c:	e1a02003 	mov	r2, r3
50012c40:	ebffb9f0 	bl	50001408 <dlist_insert>
50012c44:	e3a03000 	mov	r3, #0
50012c48:	e1a00003 	mov	r0, r3
50012c4c:	e24bd004 	sub	sp, fp, #4
50012c50:	e8bd8800 	pop	{fp, pc}

50012c54 <_job_task>:
50012c54:	e92d4800 	push	{fp, lr}
50012c58:	e28db004 	add	fp, sp, #4
50012c5c:	e24dd010 	sub	sp, sp, #16
50012c60:	e3a03000 	mov	r3, #0
50012c64:	e50b3008 	str	r3, [fp, #-8]
50012c68:	e3a03000 	mov	r3, #0
50012c6c:	e50b300c 	str	r3, [fp, #-12]
50012c70:	e3a03000 	mov	r3, #0
50012c74:	e50b3010 	str	r3, [fp, #-16]
50012c78:	ebfffe7b 	bl	5001266c <_recv_msg>
50012c7c:	e50b0014 	str	r0, [fp, #-20]
50012c80:	e51b3014 	ldr	r3, [fp, #-20]
50012c84:	e3530007 	cmp	r3, #7
50012c88:	979ff103 	ldrls	pc, [pc, r3, lsl #2]
50012c8c:	ea00005d 	b	50012e08 <_job_task+0x1b4>
50012c90:	50012e10 	.word	0x50012e10
50012c94:	50012d30 	.word	0x50012d30
50012c98:	50012d70 	.word	0x50012d70
50012c9c:	50012cf0 	.word	0x50012cf0
50012ca0:	50012cb0 	.word	0x50012cb0
50012ca4:	50012de8 	.word	0x50012de8
50012ca8:	50012db0 	.word	0x50012db0
50012cac:	50012df8 	.word	0x50012df8
50012cb0:	e51b3010 	ldr	r3, [fp, #-16]
50012cb4:	e3530001 	cmp	r3, #1
50012cb8:	0a00000b 	beq	50012cec <_job_task+0x98>
50012cbc:	e51b3008 	ldr	r3, [fp, #-8]
50012cc0:	e3530000 	cmp	r3, #0
50012cc4:	0a000000 	beq	50012ccc <_job_task+0x78>
50012cc8:	ea00004f 	b	50012e0c <_job_task+0x1b8>
50012ccc:	e3a03000 	mov	r3, #0
50012cd0:	e50b3010 	str	r3, [fp, #-16]
50012cd4:	e3a00000 	mov	r0, #0
50012cd8:	ebffff0b 	bl	5001290c <_go_ahead>
50012cdc:	e1a03000 	mov	r3, r0
50012ce0:	e3730002 	cmn	r3, #2
50012ce4:	1a000000 	bne	50012cec <_job_task+0x98>
50012ce8:	ea000049 	b	50012e14 <_job_task+0x1c0>
50012cec:	ea000046 	b	50012e0c <_job_task+0x1b8>
50012cf0:	e51b3010 	ldr	r3, [fp, #-16]
50012cf4:	e3530000 	cmp	r3, #0
50012cf8:	0a00000b 	beq	50012d2c <_job_task+0xd8>
50012cfc:	e51b3008 	ldr	r3, [fp, #-8]
50012d00:	e3530000 	cmp	r3, #0
50012d04:	0a000000 	beq	50012d0c <_job_task+0xb8>
50012d08:	ea00003f 	b	50012e0c <_job_task+0x1b8>
50012d0c:	e3a03001 	mov	r3, #1
50012d10:	e50b3010 	str	r3, [fp, #-16]
50012d14:	e3a00001 	mov	r0, #1
50012d18:	ebfffefb 	bl	5001290c <_go_ahead>
50012d1c:	e1a03000 	mov	r3, r0
50012d20:	e3730002 	cmn	r3, #2
50012d24:	1a000000 	bne	50012d2c <_job_task+0xd8>
50012d28:	ea000039 	b	50012e14 <_job_task+0x1c0>
50012d2c:	ea000036 	b	50012e0c <_job_task+0x1b8>
50012d30:	e51b3010 	ldr	r3, [fp, #-16]
50012d34:	e3530003 	cmp	r3, #3
50012d38:	0a00000b 	beq	50012d6c <_job_task+0x118>
50012d3c:	e51b3008 	ldr	r3, [fp, #-8]
50012d40:	e3530000 	cmp	r3, #0
50012d44:	0a000000 	beq	50012d4c <_job_task+0xf8>
50012d48:	ea00002f 	b	50012e0c <_job_task+0x1b8>
50012d4c:	e3a03002 	mov	r3, #2
50012d50:	e50b3010 	str	r3, [fp, #-16]
50012d54:	e3a00002 	mov	r0, #2
50012d58:	ebfffeeb 	bl	5001290c <_go_ahead>
50012d5c:	e1a03000 	mov	r3, r0
50012d60:	e3730002 	cmn	r3, #2
50012d64:	1a000000 	bne	50012d6c <_job_task+0x118>
50012d68:	ea000029 	b	50012e14 <_job_task+0x1c0>
50012d6c:	ea000026 	b	50012e0c <_job_task+0x1b8>
50012d70:	e51b3010 	ldr	r3, [fp, #-16]
50012d74:	e3530002 	cmp	r3, #2
50012d78:	0a00000b 	beq	50012dac <_job_task+0x158>
50012d7c:	e51b3008 	ldr	r3, [fp, #-8]
50012d80:	e3530000 	cmp	r3, #0
50012d84:	0a000000 	beq	50012d8c <_job_task+0x138>
50012d88:	ea00001f 	b	50012e0c <_job_task+0x1b8>
50012d8c:	e3a03003 	mov	r3, #3
50012d90:	e50b3010 	str	r3, [fp, #-16]
50012d94:	e3a00003 	mov	r0, #3
50012d98:	ebfffedb 	bl	5001290c <_go_ahead>
50012d9c:	e1a03000 	mov	r3, r0
50012da0:	e3730002 	cmn	r3, #2
50012da4:	1a000000 	bne	50012dac <_job_task+0x158>
50012da8:	ea000019 	b	50012e14 <_job_task+0x1c0>
50012dac:	ea000016 	b	50012e0c <_job_task+0x1b8>
50012db0:	e51b300c 	ldr	r3, [fp, #-12]
50012db4:	e3530000 	cmp	r3, #0
50012db8:	1a000009 	bne	50012de4 <_job_task+0x190>
50012dbc:	e51b3008 	ldr	r3, [fp, #-8]
50012dc0:	e3530000 	cmp	r3, #0
50012dc4:	0a000000 	beq	50012dcc <_job_task+0x178>
50012dc8:	ea00000f 	b	50012e0c <_job_task+0x1b8>
50012dcc:	e51b0010 	ldr	r0, [fp, #-16]
50012dd0:	ebfffecd 	bl	5001290c <_go_ahead>
50012dd4:	e1a03000 	mov	r3, r0
50012dd8:	e3730002 	cmn	r3, #2
50012ddc:	1a000000 	bne	50012de4 <_job_task+0x190>
50012de0:	ea00000b 	b	50012e14 <_job_task+0x1c0>
50012de4:	ea000008 	b	50012e0c <_job_task+0x1b8>
50012de8:	e51b300c 	ldr	r3, [fp, #-12]
50012dec:	e2633001 	rsb	r3, r3, #1
50012df0:	e50b300c 	str	r3, [fp, #-12]
50012df4:	ea000004 	b	50012e0c <_job_task+0x1b8>
50012df8:	e51b3008 	ldr	r3, [fp, #-8]
50012dfc:	e2633001 	rsb	r3, r3, #1
50012e00:	e50b3008 	str	r3, [fp, #-8]
50012e04:	ea000000 	b	50012e0c <_job_task+0x1b8>
50012e08:	e1a00000 	nop			; (mov r0, r0)
50012e0c:	eaffff99 	b	50012c78 <_job_task+0x24>
50012e10:	e1a00000 	nop			; (mov r0, r0)
50012e14:	ebfffe23 	bl	500126a8 <_quit>
50012e18:	e24bd004 	sub	sp, fp, #4
50012e1c:	e8bd8800 	pop	{fp, pc}

50012e20 <_mov_task>:
50012e20:	e92d4800 	push	{fp, lr}
50012e24:	e28db004 	add	fp, sp, #4
50012e28:	e3a00006 	mov	r0, #6
50012e2c:	ebfffdf0 	bl	500125f4 <_send_msg>
50012e30:	e1a03000 	mov	r3, r0
50012e34:	e3730002 	cmn	r3, #2
50012e38:	1a000000 	bne	50012e40 <_mov_task+0x20>
50012e3c:	ea000002 	b	50012e4c <_mov_task+0x2c>
50012e40:	e3a00f7d 	mov	r0, #500	; 0x1f4
50012e44:	ebfffcff 	bl	50012248 <os_task_delay>
50012e48:	eafffff6 	b	50012e28 <_mov_task+0x8>
50012e4c:	e8bd8800 	pop	{fp, pc}

50012e50 <_init_game>:
50012e50:	e92d4800 	push	{fp, lr}
50012e54:	e28db004 	add	fp, sp, #4
50012e58:	e24dd010 	sub	sp, sp, #16
50012e5c:	e3a0000c 	mov	r0, #12
50012e60:	ebffbb54 	bl	50001bb8 <memH_malloc>
50012e64:	e50b0008 	str	r0, [fp, #-8]
50012e68:	e30c0ee0 	movw	r0, #52960	; 0xcee0
50012e6c:	e3450001 	movt	r0, #20481	; 0x5001
50012e70:	ebffb955 	bl	500013cc <dlist_init>
50012e74:	e3a0003c 	mov	r0, #60	; 0x3c
50012e78:	e3a01004 	mov	r1, #4
50012e7c:	ebfffd07 	bl	500122a0 <os_msgQ_create>
50012e80:	e1a02000 	mov	r2, r0
50012e84:	e30c3ef8 	movw	r3, #52984	; 0xcef8
50012e88:	e3453001 	movt	r3, #20481	; 0x5001
50012e8c:	e5832000 	str	r2, [r3]
50012e90:	e3a03000 	mov	r3, #0
50012e94:	e58d3000 	str	r3, [sp]
50012e98:	e3a03000 	mov	r3, #0
50012e9c:	e58d3004 	str	r3, [sp, #4]
50012ea0:	e3070240 	movw	r0, #29248	; 0x7240
50012ea4:	e3450001 	movt	r0, #20481	; 0x5001
50012ea8:	e3a01a0a 	mov	r1, #40960	; 0xa000
50012eac:	e3a02064 	mov	r2, #100	; 0x64
50012eb0:	e3023c54 	movw	r3, #11348	; 0x2c54
50012eb4:	e3453001 	movt	r3, #20481	; 0x5001
50012eb8:	ebfffccb 	bl	500121ec <os_task_create>
50012ebc:	e3a03000 	mov	r3, #0
50012ec0:	e58d3000 	str	r3, [sp]
50012ec4:	e3a03000 	mov	r3, #0
50012ec8:	e58d3004 	str	r3, [sp, #4]
50012ecc:	e3070248 	movw	r0, #29256	; 0x7248
50012ed0:	e3450001 	movt	r0, #20481	; 0x5001
50012ed4:	e3a01b0a 	mov	r1, #10240	; 0x2800
50012ed8:	e3a02064 	mov	r2, #100	; 0x64
50012edc:	e3023e20 	movw	r3, #11808	; 0x2e20
50012ee0:	e3453001 	movt	r3, #20481	; 0x5001
50012ee4:	ebfffcc0 	bl	500121ec <os_task_create>
50012ee8:	e51b3008 	ldr	r3, [fp, #-8]
50012eec:	e3a02013 	mov	r2, #19
50012ef0:	e1c320b8 	strh	r2, [r3, #8]
50012ef4:	e51b3008 	ldr	r3, [fp, #-8]
50012ef8:	e3a0200b 	mov	r2, #11
50012efc:	e1c320ba 	strh	r2, [r3, #10]
50012f00:	e51b3008 	ldr	r3, [fp, #-8]
50012f04:	e30c0ee0 	movw	r0, #52960	; 0xcee0
50012f08:	e3450001 	movt	r0, #20481	; 0x5001
50012f0c:	e1a01003 	mov	r1, r3
50012f10:	ebffb965 	bl	500014ac <dlist_add>
50012f14:	e51b3008 	ldr	r3, [fp, #-8]
50012f18:	e1d330b8 	ldrh	r3, [r3, #8]
50012f1c:	e6bf2073 	sxth	r2, r3
50012f20:	e51b3008 	ldr	r3, [fp, #-8]
50012f24:	e1d330ba 	ldrh	r3, [r3, #10]
50012f28:	e6bf3073 	sxth	r3, r3
50012f2c:	e1a00002 	mov	r0, r2
50012f30:	e1a01003 	mov	r1, r3
50012f34:	e3a02001 	mov	r2, #1
50012f38:	ebfffd12 	bl	50012388 <_show_node>
50012f3c:	ebfffe36 	bl	5001281c <_create_food>
50012f40:	e30c3ef4 	movw	r3, #52980	; 0xcef4
50012f44:	e3453001 	movt	r3, #20481	; 0x5001
50012f48:	e3a02000 	mov	r2, #0
50012f4c:	e5832000 	str	r2, [r3]
50012f50:	e24bd004 	sub	sp, fp, #4
50012f54:	e8bd8800 	pop	{fp, pc}

50012f58 <_the_game>:
50012f58:	e92d4800 	push	{fp, lr}
50012f5c:	e28db004 	add	fp, sp, #4
50012f60:	e24dd008 	sub	sp, sp, #8
50012f64:	ebffffb9 	bl	50012e50 <_init_game>
50012f68:	e24b300c 	sub	r3, fp, #12
50012f6c:	e1a00003 	mov	r0, r3
50012f70:	e3a01003 	mov	r1, #3
50012f74:	ebffc58e 	bl	500045b4 <serial_read>
50012f78:	e50b0008 	str	r0, [fp, #-8]
50012f7c:	e24b200c 	sub	r2, fp, #12
50012f80:	e51b3008 	ldr	r3, [fp, #-8]
50012f84:	e0823003 	add	r3, r2, r3
50012f88:	e3a02000 	mov	r2, #0
50012f8c:	e5c32000 	strb	r2, [r3]
50012f90:	e24b300c 	sub	r3, fp, #12
50012f94:	e1a00003 	mov	r0, r3
50012f98:	e3071250 	movw	r1, #29264	; 0x7250
50012f9c:	e3451001 	movt	r1, #20481	; 0x5001
50012fa0:	ebffc776 	bl	50004d80 <strcmp>
50012fa4:	e1a03000 	mov	r3, r0
50012fa8:	e3530000 	cmp	r3, #0
50012fac:	1a000005 	bne	50012fc8 <_the_game+0x70>
50012fb0:	e3a00002 	mov	r0, #2
50012fb4:	ebfffd8e 	bl	500125f4 <_send_msg>
50012fb8:	e1a03000 	mov	r3, r0
50012fbc:	e3730002 	cmn	r3, #2
50012fc0:	1a000063 	bne	50013154 <_the_game+0x1fc>
50012fc4:	ea000063 	b	50013158 <_the_game+0x200>
50012fc8:	e24b300c 	sub	r3, fp, #12
50012fcc:	e1a00003 	mov	r0, r3
50012fd0:	e3071254 	movw	r1, #29268	; 0x7254
50012fd4:	e3451001 	movt	r1, #20481	; 0x5001
50012fd8:	ebffc768 	bl	50004d80 <strcmp>
50012fdc:	e1a03000 	mov	r3, r0
50012fe0:	e3530000 	cmp	r3, #0
50012fe4:	1a000005 	bne	50013000 <_the_game+0xa8>
50012fe8:	e3a00006 	mov	r0, #6
50012fec:	ebfffd80 	bl	500125f4 <_send_msg>
50012ff0:	e1a03000 	mov	r3, r0
50012ff4:	e3730002 	cmn	r3, #2
50012ff8:	1a000055 	bne	50013154 <_the_game+0x1fc>
50012ffc:	ea000055 	b	50013158 <_the_game+0x200>
50013000:	e24b300c 	sub	r3, fp, #12
50013004:	e1a00003 	mov	r0, r3
50013008:	e3071258 	movw	r1, #29272	; 0x7258
5001300c:	e3451001 	movt	r1, #20481	; 0x5001
50013010:	ebffc75a 	bl	50004d80 <strcmp>
50013014:	e1a03000 	mov	r3, r0
50013018:	e3530000 	cmp	r3, #0
5001301c:	1a000005 	bne	50013038 <_the_game+0xe0>
50013020:	e3a00001 	mov	r0, #1
50013024:	ebfffd72 	bl	500125f4 <_send_msg>
50013028:	e1a03000 	mov	r3, r0
5001302c:	e3730002 	cmn	r3, #2
50013030:	1a000047 	bne	50013154 <_the_game+0x1fc>
50013034:	ea000047 	b	50013158 <_the_game+0x200>
50013038:	e24b300c 	sub	r3, fp, #12
5001303c:	e1a00003 	mov	r0, r3
50013040:	e307125c 	movw	r1, #29276	; 0x725c
50013044:	e3451001 	movt	r1, #20481	; 0x5001
50013048:	ebffc74c 	bl	50004d80 <strcmp>
5001304c:	e1a03000 	mov	r3, r0
50013050:	e3530000 	cmp	r3, #0
50013054:	1a000005 	bne	50013070 <_the_game+0x118>
50013058:	e3a00004 	mov	r0, #4
5001305c:	ebfffd64 	bl	500125f4 <_send_msg>
50013060:	e1a03000 	mov	r3, r0
50013064:	e3730002 	cmn	r3, #2
50013068:	1a000039 	bne	50013154 <_the_game+0x1fc>
5001306c:	ea000039 	b	50013158 <_the_game+0x200>
50013070:	e24b300c 	sub	r3, fp, #12
50013074:	e1a00003 	mov	r0, r3
50013078:	e3071260 	movw	r1, #29280	; 0x7260
5001307c:	e3451001 	movt	r1, #20481	; 0x5001
50013080:	ebffc73e 	bl	50004d80 <strcmp>
50013084:	e1a03000 	mov	r3, r0
50013088:	e3530000 	cmp	r3, #0
5001308c:	1a000005 	bne	500130a8 <_the_game+0x150>
50013090:	e3a00003 	mov	r0, #3
50013094:	ebfffd56 	bl	500125f4 <_send_msg>
50013098:	e1a03000 	mov	r3, r0
5001309c:	e3730002 	cmn	r3, #2
500130a0:	1a00002b 	bne	50013154 <_the_game+0x1fc>
500130a4:	ea00002b 	b	50013158 <_the_game+0x200>
500130a8:	e24b300c 	sub	r3, fp, #12
500130ac:	e1a00003 	mov	r0, r3
500130b0:	e3071264 	movw	r1, #29284	; 0x7264
500130b4:	e3451001 	movt	r1, #20481	; 0x5001
500130b8:	ebffc730 	bl	50004d80 <strcmp>
500130bc:	e1a03000 	mov	r3, r0
500130c0:	e3530000 	cmp	r3, #0
500130c4:	1a000005 	bne	500130e0 <_the_game+0x188>
500130c8:	e3a00005 	mov	r0, #5
500130cc:	ebfffd48 	bl	500125f4 <_send_msg>
500130d0:	e1a03000 	mov	r3, r0
500130d4:	e3730002 	cmn	r3, #2
500130d8:	1a00001d 	bne	50013154 <_the_game+0x1fc>
500130dc:	ea00001d 	b	50013158 <_the_game+0x200>
500130e0:	e24b300c 	sub	r3, fp, #12
500130e4:	e1a00003 	mov	r0, r3
500130e8:	e3071268 	movw	r1, #29288	; 0x7268
500130ec:	e3451001 	movt	r1, #20481	; 0x5001
500130f0:	ebffc722 	bl	50004d80 <strcmp>
500130f4:	e1a03000 	mov	r3, r0
500130f8:	e3530000 	cmp	r3, #0
500130fc:	1a000005 	bne	50013118 <_the_game+0x1c0>
50013100:	e3a00007 	mov	r0, #7
50013104:	ebfffd3a 	bl	500125f4 <_send_msg>
50013108:	e1a03000 	mov	r3, r0
5001310c:	e3730002 	cmn	r3, #2
50013110:	1a00000f 	bne	50013154 <_the_game+0x1fc>
50013114:	ea00000f 	b	50013158 <_the_game+0x200>
50013118:	e24b300c 	sub	r3, fp, #12
5001311c:	e1a00003 	mov	r0, r3
50013120:	e307126c 	movw	r1, #29292	; 0x726c
50013124:	e3451001 	movt	r1, #20481	; 0x5001
50013128:	ebffc714 	bl	50004d80 <strcmp>
5001312c:	e1a03000 	mov	r3, r0
50013130:	e3530000 	cmp	r3, #0
50013134:	1a000006 	bne	50013154 <_the_game+0x1fc>
50013138:	e3a00000 	mov	r0, #0
5001313c:	ebfffd2c 	bl	500125f4 <_send_msg>
50013140:	e1a03000 	mov	r3, r0
50013144:	e3730002 	cmn	r3, #2
50013148:	1a000000 	bne	50013150 <_the_game+0x1f8>
5001314c:	ea000001 	b	50013158 <_the_game+0x200>
50013150:	ea000000 	b	50013158 <_the_game+0x200>
50013154:	eaffff83 	b	50012f68 <_the_game+0x10>
50013158:	e3a00000 	mov	r0, #0
5001315c:	ebfffd24 	bl	500125f4 <_send_msg>
50013160:	e1a03000 	mov	r3, r0
50013164:	e3730002 	cmn	r3, #2
50013168:	1a000000 	bne	50013170 <_the_game+0x218>
5001316c:	ea000002 	b	5001317c <_the_game+0x224>
50013170:	e3a0000a 	mov	r0, #10
50013174:	ebffb82d 	bl	50001230 <delayQ_delay>
50013178:	eafffff6 	b	50013158 <_the_game+0x200>
5001317c:	e24bd004 	sub	sp, fp, #4
50013180:	e8bd8800 	pop	{fp, pc}

50013184 <wuzi_start>:
50013184:	e92d4800 	push	{fp, lr}
50013188:	e28db004 	add	fp, sp, #4
5001318c:	e24dd010 	sub	sp, sp, #16
50013190:	e3a03000 	mov	r3, #0
50013194:	e50b3014 	str	r3, [fp, #-20]
50013198:	e30d38cc 	movw	r3, #55500	; 0xd8cc
5001319c:	e3453001 	movt	r3, #20481	; 0x5001
500131a0:	e3a02000 	mov	r2, #0
500131a4:	e5832000 	str	r2, [r3]
500131a8:	e30d08d0 	movw	r0, #55504	; 0xd8d0
500131ac:	e3450001 	movt	r0, #20481	; 0x5001
500131b0:	e3a01002 	mov	r1, #2
500131b4:	e3a020e1 	mov	r2, #225	; 0xe1
500131b8:	ebffc915 	bl	50005614 <memset>
500131bc:	e30d0070 	movw	r0, #53360	; 0xd070
500131c0:	e3450003 	movt	r0, #20483	; 0x5003
500131c4:	e3a01000 	mov	r1, #0
500131c8:	e3002478 	movw	r2, #1144	; 0x478
500131cc:	ebffc910 	bl	50005614 <memset>
500131d0:	e30c3efc 	movw	r3, #52988	; 0xcefc
500131d4:	e3453001 	movt	r3, #20481	; 0x5001
500131d8:	e5933000 	ldr	r3, [r3]
500131dc:	e3530001 	cmp	r3, #1
500131e0:	1a000000 	bne	500131e8 <wuzi_start+0x64>
500131e4:	ea0000df 	b	50013568 <wuzi_start+0x3e4>
500131e8:	e3a03000 	mov	r3, #0
500131ec:	e50b300c 	str	r3, [fp, #-12]
500131f0:	ea00002f 	b	500132b4 <wuzi_start+0x130>
500131f4:	e3a03000 	mov	r3, #0
500131f8:	e50b3010 	str	r3, [fp, #-16]
500131fc:	ea000026 	b	5001329c <wuzi_start+0x118>
50013200:	e3a03000 	mov	r3, #0
50013204:	e50b3008 	str	r3, [fp, #-8]
50013208:	ea00001a 	b	50013278 <wuzi_start+0xf4>
5001320c:	e51b2010 	ldr	r2, [fp, #-16]
50013210:	e51b3008 	ldr	r3, [fp, #-8]
50013214:	e0822003 	add	r2, r2, r3
50013218:	e30d19b4 	movw	r1, #55732	; 0xd9b4
5001321c:	e3451001 	movt	r1, #20481	; 0x5001
50013220:	e51bc00c 	ldr	ip, [fp, #-12]
50013224:	e1a03002 	mov	r3, r2
50013228:	e1a03203 	lsl	r3, r3, #4
5001322c:	e1a00183 	lsl	r0, r3, #3
50013230:	e0833000 	add	r3, r3, r0
50013234:	e0623003 	rsb	r3, r2, r3
50013238:	e1a03103 	lsl	r3, r3, #2
5001323c:	e1a0200c 	mov	r2, ip
50013240:	e1a02102 	lsl	r2, r2, #2
50013244:	e1a00282 	lsl	r0, r2, #5
50013248:	e0822000 	add	r2, r2, r0
5001324c:	e1a00302 	lsl	r0, r2, #6
50013250:	e0822000 	add	r2, r2, r0
50013254:	e0833002 	add	r3, r3, r2
50013258:	e0812003 	add	r2, r1, r3
5001325c:	e51b3014 	ldr	r3, [fp, #-20]
50013260:	e0823003 	add	r3, r2, r3
50013264:	e3a02001 	mov	r2, #1
50013268:	e5c32000 	strb	r2, [r3]
5001326c:	e51b3008 	ldr	r3, [fp, #-8]
50013270:	e2833001 	add	r3, r3, #1
50013274:	e50b3008 	str	r3, [fp, #-8]
50013278:	e51b3008 	ldr	r3, [fp, #-8]
5001327c:	e3530004 	cmp	r3, #4
50013280:	daffffe1 	ble	5001320c <wuzi_start+0x88>
50013284:	e51b3014 	ldr	r3, [fp, #-20]
50013288:	e2833001 	add	r3, r3, #1
5001328c:	e50b3014 	str	r3, [fp, #-20]
50013290:	e51b3010 	ldr	r3, [fp, #-16]
50013294:	e2833001 	add	r3, r3, #1
50013298:	e50b3010 	str	r3, [fp, #-16]
5001329c:	e51b3010 	ldr	r3, [fp, #-16]
500132a0:	e353000a 	cmp	r3, #10
500132a4:	daffffd5 	ble	50013200 <wuzi_start+0x7c>
500132a8:	e51b300c 	ldr	r3, [fp, #-12]
500132ac:	e2833001 	add	r3, r3, #1
500132b0:	e50b300c 	str	r3, [fp, #-12]
500132b4:	e51b300c 	ldr	r3, [fp, #-12]
500132b8:	e353000e 	cmp	r3, #14
500132bc:	daffffcc 	ble	500131f4 <wuzi_start+0x70>
500132c0:	e3a03000 	mov	r3, #0
500132c4:	e50b3010 	str	r3, [fp, #-16]
500132c8:	ea00002f 	b	5001338c <wuzi_start+0x208>
500132cc:	e3a03000 	mov	r3, #0
500132d0:	e50b300c 	str	r3, [fp, #-12]
500132d4:	ea000026 	b	50013374 <wuzi_start+0x1f0>
500132d8:	e3a03000 	mov	r3, #0
500132dc:	e50b3008 	str	r3, [fp, #-8]
500132e0:	ea00001a 	b	50013350 <wuzi_start+0x1cc>
500132e4:	e51b200c 	ldr	r2, [fp, #-12]
500132e8:	e51b3008 	ldr	r3, [fp, #-8]
500132ec:	e082c003 	add	ip, r2, r3
500132f0:	e30d19b4 	movw	r1, #55732	; 0xd9b4
500132f4:	e3451001 	movt	r1, #20481	; 0x5001
500132f8:	e51b2010 	ldr	r2, [fp, #-16]
500132fc:	e1a03002 	mov	r3, r2
50013300:	e1a03203 	lsl	r3, r3, #4
50013304:	e1a00183 	lsl	r0, r3, #3
50013308:	e0833000 	add	r3, r3, r0
5001330c:	e0623003 	rsb	r3, r2, r3
50013310:	e1a03103 	lsl	r3, r3, #2
50013314:	e1a0200c 	mov	r2, ip
50013318:	e1a02102 	lsl	r2, r2, #2
5001331c:	e1a00282 	lsl	r0, r2, #5
50013320:	e0822000 	add	r2, r2, r0
50013324:	e1a00302 	lsl	r0, r2, #6
50013328:	e0822000 	add	r2, r2, r0
5001332c:	e0833002 	add	r3, r3, r2
50013330:	e0812003 	add	r2, r1, r3
50013334:	e51b3014 	ldr	r3, [fp, #-20]
50013338:	e0823003 	add	r3, r2, r3
5001333c:	e3a02001 	mov	r2, #1
50013340:	e5c32000 	strb	r2, [r3]
50013344:	e51b3008 	ldr	r3, [fp, #-8]
50013348:	e2833001 	add	r3, r3, #1
5001334c:	e50b3008 	str	r3, [fp, #-8]
50013350:	e51b3008 	ldr	r3, [fp, #-8]
50013354:	e3530004 	cmp	r3, #4
50013358:	daffffe1 	ble	500132e4 <wuzi_start+0x160>
5001335c:	e51b3014 	ldr	r3, [fp, #-20]
50013360:	e2833001 	add	r3, r3, #1
50013364:	e50b3014 	str	r3, [fp, #-20]
50013368:	e51b300c 	ldr	r3, [fp, #-12]
5001336c:	e2833001 	add	r3, r3, #1
50013370:	e50b300c 	str	r3, [fp, #-12]
50013374:	e51b300c 	ldr	r3, [fp, #-12]
50013378:	e353000a 	cmp	r3, #10
5001337c:	daffffd5 	ble	500132d8 <wuzi_start+0x154>
50013380:	e51b3010 	ldr	r3, [fp, #-16]
50013384:	e2833001 	add	r3, r3, #1
50013388:	e50b3010 	str	r3, [fp, #-16]
5001338c:	e51b3010 	ldr	r3, [fp, #-16]
50013390:	e353000e 	cmp	r3, #14
50013394:	daffffcc 	ble	500132cc <wuzi_start+0x148>
50013398:	e3a03000 	mov	r3, #0
5001339c:	e50b300c 	str	r3, [fp, #-12]
500133a0:	ea000031 	b	5001346c <wuzi_start+0x2e8>
500133a4:	e3a03000 	mov	r3, #0
500133a8:	e50b3010 	str	r3, [fp, #-16]
500133ac:	ea000028 	b	50013454 <wuzi_start+0x2d0>
500133b0:	e3a03000 	mov	r3, #0
500133b4:	e50b3008 	str	r3, [fp, #-8]
500133b8:	ea00001c 	b	50013430 <wuzi_start+0x2ac>
500133bc:	e51b200c 	ldr	r2, [fp, #-12]
500133c0:	e51b3008 	ldr	r3, [fp, #-8]
500133c4:	e082c003 	add	ip, r2, r3
500133c8:	e51b2010 	ldr	r2, [fp, #-16]
500133cc:	e51b3008 	ldr	r3, [fp, #-8]
500133d0:	e0822003 	add	r2, r2, r3
500133d4:	e30d19b4 	movw	r1, #55732	; 0xd9b4
500133d8:	e3451001 	movt	r1, #20481	; 0x5001
500133dc:	e1a03002 	mov	r3, r2
500133e0:	e1a03203 	lsl	r3, r3, #4
500133e4:	e1a00183 	lsl	r0, r3, #3
500133e8:	e0833000 	add	r3, r3, r0
500133ec:	e0623003 	rsb	r3, r2, r3
500133f0:	e1a03103 	lsl	r3, r3, #2
500133f4:	e1a0200c 	mov	r2, ip
500133f8:	e1a02102 	lsl	r2, r2, #2
500133fc:	e1a00282 	lsl	r0, r2, #5
50013400:	e0822000 	add	r2, r2, r0
50013404:	e1a00302 	lsl	r0, r2, #6
50013408:	e0822000 	add	r2, r2, r0
5001340c:	e0833002 	add	r3, r3, r2
50013410:	e0812003 	add	r2, r1, r3
50013414:	e51b3014 	ldr	r3, [fp, #-20]
50013418:	e0823003 	add	r3, r2, r3
5001341c:	e3a02001 	mov	r2, #1
50013420:	e5c32000 	strb	r2, [r3]
50013424:	e51b3008 	ldr	r3, [fp, #-8]
50013428:	e2833001 	add	r3, r3, #1
5001342c:	e50b3008 	str	r3, [fp, #-8]
50013430:	e51b3008 	ldr	r3, [fp, #-8]
50013434:	e3530004 	cmp	r3, #4
50013438:	daffffdf 	ble	500133bc <wuzi_start+0x238>
5001343c:	e51b3014 	ldr	r3, [fp, #-20]
50013440:	e2833001 	add	r3, r3, #1
50013444:	e50b3014 	str	r3, [fp, #-20]
50013448:	e51b3010 	ldr	r3, [fp, #-16]
5001344c:	e2833001 	add	r3, r3, #1
50013450:	e50b3010 	str	r3, [fp, #-16]
50013454:	e51b3010 	ldr	r3, [fp, #-16]
50013458:	e353000a 	cmp	r3, #10
5001345c:	daffffd3 	ble	500133b0 <wuzi_start+0x22c>
50013460:	e51b300c 	ldr	r3, [fp, #-12]
50013464:	e2833001 	add	r3, r3, #1
50013468:	e50b300c 	str	r3, [fp, #-12]
5001346c:	e51b300c 	ldr	r3, [fp, #-12]
50013470:	e353000a 	cmp	r3, #10
50013474:	daffffca 	ble	500133a4 <wuzi_start+0x220>
50013478:	e3a03000 	mov	r3, #0
5001347c:	e50b300c 	str	r3, [fp, #-12]
50013480:	ea000031 	b	5001354c <wuzi_start+0x3c8>
50013484:	e3a0300e 	mov	r3, #14
50013488:	e50b3010 	str	r3, [fp, #-16]
5001348c:	ea000028 	b	50013534 <wuzi_start+0x3b0>
50013490:	e3a03000 	mov	r3, #0
50013494:	e50b3008 	str	r3, [fp, #-8]
50013498:	ea00001c 	b	50013510 <wuzi_start+0x38c>
5001349c:	e51b200c 	ldr	r2, [fp, #-12]
500134a0:	e51b3008 	ldr	r3, [fp, #-8]
500134a4:	e082c003 	add	ip, r2, r3
500134a8:	e51b2010 	ldr	r2, [fp, #-16]
500134ac:	e51b3008 	ldr	r3, [fp, #-8]
500134b0:	e0632002 	rsb	r2, r3, r2
500134b4:	e30d19b4 	movw	r1, #55732	; 0xd9b4
500134b8:	e3451001 	movt	r1, #20481	; 0x5001
500134bc:	e1a03002 	mov	r3, r2
500134c0:	e1a03203 	lsl	r3, r3, #4
500134c4:	e1a00183 	lsl	r0, r3, #3
500134c8:	e0833000 	add	r3, r3, r0
500134cc:	e0623003 	rsb	r3, r2, r3
500134d0:	e1a03103 	lsl	r3, r3, #2
500134d4:	e1a0200c 	mov	r2, ip
500134d8:	e1a02102 	lsl	r2, r2, #2
500134dc:	e1a00282 	lsl	r0, r2, #5
500134e0:	e0822000 	add	r2, r2, r0
500134e4:	e1a00302 	lsl	r0, r2, #6
500134e8:	e0822000 	add	r2, r2, r0
500134ec:	e0833002 	add	r3, r3, r2
500134f0:	e0812003 	add	r2, r1, r3
500134f4:	e51b3014 	ldr	r3, [fp, #-20]
500134f8:	e0823003 	add	r3, r2, r3
500134fc:	e3a02001 	mov	r2, #1
50013500:	e5c32000 	strb	r2, [r3]
50013504:	e51b3008 	ldr	r3, [fp, #-8]
50013508:	e2833001 	add	r3, r3, #1
5001350c:	e50b3008 	str	r3, [fp, #-8]
50013510:	e51b3008 	ldr	r3, [fp, #-8]
50013514:	e3530004 	cmp	r3, #4
50013518:	daffffdf 	ble	5001349c <wuzi_start+0x318>
5001351c:	e51b3014 	ldr	r3, [fp, #-20]
50013520:	e2833001 	add	r3, r3, #1
50013524:	e50b3014 	str	r3, [fp, #-20]
50013528:	e51b3010 	ldr	r3, [fp, #-16]
5001352c:	e2433001 	sub	r3, r3, #1
50013530:	e50b3010 	str	r3, [fp, #-16]
50013534:	e51b3010 	ldr	r3, [fp, #-16]
50013538:	e3530003 	cmp	r3, #3
5001353c:	caffffd3 	bgt	50013490 <wuzi_start+0x30c>
50013540:	e51b300c 	ldr	r3, [fp, #-12]
50013544:	e2833001 	add	r3, r3, #1
50013548:	e50b300c 	str	r3, [fp, #-12]
5001354c:	e51b300c 	ldr	r3, [fp, #-12]
50013550:	e353000a 	cmp	r3, #10
50013554:	daffffca 	ble	50013484 <wuzi_start+0x300>
50013558:	e30c3efc 	movw	r3, #52988	; 0xcefc
5001355c:	e3453001 	movt	r3, #20481	; 0x5001
50013560:	e3a02001 	mov	r2, #1
50013564:	e5832000 	str	r2, [r3]
50013568:	e24bd004 	sub	sp, fp, #4
5001356c:	e8bd8800 	pop	{fp, pc}

50013570 <_put_a_chessman>:
50013570:	e52db004 	push	{fp}		; (str fp, [sp, #-4]!)
50013574:	e28db000 	add	fp, sp, #0
50013578:	e24dd01c 	sub	sp, sp, #28
5001357c:	e50b0010 	str	r0, [fp, #-16]
50013580:	e50b1014 	str	r1, [fp, #-20]
50013584:	e50b2018 	str	r2, [fp, #-24]
50013588:	e51b3014 	ldr	r3, [fp, #-20]
5001358c:	e353000e 	cmp	r3, #14
50013590:	ca000008 	bgt	500135b8 <_put_a_chessman+0x48>
50013594:	e51b3018 	ldr	r3, [fp, #-24]
50013598:	e353000e 	cmp	r3, #14
5001359c:	ca000005 	bgt	500135b8 <_put_a_chessman+0x48>
500135a0:	e51b3014 	ldr	r3, [fp, #-20]
500135a4:	e3530000 	cmp	r3, #0
500135a8:	ba000002 	blt	500135b8 <_put_a_chessman+0x48>
500135ac:	e51b3018 	ldr	r3, [fp, #-24]
500135b0:	e3530000 	cmp	r3, #0
500135b4:	aa000001 	bge	500135c0 <_put_a_chessman+0x50>
500135b8:	e3a03004 	mov	r3, #4
500135bc:	ea000096 	b	5001381c <_put_a_chessman+0x2ac>
500135c0:	e30d28d0 	movw	r2, #55504	; 0xd8d0
500135c4:	e3452001 	movt	r2, #20481	; 0x5001
500135c8:	e51b1014 	ldr	r1, [fp, #-20]
500135cc:	e1a03001 	mov	r3, r1
500135d0:	e1a03203 	lsl	r3, r3, #4
500135d4:	e0613003 	rsb	r3, r1, r3
500135d8:	e51b1018 	ldr	r1, [fp, #-24]
500135dc:	e0833001 	add	r3, r3, r1
500135e0:	e0823003 	add	r3, r2, r3
500135e4:	e5d33000 	ldrb	r3, [r3]
500135e8:	e6af3073 	sxtb	r3, r3
500135ec:	e3530002 	cmp	r3, #2
500135f0:	0a000001 	beq	500135fc <_put_a_chessman+0x8c>
500135f4:	e3a03004 	mov	r3, #4
500135f8:	ea000087 	b	5001381c <_put_a_chessman+0x2ac>
500135fc:	e3a03000 	mov	r3, #0
50013600:	e50b3008 	str	r3, [fp, #-8]
50013604:	ea000065 	b	500137a0 <_put_a_chessman+0x230>
50013608:	e30d19b4 	movw	r1, #55732	; 0xd9b4
5001360c:	e3451001 	movt	r1, #20481	; 0x5001
50013610:	e51b2018 	ldr	r2, [fp, #-24]
50013614:	e51bc014 	ldr	ip, [fp, #-20]
50013618:	e1a03002 	mov	r3, r2
5001361c:	e1a03203 	lsl	r3, r3, #4
50013620:	e1a00183 	lsl	r0, r3, #3
50013624:	e0833000 	add	r3, r3, r0
50013628:	e0623003 	rsb	r3, r2, r3
5001362c:	e1a03103 	lsl	r3, r3, #2
50013630:	e1a0200c 	mov	r2, ip
50013634:	e1a02102 	lsl	r2, r2, #2
50013638:	e1a00282 	lsl	r0, r2, #5
5001363c:	e0822000 	add	r2, r2, r0
50013640:	e1a00302 	lsl	r0, r2, #6
50013644:	e0822000 	add	r2, r2, r0
50013648:	e0833002 	add	r3, r3, r2
5001364c:	e0812003 	add	r2, r1, r3
50013650:	e51b3008 	ldr	r3, [fp, #-8]
50013654:	e0823003 	add	r3, r2, r3
50013658:	e5d33000 	ldrb	r3, [r3]
5001365c:	e3530000 	cmp	r3, #0
50013660:	0a00004b 	beq	50013794 <_put_a_chessman+0x224>
50013664:	e30d2070 	movw	r2, #53360	; 0xd070
50013668:	e3452003 	movt	r2, #20483	; 0x5003
5001366c:	e51b1010 	ldr	r1, [fp, #-16]
50013670:	e1a03001 	mov	r3, r1
50013674:	e1a03203 	lsl	r3, r3, #4
50013678:	e1a00183 	lsl	r0, r3, #3
5001367c:	e0833000 	add	r3, r3, r0
50013680:	e0613003 	rsb	r3, r1, r3
50013684:	e1a03103 	lsl	r3, r3, #2
50013688:	e51b1008 	ldr	r1, [fp, #-8]
5001368c:	e0833001 	add	r3, r3, r1
50013690:	e0823003 	add	r3, r2, r3
50013694:	e5d33000 	ldrb	r3, [r3]
50013698:	e3530006 	cmp	r3, #6
5001369c:	0a00002d 	beq	50013758 <_put_a_chessman+0x1e8>
500136a0:	e30d2070 	movw	r2, #53360	; 0xd070
500136a4:	e3452003 	movt	r2, #20483	; 0x5003
500136a8:	e51b1010 	ldr	r1, [fp, #-16]
500136ac:	e1a03001 	mov	r3, r1
500136b0:	e1a03203 	lsl	r3, r3, #4
500136b4:	e1a00183 	lsl	r0, r3, #3
500136b8:	e0833000 	add	r3, r3, r0
500136bc:	e0613003 	rsb	r3, r1, r3
500136c0:	e1a03103 	lsl	r3, r3, #2
500136c4:	e51b1008 	ldr	r1, [fp, #-8]
500136c8:	e0833001 	add	r3, r3, r1
500136cc:	e0823003 	add	r3, r2, r3
500136d0:	e5d33000 	ldrb	r3, [r3]
500136d4:	e2833001 	add	r3, r3, #1
500136d8:	e6efc073 	uxtb	ip, r3
500136dc:	e30d2070 	movw	r2, #53360	; 0xd070
500136e0:	e3452003 	movt	r2, #20483	; 0x5003
500136e4:	e51b1010 	ldr	r1, [fp, #-16]
500136e8:	e1a03001 	mov	r3, r1
500136ec:	e1a03203 	lsl	r3, r3, #4
500136f0:	e1a00183 	lsl	r0, r3, #3
500136f4:	e0833000 	add	r3, r3, r0
500136f8:	e0613003 	rsb	r3, r1, r3
500136fc:	e1a03103 	lsl	r3, r3, #2
50013700:	e51b1008 	ldr	r1, [fp, #-8]
50013704:	e0833001 	add	r3, r3, r1
50013708:	e0823003 	add	r3, r2, r3
5001370c:	e1a0200c 	mov	r2, ip
50013710:	e5c32000 	strb	r2, [r3]
50013714:	e30d2070 	movw	r2, #53360	; 0xd070
50013718:	e3452003 	movt	r2, #20483	; 0x5003
5001371c:	e51b1010 	ldr	r1, [fp, #-16]
50013720:	e1a03001 	mov	r3, r1
50013724:	e1a03203 	lsl	r3, r3, #4
50013728:	e1a00183 	lsl	r0, r3, #3
5001372c:	e0833000 	add	r3, r3, r0
50013730:	e0613003 	rsb	r3, r1, r3
50013734:	e1a03103 	lsl	r3, r3, #2
50013738:	e51b1008 	ldr	r1, [fp, #-8]
5001373c:	e0833001 	add	r3, r3, r1
50013740:	e0823003 	add	r3, r2, r3
50013744:	e5d33000 	ldrb	r3, [r3]
50013748:	e3530005 	cmp	r3, #5
5001374c:	1a000001 	bne	50013758 <_put_a_chessman+0x1e8>
50013750:	e51b3010 	ldr	r3, [fp, #-16]
50013754:	ea000030 	b	5001381c <_put_a_chessman+0x2ac>
50013758:	e51b3010 	ldr	r3, [fp, #-16]
5001375c:	e2631001 	rsb	r1, r3, #1
50013760:	e30d2070 	movw	r2, #53360	; 0xd070
50013764:	e3452003 	movt	r2, #20483	; 0x5003
50013768:	e1a03001 	mov	r3, r1
5001376c:	e1a03203 	lsl	r3, r3, #4
50013770:	e1a00183 	lsl	r0, r3, #3
50013774:	e0833000 	add	r3, r3, r0
50013778:	e0613003 	rsb	r3, r1, r3
5001377c:	e1a03103 	lsl	r3, r3, #2
50013780:	e51b1008 	ldr	r1, [fp, #-8]
50013784:	e0833001 	add	r3, r3, r1
50013788:	e0823003 	add	r3, r2, r3
5001378c:	e3a02006 	mov	r2, #6
50013790:	e5c32000 	strb	r2, [r3]
50013794:	e51b3008 	ldr	r3, [fp, #-8]
50013798:	e2833001 	add	r3, r3, #1
5001379c:	e50b3008 	str	r3, [fp, #-8]
500137a0:	e51b3008 	ldr	r3, [fp, #-8]
500137a4:	e3530f8f 	cmp	r3, #572	; 0x23c
500137a8:	baffff96 	blt	50013608 <_put_a_chessman+0x98>
500137ac:	e30d38cc 	movw	r3, #55500	; 0xd8cc
500137b0:	e3453001 	movt	r3, #20481	; 0x5001
500137b4:	e5933000 	ldr	r3, [r3]
500137b8:	e2832001 	add	r2, r3, #1
500137bc:	e30d38cc 	movw	r3, #55500	; 0xd8cc
500137c0:	e3453001 	movt	r3, #20481	; 0x5001
500137c4:	e5832000 	str	r2, [r3]
500137c8:	e51b3010 	ldr	r3, [fp, #-16]
500137cc:	e6ef0073 	uxtb	r0, r3
500137d0:	e30d28d0 	movw	r2, #55504	; 0xd8d0
500137d4:	e3452001 	movt	r2, #20481	; 0x5001
500137d8:	e51b1014 	ldr	r1, [fp, #-20]
500137dc:	e1a03001 	mov	r3, r1
500137e0:	e1a03203 	lsl	r3, r3, #4
500137e4:	e0613003 	rsb	r3, r1, r3
500137e8:	e51b1018 	ldr	r1, [fp, #-24]
500137ec:	e0833001 	add	r3, r3, r1
500137f0:	e0823003 	add	r3, r2, r3
500137f4:	e1a02000 	mov	r2, r0
500137f8:	e5c32000 	strb	r2, [r3]
500137fc:	e30d38cc 	movw	r3, #55500	; 0xd8cc
50013800:	e3453001 	movt	r3, #20481	; 0x5001
50013804:	e5933000 	ldr	r3, [r3]
50013808:	e35300e1 	cmp	r3, #225	; 0xe1
5001380c:	1a000001 	bne	50013818 <_put_a_chessman+0x2a8>
50013810:	e3a03002 	mov	r3, #2
50013814:	ea000000 	b	5001381c <_put_a_chessman+0x2ac>
50013818:	e3a03003 	mov	r3, #3
5001381c:	e1a00003 	mov	r0, r3
50013820:	e24bd000 	sub	sp, fp, #0
50013824:	e49db004 	pop	{fp}		; (ldr fp, [sp], #4)
50013828:	e12fff1e 	bx	lr

5001382c <_player_do>:
5001382c:	e92d4800 	push	{fp, lr}
50013830:	e28db004 	add	fp, sp, #4
50013834:	e24dd008 	sub	sp, sp, #8
50013838:	e50b0008 	str	r0, [fp, #-8]
5001383c:	e50b100c 	str	r1, [fp, #-12]
50013840:	e51b0008 	ldr	r0, [fp, #-8]
50013844:	e51b100c 	ldr	r1, [fp, #-12]
50013848:	eb0000fd 	bl	50013c44 <wuzi_white_do>
5001384c:	e1a03000 	mov	r3, r0
50013850:	e1a00003 	mov	r0, r3
50013854:	e24bd004 	sub	sp, fp, #4
50013858:	e8bd8800 	pop	{fp, pc}

5001385c <_computer_do>:
5001385c:	e92d4800 	push	{fp, lr}
50013860:	e28db004 	add	fp, sp, #4
50013864:	e24dde75 	sub	sp, sp, #1872	; 0x750
50013868:	e50b0750 	str	r0, [fp, #-1872]	; 0x750
5001386c:	e50b1754 	str	r1, [fp, #-1876]	; 0x754
50013870:	e3073270 	movw	r3, #29296	; 0x7270
50013874:	e3453001 	movt	r3, #20481	; 0x5001
50013878:	e24bc044 	sub	ip, fp, #68	; 0x44
5001387c:	e1a0e003 	mov	lr, r3
50013880:	e8be000f 	ldm	lr!, {r0, r1, r2, r3}
50013884:	e8ac000f 	stmia	ip!, {r0, r1, r2, r3}
50013888:	e89e0007 	ldm	lr, {r0, r1, r2}
5001388c:	e88c0007 	stm	ip, {r0, r1, r2}
50013890:	e3e03000 	mvn	r3, #0
50013894:	e50b3014 	str	r3, [fp, #-20]
50013898:	e3e03000 	mvn	r3, #0
5001389c:	e50b3018 	str	r3, [fp, #-24]
500138a0:	e3a03000 	mov	r3, #0
500138a4:	e50b3008 	str	r3, [fp, #-8]
500138a8:	ea0000c3 	b	50013bbc <_computer_do+0x360>
500138ac:	e3a03000 	mov	r3, #0
500138b0:	e50b300c 	str	r3, [fp, #-12]
500138b4:	ea0000ba 	b	50013ba4 <_computer_do+0x348>
500138b8:	e51b2008 	ldr	r2, [fp, #-8]
500138bc:	e1a03002 	mov	r3, r2
500138c0:	e1a03203 	lsl	r3, r3, #4
500138c4:	e0623003 	rsb	r3, r2, r3
500138c8:	e51b200c 	ldr	r2, [fp, #-12]
500138cc:	e0833002 	add	r3, r3, r2
500138d0:	e1a03103 	lsl	r3, r3, #2
500138d4:	e24b2004 	sub	r2, fp, #4
500138d8:	e0823003 	add	r3, r2, r3
500138dc:	e3a02000 	mov	r2, #0
500138e0:	e50323c4 	str	r2, [r3, #-964]	; 0x3c4
500138e4:	e51b2008 	ldr	r2, [fp, #-8]
500138e8:	e1a03002 	mov	r3, r2
500138ec:	e1a03203 	lsl	r3, r3, #4
500138f0:	e0623003 	rsb	r3, r2, r3
500138f4:	e51b200c 	ldr	r2, [fp, #-12]
500138f8:	e0833002 	add	r3, r3, r2
500138fc:	e1a03103 	lsl	r3, r3, #2
50013900:	e24b2004 	sub	r2, fp, #4
50013904:	e0823003 	add	r3, r2, r3
50013908:	e3a02000 	mov	r2, #0
5001390c:	e5032748 	str	r2, [r3, #-1864]	; 0x748
50013910:	e30d28d0 	movw	r2, #55504	; 0xd8d0
50013914:	e3452001 	movt	r2, #20481	; 0x5001
50013918:	e51b1008 	ldr	r1, [fp, #-8]
5001391c:	e1a03001 	mov	r3, r1
50013920:	e1a03203 	lsl	r3, r3, #4
50013924:	e0613003 	rsb	r3, r1, r3
50013928:	e51b100c 	ldr	r1, [fp, #-12]
5001392c:	e0833001 	add	r3, r3, r1
50013930:	e0823003 	add	r3, r2, r3
50013934:	e5d33000 	ldrb	r3, [r3]
50013938:	e6af3073 	sxtb	r3, r3
5001393c:	e3530002 	cmp	r3, #2
50013940:	1a000094 	bne	50013b98 <_computer_do+0x33c>
50013944:	e3a03000 	mov	r3, #0
50013948:	e50b3010 	str	r3, [fp, #-16]
5001394c:	ea000056 	b	50013aac <_computer_do+0x250>
50013950:	e30d19b4 	movw	r1, #55732	; 0xd9b4
50013954:	e3451001 	movt	r1, #20481	; 0x5001
50013958:	e51b200c 	ldr	r2, [fp, #-12]
5001395c:	e51bc008 	ldr	ip, [fp, #-8]
50013960:	e1a03002 	mov	r3, r2
50013964:	e1a03203 	lsl	r3, r3, #4
50013968:	e1a00183 	lsl	r0, r3, #3
5001396c:	e0833000 	add	r3, r3, r0
50013970:	e0623003 	rsb	r3, r2, r3
50013974:	e1a03103 	lsl	r3, r3, #2
50013978:	e1a0200c 	mov	r2, ip
5001397c:	e1a02102 	lsl	r2, r2, #2
50013980:	e1a00282 	lsl	r0, r2, #5
50013984:	e0822000 	add	r2, r2, r0
50013988:	e1a00302 	lsl	r0, r2, #6
5001398c:	e0822000 	add	r2, r2, r0
50013990:	e0833002 	add	r3, r3, r2
50013994:	e0812003 	add	r2, r1, r3
50013998:	e51b3010 	ldr	r3, [fp, #-16]
5001399c:	e0823003 	add	r3, r2, r3
500139a0:	e5d33000 	ldrb	r3, [r3]
500139a4:	e3530000 	cmp	r3, #0
500139a8:	0a00003c 	beq	50013aa0 <_computer_do+0x244>
500139ac:	e51b2008 	ldr	r2, [fp, #-8]
500139b0:	e1a03002 	mov	r3, r2
500139b4:	e1a03203 	lsl	r3, r3, #4
500139b8:	e0623003 	rsb	r3, r2, r3
500139bc:	e51b200c 	ldr	r2, [fp, #-12]
500139c0:	e0833002 	add	r3, r3, r2
500139c4:	e1a03103 	lsl	r3, r3, #2
500139c8:	e24b2004 	sub	r2, fp, #4
500139cc:	e0823003 	add	r3, r2, r3
500139d0:	e51323c4 	ldr	r2, [r3, #-964]	; 0x3c4
500139d4:	e30d3070 	movw	r3, #53360	; 0xd070
500139d8:	e3453003 	movt	r3, #20483	; 0x5003
500139dc:	e51b1010 	ldr	r1, [fp, #-16]
500139e0:	e0833001 	add	r3, r3, r1
500139e4:	e5d33000 	ldrb	r3, [r3]
500139e8:	e1a03103 	lsl	r3, r3, #2
500139ec:	e24b1004 	sub	r1, fp, #4
500139f0:	e0813003 	add	r3, r1, r3
500139f4:	e5133040 	ldr	r3, [r3, #-64]	; 0x40
500139f8:	e0821003 	add	r1, r2, r3
500139fc:	e51b2008 	ldr	r2, [fp, #-8]
50013a00:	e1a03002 	mov	r3, r2
50013a04:	e1a03203 	lsl	r3, r3, #4
50013a08:	e0623003 	rsb	r3, r2, r3
50013a0c:	e51b200c 	ldr	r2, [fp, #-12]
50013a10:	e0833002 	add	r3, r3, r2
50013a14:	e1a03103 	lsl	r3, r3, #2
50013a18:	e24b2004 	sub	r2, fp, #4
50013a1c:	e0823003 	add	r3, r2, r3
50013a20:	e50313c4 	str	r1, [r3, #-964]	; 0x3c4
50013a24:	e51b2008 	ldr	r2, [fp, #-8]
50013a28:	e1a03002 	mov	r3, r2
50013a2c:	e1a03203 	lsl	r3, r3, #4
50013a30:	e0623003 	rsb	r3, r2, r3
50013a34:	e51b200c 	ldr	r2, [fp, #-12]
50013a38:	e0833002 	add	r3, r3, r2
50013a3c:	e1a03103 	lsl	r3, r3, #2
50013a40:	e24b2004 	sub	r2, fp, #4
50013a44:	e0823003 	add	r3, r2, r3
50013a48:	e5132748 	ldr	r2, [r3, #-1864]	; 0x748
50013a4c:	e30d3070 	movw	r3, #53360	; 0xd070
50013a50:	e3453003 	movt	r3, #20483	; 0x5003
50013a54:	e51b1010 	ldr	r1, [fp, #-16]
50013a58:	e0833001 	add	r3, r3, r1
50013a5c:	e2833f8f 	add	r3, r3, #572	; 0x23c
50013a60:	e5d33000 	ldrb	r3, [r3]
50013a64:	e1a03103 	lsl	r3, r3, #2
50013a68:	e24b1004 	sub	r1, fp, #4
50013a6c:	e0813003 	add	r3, r1, r3
50013a70:	e5133040 	ldr	r3, [r3, #-64]	; 0x40
50013a74:	e0821003 	add	r1, r2, r3
50013a78:	e51b2008 	ldr	r2, [fp, #-8]
50013a7c:	e1a03002 	mov	r3, r2
50013a80:	e1a03203 	lsl	r3, r3, #4
50013a84:	e0623003 	rsb	r3, r2, r3
50013a88:	e51b200c 	ldr	r2, [fp, #-12]
50013a8c:	e0833002 	add	r3, r3, r2
50013a90:	e1a03103 	lsl	r3, r3, #2
50013a94:	e24b2004 	sub	r2, fp, #4
50013a98:	e0823003 	add	r3, r2, r3
50013a9c:	e5031748 	str	r1, [r3, #-1864]	; 0x748
50013aa0:	e51b3010 	ldr	r3, [fp, #-16]
50013aa4:	e2833001 	add	r3, r3, #1
50013aa8:	e50b3010 	str	r3, [fp, #-16]
50013aac:	e51b3010 	ldr	r3, [fp, #-16]
50013ab0:	e3530f8f 	cmp	r3, #572	; 0x23c
50013ab4:	baffffa5 	blt	50013950 <_computer_do+0xf4>
50013ab8:	e51b2008 	ldr	r2, [fp, #-8]
50013abc:	e1a03002 	mov	r3, r2
50013ac0:	e1a03203 	lsl	r3, r3, #4
50013ac4:	e0623003 	rsb	r3, r2, r3
50013ac8:	e51b200c 	ldr	r2, [fp, #-12]
50013acc:	e0833002 	add	r3, r3, r2
50013ad0:	e1a03103 	lsl	r3, r3, #2
50013ad4:	e24b2004 	sub	r2, fp, #4
50013ad8:	e0823003 	add	r3, r2, r3
50013adc:	e51323c4 	ldr	r2, [r3, #-964]	; 0x3c4
50013ae0:	e51b3014 	ldr	r3, [fp, #-20]
50013ae4:	e1520003 	cmp	r2, r3
50013ae8:	da00000e 	ble	50013b28 <_computer_do+0x2cc>
50013aec:	e51b2008 	ldr	r2, [fp, #-8]
50013af0:	e1a03002 	mov	r3, r2
50013af4:	e1a03203 	lsl	r3, r3, #4
50013af8:	e0623003 	rsb	r3, r2, r3
50013afc:	e51b200c 	ldr	r2, [fp, #-12]
50013b00:	e0833002 	add	r3, r3, r2
50013b04:	e1a03103 	lsl	r3, r3, #2
50013b08:	e24b2004 	sub	r2, fp, #4
50013b0c:	e0823003 	add	r3, r2, r3
50013b10:	e51333c4 	ldr	r3, [r3, #-964]	; 0x3c4
50013b14:	e50b3014 	str	r3, [fp, #-20]
50013b18:	e51b3008 	ldr	r3, [fp, #-8]
50013b1c:	e50b301c 	str	r3, [fp, #-28]
50013b20:	e51b300c 	ldr	r3, [fp, #-12]
50013b24:	e50b3020 	str	r3, [fp, #-32]
50013b28:	e51b2008 	ldr	r2, [fp, #-8]
50013b2c:	e1a03002 	mov	r3, r2
50013b30:	e1a03203 	lsl	r3, r3, #4
50013b34:	e0623003 	rsb	r3, r2, r3
50013b38:	e51b200c 	ldr	r2, [fp, #-12]
50013b3c:	e0833002 	add	r3, r3, r2
50013b40:	e1a03103 	lsl	r3, r3, #2
50013b44:	e24b2004 	sub	r2, fp, #4
50013b48:	e0823003 	add	r3, r2, r3
50013b4c:	e5132748 	ldr	r2, [r3, #-1864]	; 0x748
50013b50:	e51b3018 	ldr	r3, [fp, #-24]
50013b54:	e1520003 	cmp	r2, r3
50013b58:	da00000e 	ble	50013b98 <_computer_do+0x33c>
50013b5c:	e51b2008 	ldr	r2, [fp, #-8]
50013b60:	e1a03002 	mov	r3, r2
50013b64:	e1a03203 	lsl	r3, r3, #4
50013b68:	e0623003 	rsb	r3, r2, r3
50013b6c:	e51b200c 	ldr	r2, [fp, #-12]
50013b70:	e0833002 	add	r3, r3, r2
50013b74:	e1a03103 	lsl	r3, r3, #2
50013b78:	e24b2004 	sub	r2, fp, #4
50013b7c:	e0823003 	add	r3, r2, r3
50013b80:	e5133748 	ldr	r3, [r3, #-1864]	; 0x748
50013b84:	e50b3018 	str	r3, [fp, #-24]
50013b88:	e51b3008 	ldr	r3, [fp, #-8]
50013b8c:	e50b3024 	str	r3, [fp, #-36]	; 0x24
50013b90:	e51b300c 	ldr	r3, [fp, #-12]
50013b94:	e50b3028 	str	r3, [fp, #-40]	; 0x28
50013b98:	e51b300c 	ldr	r3, [fp, #-12]
50013b9c:	e2833001 	add	r3, r3, #1
50013ba0:	e50b300c 	str	r3, [fp, #-12]
50013ba4:	e51b300c 	ldr	r3, [fp, #-12]
50013ba8:	e353000e 	cmp	r3, #14
50013bac:	daffff41 	ble	500138b8 <_computer_do+0x5c>
50013bb0:	e51b3008 	ldr	r3, [fp, #-8]
50013bb4:	e2833001 	add	r3, r3, #1
50013bb8:	e50b3008 	str	r3, [fp, #-8]
50013bbc:	e51b3008 	ldr	r3, [fp, #-8]
50013bc0:	e353000e 	cmp	r3, #14
50013bc4:	daffff38 	ble	500138ac <_computer_do+0x50>
50013bc8:	e51b2014 	ldr	r2, [fp, #-20]
50013bcc:	e51b3018 	ldr	r3, [fp, #-24]
50013bd0:	e1520003 	cmp	r2, r3
50013bd4:	ba000009 	blt	50013c00 <_computer_do+0x3a4>
50013bd8:	e51b3014 	ldr	r3, [fp, #-20]
50013bdc:	e3530064 	cmp	r3, #100	; 0x64
50013be0:	da000006 	ble	50013c00 <_computer_do+0x3a4>
50013be4:	e51b3750 	ldr	r3, [fp, #-1872]	; 0x750
50013be8:	e51b201c 	ldr	r2, [fp, #-28]
50013bec:	e5832000 	str	r2, [r3]
50013bf0:	e51b3754 	ldr	r3, [fp, #-1876]	; 0x754
50013bf4:	e51b2020 	ldr	r2, [fp, #-32]
50013bf8:	e5832000 	str	r2, [r3]
50013bfc:	ea000005 	b	50013c18 <_computer_do+0x3bc>
50013c00:	e51b3750 	ldr	r3, [fp, #-1872]	; 0x750
50013c04:	e51b2024 	ldr	r2, [fp, #-36]	; 0x24
50013c08:	e5832000 	str	r2, [r3]
50013c0c:	e51b3754 	ldr	r3, [fp, #-1876]	; 0x754
50013c10:	e51b2028 	ldr	r2, [fp, #-40]	; 0x28
50013c14:	e5832000 	str	r2, [r3]
50013c18:	e51b3750 	ldr	r3, [fp, #-1872]	; 0x750
50013c1c:	e5932000 	ldr	r2, [r3]
50013c20:	e51b3754 	ldr	r3, [fp, #-1876]	; 0x754
50013c24:	e5933000 	ldr	r3, [r3]
50013c28:	e1a00002 	mov	r0, r2
50013c2c:	e1a01003 	mov	r1, r3
50013c30:	eb000010 	bl	50013c78 <wuzi_black_do>
50013c34:	e1a03000 	mov	r3, r0
50013c38:	e1a00003 	mov	r0, r3
50013c3c:	e24bd004 	sub	sp, fp, #4
50013c40:	e8bd8800 	pop	{fp, pc}

50013c44 <wuzi_white_do>:
50013c44:	e92d4800 	push	{fp, lr}
50013c48:	e28db004 	add	fp, sp, #4
50013c4c:	e24dd008 	sub	sp, sp, #8
50013c50:	e50b0008 	str	r0, [fp, #-8]
50013c54:	e50b100c 	str	r1, [fp, #-12]
50013c58:	e3a00000 	mov	r0, #0
50013c5c:	e51b1008 	ldr	r1, [fp, #-8]
50013c60:	e51b200c 	ldr	r2, [fp, #-12]
50013c64:	ebfffe41 	bl	50013570 <_put_a_chessman>
50013c68:	e1a03000 	mov	r3, r0
50013c6c:	e1a00003 	mov	r0, r3
50013c70:	e24bd004 	sub	sp, fp, #4
50013c74:	e8bd8800 	pop	{fp, pc}

50013c78 <wuzi_black_do>:
50013c78:	e92d4800 	push	{fp, lr}
50013c7c:	e28db004 	add	fp, sp, #4
50013c80:	e24dd008 	sub	sp, sp, #8
50013c84:	e50b0008 	str	r0, [fp, #-8]
50013c88:	e50b100c 	str	r1, [fp, #-12]
50013c8c:	e3a00001 	mov	r0, #1
50013c90:	e51b1008 	ldr	r1, [fp, #-8]
50013c94:	e51b200c 	ldr	r2, [fp, #-12]
50013c98:	ebfffe34 	bl	50013570 <_put_a_chessman>
50013c9c:	e1a03000 	mov	r3, r0
50013ca0:	e1a00003 	mov	r0, r3
50013ca4:	e24bd004 	sub	sp, fp, #4
50013ca8:	e8bd8800 	pop	{fp, pc}

50013cac <wuzi_round_do>:
50013cac:	e92d4800 	push	{fp, lr}
50013cb0:	e28db004 	add	fp, sp, #4
50013cb4:	e24dd018 	sub	sp, sp, #24
50013cb8:	e50b0010 	str	r0, [fp, #-16]
50013cbc:	e50b1014 	str	r1, [fp, #-20]
50013cc0:	e50b2018 	str	r2, [fp, #-24]
50013cc4:	e50b301c 	str	r3, [fp, #-28]
50013cc8:	e51b0010 	ldr	r0, [fp, #-16]
50013ccc:	e51b1014 	ldr	r1, [fp, #-20]
50013cd0:	ebfffed5 	bl	5001382c <_player_do>
50013cd4:	e50b0008 	str	r0, [fp, #-8]
50013cd8:	e51b3008 	ldr	r3, [fp, #-8]
50013cdc:	e3530003 	cmp	r3, #3
50013ce0:	0a000001 	beq	50013cec <wuzi_round_do+0x40>
50013ce4:	e51b3008 	ldr	r3, [fp, #-8]
50013ce8:	ea000003 	b	50013cfc <wuzi_round_do+0x50>
50013cec:	e51b0018 	ldr	r0, [fp, #-24]
50013cf0:	e51b101c 	ldr	r1, [fp, #-28]
50013cf4:	ebfffed8 	bl	5001385c <_computer_do>
50013cf8:	e1a03000 	mov	r3, r0
50013cfc:	e1a00003 	mov	r0, r3
50013d00:	e24bd004 	sub	sp, fp, #4
50013d04:	e8bd8800 	pop	{fp, pc}

50013d08 <lib_printf>:
50013d08:	e92d000f 	push	{r0, r1, r2, r3}
50013d0c:	e92d4800 	push	{fp, lr}
50013d10:	e28db004 	add	fp, sp, #4
50013d14:	e24ddf82 	sub	sp, sp, #520	; 0x208
50013d18:	e28b3008 	add	r3, fp, #8
50013d1c:	e50b320c 	str	r3, [fp, #-524]	; 0x20c
50013d20:	e24b3f82 	sub	r3, fp, #520	; 0x208
50013d24:	e1a00003 	mov	r0, r3
50013d28:	e59b1004 	ldr	r1, [fp, #4]
50013d2c:	e51b220c 	ldr	r2, [fp, #-524]	; 0x20c
50013d30:	eb00003f 	bl	50013e34 <lib_vsprintf>
50013d34:	e24b3f82 	sub	r3, fp, #520	; 0x208
50013d38:	e50b3008 	str	r3, [fp, #-8]
50013d3c:	e51b3008 	ldr	r3, [fp, #-8]
50013d40:	e1a00003 	mov	r0, r3
50013d44:	ef000002 	svc	0x00000002
50013d48:	e50b3008 	str	r3, [fp, #-8]
50013d4c:	e3a03000 	mov	r3, #0
50013d50:	e1a00003 	mov	r0, r3
50013d54:	e24bd004 	sub	sp, fp, #4
50013d58:	e8bd4800 	pop	{fp, lr}
50013d5c:	e28dd010 	add	sp, sp, #16
50013d60:	e12fff1e 	bx	lr

50013d64 <__vputc>:
50013d64:	e52db004 	push	{fp}		; (str fp, [sp, #-4]!)
50013d68:	e28db000 	add	fp, sp, #0
50013d6c:	e24dd014 	sub	sp, sp, #20
50013d70:	e50b0008 	str	r0, [fp, #-8]
50013d74:	e50b100c 	str	r1, [fp, #-12]
50013d78:	e1a03002 	mov	r3, r2
50013d7c:	e54b300d 	strb	r3, [fp, #-13]
50013d80:	e51b300c 	ldr	r3, [fp, #-12]
50013d84:	e5933000 	ldr	r3, [r3]
50013d88:	e51b2008 	ldr	r2, [fp, #-8]
50013d8c:	e0823003 	add	r3, r2, r3
50013d90:	e55b200d 	ldrb	r2, [fp, #-13]
50013d94:	e5c32000 	strb	r2, [r3]
50013d98:	e51b300c 	ldr	r3, [fp, #-12]
50013d9c:	e5933000 	ldr	r3, [r3]
50013da0:	e2832001 	add	r2, r3, #1
50013da4:	e51b300c 	ldr	r3, [fp, #-12]
50013da8:	e5832000 	str	r2, [r3]
50013dac:	e3a03001 	mov	r3, #1
50013db0:	e1a00003 	mov	r0, r3
50013db4:	e24bd000 	sub	sp, fp, #0
50013db8:	e49db004 	pop	{fp}		; (ldr fp, [sp], #4)
50013dbc:	e12fff1e 	bx	lr

50013dc0 <__vputs>:
50013dc0:	e92d4800 	push	{fp, lr}
50013dc4:	e28db004 	add	fp, sp, #4
50013dc8:	e24dd018 	sub	sp, sp, #24
50013dcc:	e50b0010 	str	r0, [fp, #-16]
50013dd0:	e50b1014 	str	r1, [fp, #-20]
50013dd4:	e50b2018 	str	r2, [fp, #-24]
50013dd8:	e3a03000 	mov	r3, #0
50013ddc:	e50b3008 	str	r3, [fp, #-8]
50013de0:	ea00000b 	b	50013e14 <__vputs+0x54>
50013de4:	e51b3018 	ldr	r3, [fp, #-24]
50013de8:	e5d33000 	ldrb	r3, [r3]
50013dec:	e51b0010 	ldr	r0, [fp, #-16]
50013df0:	e51b1014 	ldr	r1, [fp, #-20]
50013df4:	e1a02003 	mov	r2, r3
50013df8:	ebffffd9 	bl	50013d64 <__vputc>
50013dfc:	e51b3018 	ldr	r3, [fp, #-24]
50013e00:	e2833001 	add	r3, r3, #1
50013e04:	e50b3018 	str	r3, [fp, #-24]
50013e08:	e51b3008 	ldr	r3, [fp, #-8]
50013e0c:	e2833001 	add	r3, r3, #1
50013e10:	e50b3008 	str	r3, [fp, #-8]
50013e14:	e51b3018 	ldr	r3, [fp, #-24]
50013e18:	e5d33000 	ldrb	r3, [r3]
50013e1c:	e3530000 	cmp	r3, #0
50013e20:	1affffef 	bne	50013de4 <__vputs+0x24>
50013e24:	e51b3008 	ldr	r3, [fp, #-8]
50013e28:	e1a00003 	mov	r0, r3
50013e2c:	e24bd004 	sub	sp, fp, #4
50013e30:	e8bd8800 	pop	{fp, pc}

50013e34 <lib_vsprintf>:
50013e34:	e92d4800 	push	{fp, lr}
50013e38:	e28db004 	add	fp, sp, #4
50013e3c:	e24dd040 	sub	sp, sp, #64	; 0x40
50013e40:	e50b0038 	str	r0, [fp, #-56]	; 0x38
50013e44:	e50b103c 	str	r1, [fp, #-60]	; 0x3c
50013e48:	e50b2040 	str	r2, [fp, #-64]	; 0x40
50013e4c:	e3a03000 	mov	r3, #0
50013e50:	e50b3030 	str	r3, [fp, #-48]	; 0x30
50013e54:	e3a03000 	mov	r3, #0
50013e58:	e50b301c 	str	r3, [fp, #-28]
50013e5c:	e51b301c 	ldr	r3, [fp, #-28]
50013e60:	e50b3018 	str	r3, [fp, #-24]
50013e64:	ea000137 	b	50014348 <lib_vsprintf+0x514>
50013e68:	e51b303c 	ldr	r3, [fp, #-60]	; 0x3c
50013e6c:	e2832001 	add	r2, r3, #1
50013e70:	e50b203c 	str	r2, [fp, #-60]	; 0x3c
50013e74:	e5d33000 	ldrb	r3, [r3]
50013e78:	e54b3005 	strb	r3, [fp, #-5]
50013e7c:	e55b3005 	ldrb	r3, [fp, #-5]
50013e80:	e3530000 	cmp	r3, #0
50013e84:	1a000000 	bne	50013e8c <lib_vsprintf+0x58>
50013e88:	ea000131 	b	50014354 <lib_vsprintf+0x520>
50013e8c:	e55b3005 	ldrb	r3, [fp, #-5]
50013e90:	e3530025 	cmp	r3, #37	; 0x25
50013e94:	0a00000d 	beq	50013ed0 <lib_vsprintf+0x9c>
50013e98:	e24b2030 	sub	r2, fp, #48	; 0x30
50013e9c:	e55b3005 	ldrb	r3, [fp, #-5]
50013ea0:	e51b0038 	ldr	r0, [fp, #-56]	; 0x38
50013ea4:	e1a01002 	mov	r1, r2
50013ea8:	e1a02003 	mov	r2, r3
50013eac:	ebffffac 	bl	50013d64 <__vputc>
50013eb0:	e50b0018 	str	r0, [fp, #-24]
50013eb4:	e51b3018 	ldr	r3, [fp, #-24]
50013eb8:	e3730001 	cmn	r3, #1
50013ebc:	0a000002 	beq	50013ecc <lib_vsprintf+0x98>
50013ec0:	e3a03001 	mov	r3, #1
50013ec4:	e50b3018 	str	r3, [fp, #-24]
50013ec8:	ea00011a 	b	50014338 <lib_vsprintf+0x504>
50013ecc:	ea000119 	b	50014338 <lib_vsprintf+0x504>
50013ed0:	e3a03000 	mov	r3, #0
50013ed4:	e54b3006 	strb	r3, [fp, #-6]
50013ed8:	e3a03000 	mov	r3, #0
50013edc:	e50b3014 	str	r3, [fp, #-20]
50013ee0:	e51b303c 	ldr	r3, [fp, #-60]	; 0x3c
50013ee4:	e2832001 	add	r2, r3, #1
50013ee8:	e50b203c 	str	r2, [fp, #-60]	; 0x3c
50013eec:	e5d33000 	ldrb	r3, [r3]
50013ef0:	e54b3005 	strb	r3, [fp, #-5]
50013ef4:	e55b3005 	ldrb	r3, [fp, #-5]
50013ef8:	e3530025 	cmp	r3, #37	; 0x25
50013efc:	1a000007 	bne	50013f20 <lib_vsprintf+0xec>
50013f00:	e24b2030 	sub	r2, fp, #48	; 0x30
50013f04:	e55b3005 	ldrb	r3, [fp, #-5]
50013f08:	e51b0038 	ldr	r0, [fp, #-56]	; 0x38
50013f0c:	e1a01002 	mov	r1, r2
50013f10:	e1a02003 	mov	r2, r3
50013f14:	ebffff92 	bl	50013d64 <__vputc>
50013f18:	e50b0018 	str	r0, [fp, #-24]
50013f1c:	ea000105 	b	50014338 <lib_vsprintf+0x504>
50013f20:	e55b3005 	ldrb	r3, [fp, #-5]
50013f24:	e3530030 	cmp	r3, #48	; 0x30
50013f28:	1a000006 	bne	50013f48 <lib_vsprintf+0x114>
50013f2c:	e3a03001 	mov	r3, #1
50013f30:	e54b3006 	strb	r3, [fp, #-6]
50013f34:	e51b303c 	ldr	r3, [fp, #-60]	; 0x3c
50013f38:	e2832001 	add	r2, r3, #1
50013f3c:	e50b203c 	str	r2, [fp, #-60]	; 0x3c
50013f40:	e5d33000 	ldrb	r3, [r3]
50013f44:	e54b3005 	strb	r3, [fp, #-5]
50013f48:	e55b3005 	ldrb	r3, [fp, #-5]
50013f4c:	e3530020 	cmp	r3, #32
50013f50:	1a000004 	bne	50013f68 <lib_vsprintf+0x134>
50013f54:	e51b303c 	ldr	r3, [fp, #-60]	; 0x3c
50013f58:	e2832001 	add	r2, r3, #1
50013f5c:	e50b203c 	str	r2, [fp, #-60]	; 0x3c
50013f60:	e5d33000 	ldrb	r3, [r3]
50013f64:	e54b3005 	strb	r3, [fp, #-5]
50013f68:	ea00000c 	b	50013fa0 <lib_vsprintf+0x16c>
50013f6c:	e51b3014 	ldr	r3, [fp, #-20]
50013f70:	e1a03083 	lsl	r3, r3, #1
50013f74:	e1a02103 	lsl	r2, r3, #2
50013f78:	e0832002 	add	r2, r3, r2
50013f7c:	e55b3005 	ldrb	r3, [fp, #-5]
50013f80:	e2433030 	sub	r3, r3, #48	; 0x30
50013f84:	e0823003 	add	r3, r2, r3
50013f88:	e50b3014 	str	r3, [fp, #-20]
50013f8c:	e51b303c 	ldr	r3, [fp, #-60]	; 0x3c
50013f90:	e2832001 	add	r2, r3, #1
50013f94:	e50b203c 	str	r2, [fp, #-60]	; 0x3c
50013f98:	e5d33000 	ldrb	r3, [r3]
50013f9c:	e54b3005 	strb	r3, [fp, #-5]
50013fa0:	e55b3005 	ldrb	r3, [fp, #-5]
50013fa4:	e353002f 	cmp	r3, #47	; 0x2f
50013fa8:	9a000002 	bls	50013fb8 <lib_vsprintf+0x184>
50013fac:	e55b3005 	ldrb	r3, [fp, #-5]
50013fb0:	e3530039 	cmp	r3, #57	; 0x39
50013fb4:	9affffec 	bls	50013f6c <lib_vsprintf+0x138>
50013fb8:	e55b3005 	ldrb	r3, [fp, #-5]
50013fbc:	e3530073 	cmp	r3, #115	; 0x73
50013fc0:	1a00000a 	bne	50013ff0 <lib_vsprintf+0x1bc>
50013fc4:	e51b3040 	ldr	r3, [fp, #-64]	; 0x40
50013fc8:	e2832004 	add	r2, r3, #4
50013fcc:	e50b2040 	str	r2, [fp, #-64]	; 0x40
50013fd0:	e5933000 	ldr	r3, [r3]
50013fd4:	e24b2030 	sub	r2, fp, #48	; 0x30
50013fd8:	e51b0038 	ldr	r0, [fp, #-56]	; 0x38
50013fdc:	e1a01002 	mov	r1, r2
50013fe0:	e1a02003 	mov	r2, r3
50013fe4:	ebffff75 	bl	50013dc0 <__vputs>
50013fe8:	e50b0018 	str	r0, [fp, #-24]
50013fec:	ea0000d1 	b	50014338 <lib_vsprintf+0x504>
50013ff0:	e55b3005 	ldrb	r3, [fp, #-5]
50013ff4:	e3530063 	cmp	r3, #99	; 0x63
50013ff8:	1a000011 	bne	50014044 <lib_vsprintf+0x210>
50013ffc:	e51b3040 	ldr	r3, [fp, #-64]	; 0x40
50014000:	e2832004 	add	r2, r3, #4
50014004:	e50b2040 	str	r2, [fp, #-64]	; 0x40
50014008:	e5933000 	ldr	r3, [r3]
5001400c:	e6ef3073 	uxtb	r3, r3
50014010:	e24b2030 	sub	r2, fp, #48	; 0x30
50014014:	e51b0038 	ldr	r0, [fp, #-56]	; 0x38
50014018:	e1a01002 	mov	r1, r2
5001401c:	e1a02003 	mov	r2, r3
50014020:	ebffff4f 	bl	50013d64 <__vputc>
50014024:	e50b0018 	str	r0, [fp, #-24]
50014028:	e51b3018 	ldr	r3, [fp, #-24]
5001402c:	e3730001 	cmn	r3, #1
50014030:	0a000002 	beq	50014040 <lib_vsprintf+0x20c>
50014034:	e3a03001 	mov	r3, #1
50014038:	e50b3018 	str	r3, [fp, #-24]
5001403c:	ea0000bd 	b	50014338 <lib_vsprintf+0x504>
50014040:	ea0000bc 	b	50014338 <lib_vsprintf+0x504>
50014044:	e55b3005 	ldrb	r3, [fp, #-5]
50014048:	e353006c 	cmp	r3, #108	; 0x6c
5001404c:	1a000012 	bne	5001409c <lib_vsprintf+0x268>
50014050:	e55b3006 	ldrb	r3, [fp, #-6]
50014054:	e3833002 	orr	r3, r3, #2
50014058:	e54b3006 	strb	r3, [fp, #-6]
5001405c:	e51b303c 	ldr	r3, [fp, #-60]	; 0x3c
50014060:	e2832001 	add	r2, r3, #1
50014064:	e50b203c 	str	r2, [fp, #-60]	; 0x3c
50014068:	e5d33000 	ldrb	r3, [r3]
5001406c:	e54b3005 	strb	r3, [fp, #-5]
50014070:	e55b3005 	ldrb	r3, [fp, #-5]
50014074:	e353006c 	cmp	r3, #108	; 0x6c
50014078:	1a000007 	bne	5001409c <lib_vsprintf+0x268>
5001407c:	e55b3006 	ldrb	r3, [fp, #-6]
50014080:	e3833008 	orr	r3, r3, #8
50014084:	e54b3006 	strb	r3, [fp, #-6]
50014088:	e51b303c 	ldr	r3, [fp, #-60]	; 0x3c
5001408c:	e2832001 	add	r2, r3, #1
50014090:	e50b203c 	str	r2, [fp, #-60]	; 0x3c
50014094:	e5d33000 	ldrb	r3, [r3]
50014098:	e54b3005 	strb	r3, [fp, #-5]
5001409c:	e3a03000 	mov	r3, #0
500140a0:	e54b3007 	strb	r3, [fp, #-7]
500140a4:	e55b3005 	ldrb	r3, [fp, #-5]
500140a8:	e3530064 	cmp	r3, #100	; 0x64
500140ac:	1a000001 	bne	500140b8 <lib_vsprintf+0x284>
500140b0:	e3a0300a 	mov	r3, #10
500140b4:	e54b3007 	strb	r3, [fp, #-7]
500140b8:	e55b3005 	ldrb	r3, [fp, #-5]
500140bc:	e3530075 	cmp	r3, #117	; 0x75
500140c0:	1a000001 	bne	500140cc <lib_vsprintf+0x298>
500140c4:	e3a0300a 	mov	r3, #10
500140c8:	e54b3007 	strb	r3, [fp, #-7]
500140cc:	e55b3005 	ldrb	r3, [fp, #-5]
500140d0:	e3530058 	cmp	r3, #88	; 0x58
500140d4:	0a000005 	beq	500140f0 <lib_vsprintf+0x2bc>
500140d8:	e55b3005 	ldrb	r3, [fp, #-5]
500140dc:	e3530078 	cmp	r3, #120	; 0x78
500140e0:	0a000002 	beq	500140f0 <lib_vsprintf+0x2bc>
500140e4:	e55b3005 	ldrb	r3, [fp, #-5]
500140e8:	e3530070 	cmp	r3, #112	; 0x70
500140ec:	1a000001 	bne	500140f8 <lib_vsprintf+0x2c4>
500140f0:	e3a03010 	mov	r3, #16
500140f4:	e54b3007 	strb	r3, [fp, #-7]
500140f8:	e55b3007 	ldrb	r3, [fp, #-7]
500140fc:	e3530000 	cmp	r3, #0
50014100:	1a000000 	bne	50014108 <lib_vsprintf+0x2d4>
50014104:	ea000092 	b	50014354 <lib_vsprintf+0x520>
50014108:	e55b3006 	ldrb	r3, [fp, #-6]
5001410c:	e2033008 	and	r3, r3, #8
50014110:	e3530000 	cmp	r3, #0
50014114:	0a000008 	beq	5001413c <lib_vsprintf+0x308>
50014118:	e51b3040 	ldr	r3, [fp, #-64]	; 0x40
5001411c:	e2833007 	add	r3, r3, #7
50014120:	e3c33007 	bic	r3, r3, #7
50014124:	e2832008 	add	r2, r3, #8
50014128:	e50b2040 	str	r2, [fp, #-64]	; 0x40
5001412c:	e1c320d0 	ldrd	r2, [r3]
50014130:	e1a03002 	mov	r3, r2
50014134:	e50b300c 	str	r3, [fp, #-12]
50014138:	ea000016 	b	50014198 <lib_vsprintf+0x364>
5001413c:	e55b3006 	ldrb	r3, [fp, #-6]
50014140:	e2033002 	and	r3, r3, #2
50014144:	e3530000 	cmp	r3, #0
50014148:	0a000005 	beq	50014164 <lib_vsprintf+0x330>
5001414c:	e51b3040 	ldr	r3, [fp, #-64]	; 0x40
50014150:	e2832004 	add	r2, r3, #4
50014154:	e50b2040 	str	r2, [fp, #-64]	; 0x40
50014158:	e5933000 	ldr	r3, [r3]
5001415c:	e50b300c 	str	r3, [fp, #-12]
50014160:	ea00000c 	b	50014198 <lib_vsprintf+0x364>
50014164:	e55b3005 	ldrb	r3, [fp, #-5]
50014168:	e3530064 	cmp	r3, #100	; 0x64
5001416c:	1a000004 	bne	50014184 <lib_vsprintf+0x350>
50014170:	e51b3040 	ldr	r3, [fp, #-64]	; 0x40
50014174:	e2832004 	add	r2, r3, #4
50014178:	e50b2040 	str	r2, [fp, #-64]	; 0x40
5001417c:	e5933000 	ldr	r3, [r3]
50014180:	ea000003 	b	50014194 <lib_vsprintf+0x360>
50014184:	e51b3040 	ldr	r3, [fp, #-64]	; 0x40
50014188:	e2832004 	add	r2, r3, #4
5001418c:	e50b2040 	str	r2, [fp, #-64]	; 0x40
50014190:	e5933000 	ldr	r3, [r3]
50014194:	e50b300c 	str	r3, [fp, #-12]
50014198:	e55b3005 	ldrb	r3, [fp, #-5]
5001419c:	e3530064 	cmp	r3, #100	; 0x64
500141a0:	1a000008 	bne	500141c8 <lib_vsprintf+0x394>
500141a4:	e51b300c 	ldr	r3, [fp, #-12]
500141a8:	e3530000 	cmp	r3, #0
500141ac:	aa000005 	bge	500141c8 <lib_vsprintf+0x394>
500141b0:	e51b300c 	ldr	r3, [fp, #-12]
500141b4:	e2633000 	rsb	r3, r3, #0
500141b8:	e50b300c 	str	r3, [fp, #-12]
500141bc:	e55b3006 	ldrb	r3, [fp, #-6]
500141c0:	e3833004 	orr	r3, r3, #4
500141c4:	e54b3006 	strb	r3, [fp, #-6]
500141c8:	e3a0300f 	mov	r3, #15
500141cc:	e50b3010 	str	r3, [fp, #-16]
500141d0:	e24b202c 	sub	r2, fp, #44	; 0x2c
500141d4:	e51b3010 	ldr	r3, [fp, #-16]
500141d8:	e0823003 	add	r3, r2, r3
500141dc:	e3a02000 	mov	r2, #0
500141e0:	e5c32000 	strb	r2, [r3]
500141e4:	e55b3007 	ldrb	r3, [fp, #-7]
500141e8:	e51b200c 	ldr	r2, [fp, #-12]
500141ec:	e1a00002 	mov	r0, r2
500141f0:	e1a01003 	mov	r1, r3
500141f4:	eb000267 	bl	50014b98 <__aeabi_uidivmod>
500141f8:	e1a03001 	mov	r3, r1
500141fc:	e6ef3073 	uxtb	r3, r3
50014200:	e2833030 	add	r3, r3, #48	; 0x30
50014204:	e54b3005 	strb	r3, [fp, #-5]
50014208:	e55b3005 	ldrb	r3, [fp, #-5]
5001420c:	e3530039 	cmp	r3, #57	; 0x39
50014210:	9a000002 	bls	50014220 <lib_vsprintf+0x3ec>
50014214:	e55b3005 	ldrb	r3, [fp, #-5]
50014218:	e2833007 	add	r3, r3, #7
5001421c:	e54b3005 	strb	r3, [fp, #-5]
50014220:	e51b3010 	ldr	r3, [fp, #-16]
50014224:	e2433001 	sub	r3, r3, #1
50014228:	e50b3010 	str	r3, [fp, #-16]
5001422c:	e24b202c 	sub	r2, fp, #44	; 0x2c
50014230:	e51b3010 	ldr	r3, [fp, #-16]
50014234:	e0823003 	add	r3, r2, r3
50014238:	e55b2005 	ldrb	r2, [fp, #-5]
5001423c:	e5c32000 	strb	r2, [r3]
50014240:	e55b3007 	ldrb	r3, [fp, #-7]
50014244:	e51b000c 	ldr	r0, [fp, #-12]
50014248:	e1a01003 	mov	r1, r3
5001424c:	eb0001d6 	bl	500149ac <__aeabi_uidiv>
50014250:	e1a03000 	mov	r3, r0
50014254:	e50b300c 	str	r3, [fp, #-12]
50014258:	e51b3010 	ldr	r3, [fp, #-16]
5001425c:	e3530000 	cmp	r3, #0
50014260:	0a000002 	beq	50014270 <lib_vsprintf+0x43c>
50014264:	e51b300c 	ldr	r3, [fp, #-12]
50014268:	e3530000 	cmp	r3, #0
5001426c:	1affffdc 	bne	500141e4 <lib_vsprintf+0x3b0>
50014270:	e51b3010 	ldr	r3, [fp, #-16]
50014274:	e3530000 	cmp	r3, #0
50014278:	0a00000b 	beq	500142ac <lib_vsprintf+0x478>
5001427c:	e55b3006 	ldrb	r3, [fp, #-6]
50014280:	e2033004 	and	r3, r3, #4
50014284:	e3530000 	cmp	r3, #0
50014288:	0a000007 	beq	500142ac <lib_vsprintf+0x478>
5001428c:	e51b3010 	ldr	r3, [fp, #-16]
50014290:	e2433001 	sub	r3, r3, #1
50014294:	e50b3010 	str	r3, [fp, #-16]
50014298:	e24b202c 	sub	r2, fp, #44	; 0x2c
5001429c:	e51b3010 	ldr	r3, [fp, #-16]
500142a0:	e0823003 	add	r3, r2, r3
500142a4:	e3a0202d 	mov	r2, #45	; 0x2d
500142a8:	e5c32000 	strb	r2, [r3]
500142ac:	e51b3014 	ldr	r3, [fp, #-20]
500142b0:	e263300f 	rsb	r3, r3, #15
500142b4:	e50b3014 	str	r3, [fp, #-20]
500142b8:	ea00000e 	b	500142f8 <lib_vsprintf+0x4c4>
500142bc:	e51b3010 	ldr	r3, [fp, #-16]
500142c0:	e2433001 	sub	r3, r3, #1
500142c4:	e50b3010 	str	r3, [fp, #-16]
500142c8:	e55b3006 	ldrb	r3, [fp, #-6]
500142cc:	e2033001 	and	r3, r3, #1
500142d0:	e3530000 	cmp	r3, #0
500142d4:	0a000001 	beq	500142e0 <lib_vsprintf+0x4ac>
500142d8:	e3a01030 	mov	r1, #48	; 0x30
500142dc:	ea000000 	b	500142e4 <lib_vsprintf+0x4b0>
500142e0:	e3a01020 	mov	r1, #32
500142e4:	e24b202c 	sub	r2, fp, #44	; 0x2c
500142e8:	e51b3010 	ldr	r3, [fp, #-16]
500142ec:	e0823003 	add	r3, r2, r3
500142f0:	e1a02001 	mov	r2, r1
500142f4:	e5c32000 	strb	r2, [r3]
500142f8:	e51b3010 	ldr	r3, [fp, #-16]
500142fc:	e3530000 	cmp	r3, #0
50014300:	0a000003 	beq	50014314 <lib_vsprintf+0x4e0>
50014304:	e51b2010 	ldr	r2, [fp, #-16]
50014308:	e51b3014 	ldr	r3, [fp, #-20]
5001430c:	e1520003 	cmp	r2, r3
50014310:	caffffe9 	bgt	500142bc <lib_vsprintf+0x488>
50014314:	e24b202c 	sub	r2, fp, #44	; 0x2c
50014318:	e51b3010 	ldr	r3, [fp, #-16]
5001431c:	e0823003 	add	r3, r2, r3
50014320:	e24b2030 	sub	r2, fp, #48	; 0x30
50014324:	e51b0038 	ldr	r0, [fp, #-56]	; 0x38
50014328:	e1a01002 	mov	r1, r2
5001432c:	e1a02003 	mov	r2, r3
50014330:	ebfffea2 	bl	50013dc0 <__vputs>
50014334:	e50b0018 	str	r0, [fp, #-24]
50014338:	e51b201c 	ldr	r2, [fp, #-28]
5001433c:	e51b3018 	ldr	r3, [fp, #-24]
50014340:	e0823003 	add	r3, r2, r3
50014344:	e50b301c 	str	r3, [fp, #-28]
50014348:	e51b3018 	ldr	r3, [fp, #-24]
5001434c:	e3730001 	cmn	r3, #1
50014350:	1afffec4 	bne	50013e68 <lib_vsprintf+0x34>
50014354:	e24b3030 	sub	r3, fp, #48	; 0x30
50014358:	e51b0038 	ldr	r0, [fp, #-56]	; 0x38
5001435c:	e1a01003 	mov	r1, r3
50014360:	e3a02000 	mov	r2, #0
50014364:	ebfffe7e 	bl	50013d64 <__vputc>
50014368:	e51b3030 	ldr	r3, [fp, #-48]	; 0x30
5001436c:	e1a00003 	mov	r0, r3
50014370:	e24bd004 	sub	sp, fp, #4
50014374:	e8bd8800 	pop	{fp, pc}

50014378 <MXI_irqRegister>:
50014378:	e92d4800 	push	{fp, lr}
5001437c:	e28db004 	add	fp, sp, #4
50014380:	e24dd018 	sub	sp, sp, #24
50014384:	e50b0010 	str	r0, [fp, #-16]
50014388:	e3a03000 	mov	r3, #0
5001438c:	e50b300c 	str	r3, [fp, #-12]
50014390:	e51b3010 	ldr	r3, [fp, #-16]
50014394:	e50b3008 	str	r3, [fp, #-8]
50014398:	e24b300c 	sub	r3, fp, #12
5001439c:	e3a02002 	mov	r2, #2
500143a0:	e5c32000 	strb	r2, [r3]
500143a4:	e24b300c 	sub	r3, fp, #12
500143a8:	e3a02001 	mov	r2, #1
500143ac:	e5c32001 	strb	r2, [r3, #1]
500143b0:	e51b200c 	ldr	r2, [fp, #-12]
500143b4:	e24b300c 	sub	r3, fp, #12
500143b8:	e58d3000 	str	r3, [sp]
500143bc:	e1a00002 	mov	r0, r2
500143c0:	e51b1008 	ldr	r1, [fp, #-8]
500143c4:	e3a02000 	mov	r2, #0
500143c8:	e3a03000 	mov	r3, #0
500143cc:	eb00013c 	bl	500148c4 <MX_Syscall41>
500143d0:	e24b300c 	sub	r3, fp, #12
500143d4:	e5d33002 	ldrb	r3, [r3, #2]
500143d8:	e1a00003 	mov	r0, r3
500143dc:	e24bd004 	sub	sp, fp, #4
500143e0:	e8bd8800 	pop	{fp, pc}

500143e4 <MXI_irqAttach>:
500143e4:	e92d4800 	push	{fp, lr}
500143e8:	e28db004 	add	fp, sp, #4
500143ec:	e24dd018 	sub	sp, sp, #24
500143f0:	e50b0010 	str	r0, [fp, #-16]
500143f4:	e3a03000 	mov	r3, #0
500143f8:	e50b300c 	str	r3, [fp, #-12]
500143fc:	e51b3010 	ldr	r3, [fp, #-16]
50014400:	e50b3008 	str	r3, [fp, #-8]
50014404:	e24b300c 	sub	r3, fp, #12
50014408:	e3a02002 	mov	r2, #2
5001440c:	e5c32000 	strb	r2, [r3]
50014410:	e24b300c 	sub	r3, fp, #12
50014414:	e3a02002 	mov	r2, #2
50014418:	e5c32001 	strb	r2, [r3, #1]
5001441c:	e51b200c 	ldr	r2, [fp, #-12]
50014420:	e24b300c 	sub	r3, fp, #12
50014424:	e58d3000 	str	r3, [sp]
50014428:	e1a00002 	mov	r0, r2
5001442c:	e51b1008 	ldr	r1, [fp, #-8]
50014430:	e3a02000 	mov	r2, #0
50014434:	e3a03000 	mov	r3, #0
50014438:	eb000121 	bl	500148c4 <MX_Syscall41>
5001443c:	e24b300c 	sub	r3, fp, #12
50014440:	e5d33002 	ldrb	r3, [r3, #2]
50014444:	e1a00003 	mov	r0, r3
50014448:	e24bd004 	sub	sp, fp, #4
5001444c:	e8bd8800 	pop	{fp, pc}

50014450 <MXI_irqEnable>:
50014450:	e92d4800 	push	{fp, lr}
50014454:	e28db004 	add	fp, sp, #4
50014458:	e24dd018 	sub	sp, sp, #24
5001445c:	e50b0010 	str	r0, [fp, #-16]
50014460:	e3a03000 	mov	r3, #0
50014464:	e50b300c 	str	r3, [fp, #-12]
50014468:	e51b3010 	ldr	r3, [fp, #-16]
5001446c:	e50b3008 	str	r3, [fp, #-8]
50014470:	e24b300c 	sub	r3, fp, #12
50014474:	e3a02002 	mov	r2, #2
50014478:	e5c32000 	strb	r2, [r3]
5001447c:	e24b300c 	sub	r3, fp, #12
50014480:	e3a02003 	mov	r2, #3
50014484:	e5c32001 	strb	r2, [r3, #1]
50014488:	e51b200c 	ldr	r2, [fp, #-12]
5001448c:	e24b300c 	sub	r3, fp, #12
50014490:	e58d3000 	str	r3, [sp]
50014494:	e1a00002 	mov	r0, r2
50014498:	e51b1008 	ldr	r1, [fp, #-8]
5001449c:	e3a02000 	mov	r2, #0
500144a0:	e3a03000 	mov	r3, #0
500144a4:	eb000106 	bl	500148c4 <MX_Syscall41>
500144a8:	e24b300c 	sub	r3, fp, #12
500144ac:	e5d33002 	ldrb	r3, [r3, #2]
500144b0:	e1a00003 	mov	r0, r3
500144b4:	e24bd004 	sub	sp, fp, #4
500144b8:	e8bd8800 	pop	{fp, pc}

500144bc <MXI_irqDisable>:
500144bc:	e92d4800 	push	{fp, lr}
500144c0:	e28db004 	add	fp, sp, #4
500144c4:	e24dd018 	sub	sp, sp, #24
500144c8:	e50b0010 	str	r0, [fp, #-16]
500144cc:	e3a03000 	mov	r3, #0
500144d0:	e50b300c 	str	r3, [fp, #-12]
500144d4:	e51b3010 	ldr	r3, [fp, #-16]
500144d8:	e50b3008 	str	r3, [fp, #-8]
500144dc:	e24b300c 	sub	r3, fp, #12
500144e0:	e3a02002 	mov	r2, #2
500144e4:	e5c32000 	strb	r2, [r3]
500144e8:	e24b300c 	sub	r3, fp, #12
500144ec:	e3a02004 	mov	r2, #4
500144f0:	e5c32001 	strb	r2, [r3, #1]
500144f4:	e51b200c 	ldr	r2, [fp, #-12]
500144f8:	e24b300c 	sub	r3, fp, #12
500144fc:	e58d3000 	str	r3, [sp]
50014500:	e1a00002 	mov	r0, r2
50014504:	e51b1008 	ldr	r1, [fp, #-8]
50014508:	e3a02000 	mov	r2, #0
5001450c:	e3a03000 	mov	r3, #0
50014510:	eb0000eb 	bl	500148c4 <MX_Syscall41>
50014514:	e24b300c 	sub	r3, fp, #12
50014518:	e5d33002 	ldrb	r3, [r3, #2]
5001451c:	e1a00003 	mov	r0, r3
50014520:	e24bd004 	sub	sp, fp, #4
50014524:	e8bd8800 	pop	{fp, pc}

50014528 <MXI_swiRegister>:
50014528:	e92d4800 	push	{fp, lr}
5001452c:	e28db004 	add	fp, sp, #4
50014530:	e24dd020 	sub	sp, sp, #32
50014534:	e50b0018 	str	r0, [fp, #-24]
50014538:	e50b101c 	str	r1, [fp, #-28]
5001453c:	e3a03000 	mov	r3, #0
50014540:	e50b3010 	str	r3, [fp, #-16]
50014544:	e51b3018 	ldr	r3, [fp, #-24]
50014548:	e50b3008 	str	r3, [fp, #-8]
5001454c:	e51b301c 	ldr	r3, [fp, #-28]
50014550:	e50b300c 	str	r3, [fp, #-12]
50014554:	e24b3010 	sub	r3, fp, #16
50014558:	e3a02002 	mov	r2, #2
5001455c:	e5c32000 	strb	r2, [r3]
50014560:	e24b3010 	sub	r3, fp, #16
50014564:	e3a02009 	mov	r2, #9
50014568:	e5c32001 	strb	r2, [r3, #1]
5001456c:	e51b2010 	ldr	r2, [fp, #-16]
50014570:	e24b3010 	sub	r3, fp, #16
50014574:	e58d3000 	str	r3, [sp]
50014578:	e1a00002 	mov	r0, r2
5001457c:	e51b1008 	ldr	r1, [fp, #-8]
50014580:	e51b200c 	ldr	r2, [fp, #-12]
50014584:	e3a03000 	mov	r3, #0
50014588:	eb0000cd 	bl	500148c4 <MX_Syscall41>
5001458c:	e24b3010 	sub	r3, fp, #16
50014590:	e5d33002 	ldrb	r3, [r3, #2]
50014594:	e1a00003 	mov	r0, r3
50014598:	e24bd004 	sub	sp, fp, #4
5001459c:	e8bd8800 	pop	{fp, pc}

500145a0 <MXI_vcpuCreate>:
500145a0:	e92d4800 	push	{fp, lr}
500145a4:	e28db004 	add	fp, sp, #4
500145a8:	e24dd020 	sub	sp, sp, #32
500145ac:	e50b0010 	str	r0, [fp, #-16]
500145b0:	e50b1014 	str	r1, [fp, #-20]
500145b4:	e50b2018 	str	r2, [fp, #-24]
500145b8:	e50b301c 	str	r3, [fp, #-28]
500145bc:	e3a03000 	mov	r3, #0
500145c0:	e50b3008 	str	r3, [fp, #-8]
500145c4:	e3a03000 	mov	r3, #0
500145c8:	e50b300c 	str	r3, [fp, #-12]
500145cc:	e24b3008 	sub	r3, fp, #8
500145d0:	e3a02004 	mov	r2, #4
500145d4:	e5c32000 	strb	r2, [r3]
500145d8:	e24b3008 	sub	r3, fp, #8
500145dc:	e3a02001 	mov	r2, #1
500145e0:	e5c32001 	strb	r2, [r3, #1]
500145e4:	e51b1008 	ldr	r1, [fp, #-8]
500145e8:	e51b201c 	ldr	r2, [fp, #-28]
500145ec:	e59bc004 	ldr	ip, [fp, #4]
500145f0:	e24b3008 	sub	r3, fp, #8
500145f4:	e58d3000 	str	r3, [sp]
500145f8:	e24b300c 	sub	r3, fp, #12
500145fc:	e58d3004 	str	r3, [sp, #4]
50014600:	e1a00001 	mov	r0, r1
50014604:	e51b1014 	ldr	r1, [fp, #-20]
50014608:	e1a0300c 	mov	r3, ip
5001460c:	eb0000c7 	bl	50014930 <MX_Syscall42>
50014610:	e51b200c 	ldr	r2, [fp, #-12]
50014614:	e51b3018 	ldr	r3, [fp, #-24]
50014618:	e5832000 	str	r2, [r3]
5001461c:	e24b3008 	sub	r3, fp, #8
50014620:	e5d33002 	ldrb	r3, [r3, #2]
50014624:	e1a00003 	mov	r0, r3
50014628:	e24bd004 	sub	sp, fp, #4
5001462c:	e8bd8800 	pop	{fp, pc}

50014630 <MXI_vcpuStart>:
50014630:	e92d4800 	push	{fp, lr}
50014634:	e28db004 	add	fp, sp, #4
50014638:	e24dd018 	sub	sp, sp, #24
5001463c:	e50b0010 	str	r0, [fp, #-16]
50014640:	e3a03000 	mov	r3, #0
50014644:	e50b3008 	str	r3, [fp, #-8]
50014648:	e24b3008 	sub	r3, fp, #8
5001464c:	e3a02004 	mov	r2, #4
50014650:	e5c32000 	strb	r2, [r3]
50014654:	e24b3008 	sub	r3, fp, #8
50014658:	e3a02002 	mov	r2, #2
5001465c:	e5c32001 	strb	r2, [r3, #1]
50014660:	e51b2008 	ldr	r2, [fp, #-8]
50014664:	e24b3008 	sub	r3, fp, #8
50014668:	e58d3000 	str	r3, [sp]
5001466c:	e1a00002 	mov	r0, r2
50014670:	e51b1010 	ldr	r1, [fp, #-16]
50014674:	e3a02000 	mov	r2, #0
50014678:	e3a03000 	mov	r3, #0
5001467c:	eb000090 	bl	500148c4 <MX_Syscall41>
50014680:	e24b3008 	sub	r3, fp, #8
50014684:	e5d33002 	ldrb	r3, [r3, #2]
50014688:	e1a00003 	mov	r0, r3
5001468c:	e24bd004 	sub	sp, fp, #4
50014690:	e8bd8800 	pop	{fp, pc}

50014694 <MXI_vcpuSleep>:
50014694:	e92d4830 	push	{r4, r5, fp, lr}
50014698:	e28db00c 	add	fp, sp, #12
5001469c:	e24dd020 	sub	sp, sp, #32
500146a0:	e14b02f4 	strd	r0, [fp, #-36]	; 0xffffffdc
500146a4:	e3a03000 	mov	r3, #0
500146a8:	e50b3018 	str	r3, [fp, #-24]
500146ac:	e3a03000 	mov	r3, #0
500146b0:	e50b3010 	str	r3, [fp, #-16]
500146b4:	e3a03000 	mov	r3, #0
500146b8:	e50b3014 	str	r3, [fp, #-20]
500146bc:	e24b3018 	sub	r3, fp, #24
500146c0:	e3a02004 	mov	r2, #4
500146c4:	e5c32000 	strb	r2, [r3]
500146c8:	e24b3018 	sub	r3, fp, #24
500146cc:	e3a02003 	mov	r2, #3
500146d0:	e5c32001 	strb	r2, [r3, #1]
500146d4:	e51b3024 	ldr	r3, [fp, #-36]	; 0x24
500146d8:	e50b3010 	str	r3, [fp, #-16]
500146dc:	e14b22d4 	ldrd	r2, [fp, #-36]	; 0xffffffdc
500146e0:	e1a04003 	mov	r4, r3
500146e4:	e3a05000 	mov	r5, #0
500146e8:	e1a03004 	mov	r3, r4
500146ec:	e50b3014 	str	r3, [fp, #-20]
500146f0:	e51b2018 	ldr	r2, [fp, #-24]
500146f4:	e24b3018 	sub	r3, fp, #24
500146f8:	e58d3000 	str	r3, [sp]
500146fc:	e1a00002 	mov	r0, r2
50014700:	e3a01000 	mov	r1, #0
50014704:	e51b2010 	ldr	r2, [fp, #-16]
50014708:	e51b3014 	ldr	r3, [fp, #-20]
5001470c:	eb00006c 	bl	500148c4 <MX_Syscall41>
50014710:	e24b3018 	sub	r3, fp, #24
50014714:	e5d33002 	ldrb	r3, [r3, #2]
50014718:	e1a00003 	mov	r0, r3
5001471c:	e24bd00c 	sub	sp, fp, #12
50014720:	e8bd8830 	pop	{r4, r5, fp, pc}

50014724 <MXI_vcpuWakeup>:
50014724:	e92d4800 	push	{fp, lr}
50014728:	e28db004 	add	fp, sp, #4
5001472c:	e24dd018 	sub	sp, sp, #24
50014730:	e50b0010 	str	r0, [fp, #-16]
50014734:	e3a03000 	mov	r3, #0
50014738:	e50b3008 	str	r3, [fp, #-8]
5001473c:	e24b3008 	sub	r3, fp, #8
50014740:	e3a02004 	mov	r2, #4
50014744:	e5c32000 	strb	r2, [r3]
50014748:	e24b3008 	sub	r3, fp, #8
5001474c:	e3a02004 	mov	r2, #4
50014750:	e5c32001 	strb	r2, [r3, #1]
50014754:	e51b2008 	ldr	r2, [fp, #-8]
50014758:	e24b3008 	sub	r3, fp, #8
5001475c:	e58d3000 	str	r3, [sp]
50014760:	e1a00002 	mov	r0, r2
50014764:	e51b1010 	ldr	r1, [fp, #-16]
50014768:	e3a02000 	mov	r2, #0
5001476c:	e3a03000 	mov	r3, #0
50014770:	eb000053 	bl	500148c4 <MX_Syscall41>
50014774:	e24b3008 	sub	r3, fp, #8
50014778:	e5d33002 	ldrb	r3, [r3, #2]
5001477c:	e1a00003 	mov	r0, r3
50014780:	e24bd004 	sub	sp, fp, #4
50014784:	e8bd8800 	pop	{fp, pc}

50014788 <MXI_vcpuDisableInt>:
50014788:	e92d4800 	push	{fp, lr}
5001478c:	e28db004 	add	fp, sp, #4
50014790:	e24dd010 	sub	sp, sp, #16
50014794:	e3a03000 	mov	r3, #0
50014798:	e50b3008 	str	r3, [fp, #-8]
5001479c:	e3a03000 	mov	r3, #0
500147a0:	e50b300c 	str	r3, [fp, #-12]
500147a4:	e24b3008 	sub	r3, fp, #8
500147a8:	e3a02004 	mov	r2, #4
500147ac:	e5c32000 	strb	r2, [r3]
500147b0:	e24b3008 	sub	r3, fp, #8
500147b4:	e3a02005 	mov	r2, #5
500147b8:	e5c32001 	strb	r2, [r3, #1]
500147bc:	e51b2008 	ldr	r2, [fp, #-8]
500147c0:	e24b3008 	sub	r3, fp, #8
500147c4:	e58d3000 	str	r3, [sp]
500147c8:	e24b300c 	sub	r3, fp, #12
500147cc:	e58d3004 	str	r3, [sp, #4]
500147d0:	e1a00002 	mov	r0, r2
500147d4:	e3a01000 	mov	r1, #0
500147d8:	e3a02000 	mov	r2, #0
500147dc:	e3a03000 	mov	r3, #0
500147e0:	eb000052 	bl	50014930 <MX_Syscall42>
500147e4:	e51b300c 	ldr	r3, [fp, #-12]
500147e8:	e1a00003 	mov	r0, r3
500147ec:	e24bd004 	sub	sp, fp, #4
500147f0:	e8bd8800 	pop	{fp, pc}

500147f4 <MXI_vcpuEnableInt>:
500147f4:	e92d4800 	push	{fp, lr}
500147f8:	e28db004 	add	fp, sp, #4
500147fc:	e24dd018 	sub	sp, sp, #24
50014800:	e50b0010 	str	r0, [fp, #-16]
50014804:	e3a03000 	mov	r3, #0
50014808:	e50b300c 	str	r3, [fp, #-12]
5001480c:	e51b3010 	ldr	r3, [fp, #-16]
50014810:	e50b3008 	str	r3, [fp, #-8]
50014814:	e24b300c 	sub	r3, fp, #12
50014818:	e3a02004 	mov	r2, #4
5001481c:	e5c32000 	strb	r2, [r3]
50014820:	e24b300c 	sub	r3, fp, #12
50014824:	e3a02006 	mov	r2, #6
50014828:	e5c32001 	strb	r2, [r3, #1]
5001482c:	e51b200c 	ldr	r2, [fp, #-12]
50014830:	e24b300c 	sub	r3, fp, #12
50014834:	e58d3000 	str	r3, [sp]
50014838:	e1a00002 	mov	r0, r2
5001483c:	e51b1008 	ldr	r1, [fp, #-8]
50014840:	e3a02000 	mov	r2, #0
50014844:	e3a03000 	mov	r3, #0
50014848:	eb00001d 	bl	500148c4 <MX_Syscall41>
5001484c:	e24bd004 	sub	sp, fp, #4
50014850:	e8bd8800 	pop	{fp, pc}

50014854 <MXI_prtnRestart>:
50014854:	e92d4800 	push	{fp, lr}
50014858:	e28db004 	add	fp, sp, #4
5001485c:	e24dd010 	sub	sp, sp, #16
50014860:	e50b0010 	str	r0, [fp, #-16]
50014864:	e3a03000 	mov	r3, #0
50014868:	e50b3008 	str	r3, [fp, #-8]
5001486c:	e24b3008 	sub	r3, fp, #8
50014870:	e3a02003 	mov	r2, #3
50014874:	e5c32000 	strb	r2, [r3]
50014878:	e24b3008 	sub	r3, fp, #8
5001487c:	e3a02002 	mov	r2, #2
50014880:	e5c32001 	strb	r2, [r3, #1]
50014884:	e51b3008 	ldr	r3, [fp, #-8]
50014888:	e1a00003 	mov	r0, r3
5001488c:	eb000001 	bl	50014898 <MX_Syscall10>
50014890:	e24bd004 	sub	sp, fp, #4
50014894:	e8bd8800 	pop	{fp, pc}

50014898 <MX_Syscall10>:
50014898:	e52db004 	push	{fp}		; (str fp, [sp, #-4]!)
5001489c:	e28db000 	add	fp, sp, #0
500148a0:	e24dd00c 	sub	sp, sp, #12
500148a4:	e50b0008 	str	r0, [fp, #-8]
500148a8:	e51b3008 	ldr	r3, [fp, #-8]
500148ac:	e1a00003 	mov	r0, r3
500148b0:	ef000001 	svc	0x00000001
500148b4:	e50b3008 	str	r3, [fp, #-8]
500148b8:	e24bd000 	sub	sp, fp, #0
500148bc:	e49db004 	pop	{fp}		; (ldr fp, [sp], #4)
500148c0:	e12fff1e 	bx	lr

500148c4 <MX_Syscall41>:
500148c4:	e52db004 	push	{fp}		; (str fp, [sp, #-4]!)
500148c8:	e28db000 	add	fp, sp, #0
500148cc:	e24dd014 	sub	sp, sp, #20
500148d0:	e50b0008 	str	r0, [fp, #-8]
500148d4:	e50b100c 	str	r1, [fp, #-12]
500148d8:	e50b2010 	str	r2, [fp, #-16]
500148dc:	e50b3014 	str	r3, [fp, #-20]
500148e0:	e51b0008 	ldr	r0, [fp, #-8]
500148e4:	e51b100c 	ldr	r1, [fp, #-12]
500148e8:	e51b2010 	ldr	r2, [fp, #-16]
500148ec:	e51b3014 	ldr	r3, [fp, #-20]
500148f0:	e1a00000 	nop			; (mov r0, r0)
500148f4:	e1a01001 	mov	r1, r1
500148f8:	e1a02002 	mov	r2, r2
500148fc:	e1a03003 	mov	r3, r3
50014900:	ef000001 	svc	0x00000001
50014904:	e1a00000 	nop			; (mov r0, r0)
50014908:	e50b0008 	str	r0, [fp, #-8]
5001490c:	e50b100c 	str	r1, [fp, #-12]
50014910:	e50b2010 	str	r2, [fp, #-16]
50014914:	e50b3014 	str	r3, [fp, #-20]
50014918:	e59b3004 	ldr	r3, [fp, #4]
5001491c:	e51b2008 	ldr	r2, [fp, #-8]
50014920:	e5832000 	str	r2, [r3]
50014924:	e24bd000 	sub	sp, fp, #0
50014928:	e49db004 	pop	{fp}		; (ldr fp, [sp], #4)
5001492c:	e12fff1e 	bx	lr

50014930 <MX_Syscall42>:
50014930:	e52db004 	push	{fp}		; (str fp, [sp, #-4]!)
50014934:	e28db000 	add	fp, sp, #0
50014938:	e24dd014 	sub	sp, sp, #20
5001493c:	e50b0008 	str	r0, [fp, #-8]
50014940:	e50b100c 	str	r1, [fp, #-12]
50014944:	e50b2010 	str	r2, [fp, #-16]
50014948:	e50b3014 	str	r3, [fp, #-20]
5001494c:	e51b0008 	ldr	r0, [fp, #-8]
50014950:	e51b100c 	ldr	r1, [fp, #-12]
50014954:	e51b2010 	ldr	r2, [fp, #-16]
50014958:	e51b3014 	ldr	r3, [fp, #-20]
5001495c:	e1a00000 	nop			; (mov r0, r0)
50014960:	e1a01001 	mov	r1, r1
50014964:	e1a02002 	mov	r2, r2
50014968:	e1a03003 	mov	r3, r3
5001496c:	ef000001 	svc	0x00000001
50014970:	e1a00000 	nop			; (mov r0, r0)
50014974:	e1a01001 	mov	r1, r1
50014978:	e50b0008 	str	r0, [fp, #-8]
5001497c:	e50b100c 	str	r1, [fp, #-12]
50014980:	e50b2010 	str	r2, [fp, #-16]
50014984:	e50b3014 	str	r3, [fp, #-20]
50014988:	e59b3004 	ldr	r3, [fp, #4]
5001498c:	e51b2008 	ldr	r2, [fp, #-8]
50014990:	e5832000 	str	r2, [r3]
50014994:	e59b3008 	ldr	r3, [fp, #8]
50014998:	e51b200c 	ldr	r2, [fp, #-12]
5001499c:	e5832000 	str	r2, [r3]
500149a0:	e24bd000 	sub	sp, fp, #0
500149a4:	e49db004 	pop	{fp}		; (ldr fp, [sp], #4)
500149a8:	e12fff1e 	bx	lr

500149ac <__aeabi_uidiv>:
500149ac:	e2512001 	subs	r2, r1, #1
500149b0:	012fff1e 	bxeq	lr
500149b4:	3a000074 	bcc	50014b8c <__aeabi_uidiv+0x1e0>
500149b8:	e1500001 	cmp	r0, r1
500149bc:	9a00006b 	bls	50014b70 <__aeabi_uidiv+0x1c4>
500149c0:	e1110002 	tst	r1, r2
500149c4:	0a00006c 	beq	50014b7c <__aeabi_uidiv+0x1d0>
500149c8:	e16f3f10 	clz	r3, r0
500149cc:	e16f2f11 	clz	r2, r1
500149d0:	e0423003 	sub	r3, r2, r3
500149d4:	e273301f 	rsbs	r3, r3, #31
500149d8:	10833083 	addne	r3, r3, r3, lsl #1
500149dc:	e3a02000 	mov	r2, #0
500149e0:	108ff103 	addne	pc, pc, r3, lsl #2
500149e4:	e320f000 	nop	{0}
500149e8:	e1500f81 	cmp	r0, r1, lsl #31
500149ec:	e0a22002 	adc	r2, r2, r2
500149f0:	20400f81 	subcs	r0, r0, r1, lsl #31
500149f4:	e1500f01 	cmp	r0, r1, lsl #30
500149f8:	e0a22002 	adc	r2, r2, r2
500149fc:	20400f01 	subcs	r0, r0, r1, lsl #30
50014a00:	e1500e81 	cmp	r0, r1, lsl #29
50014a04:	e0a22002 	adc	r2, r2, r2
50014a08:	20400e81 	subcs	r0, r0, r1, lsl #29
50014a0c:	e1500e01 	cmp	r0, r1, lsl #28
50014a10:	e0a22002 	adc	r2, r2, r2
50014a14:	20400e01 	subcs	r0, r0, r1, lsl #28
50014a18:	e1500d81 	cmp	r0, r1, lsl #27
50014a1c:	e0a22002 	adc	r2, r2, r2
50014a20:	20400d81 	subcs	r0, r0, r1, lsl #27
50014a24:	e1500d01 	cmp	r0, r1, lsl #26
50014a28:	e0a22002 	adc	r2, r2, r2
50014a2c:	20400d01 	subcs	r0, r0, r1, lsl #26
50014a30:	e1500c81 	cmp	r0, r1, lsl #25
50014a34:	e0a22002 	adc	r2, r2, r2
50014a38:	20400c81 	subcs	r0, r0, r1, lsl #25
50014a3c:	e1500c01 	cmp	r0, r1, lsl #24
50014a40:	e0a22002 	adc	r2, r2, r2
50014a44:	20400c01 	subcs	r0, r0, r1, lsl #24
50014a48:	e1500b81 	cmp	r0, r1, lsl #23
50014a4c:	e0a22002 	adc	r2, r2, r2
50014a50:	20400b81 	subcs	r0, r0, r1, lsl #23
50014a54:	e1500b01 	cmp	r0, r1, lsl #22
50014a58:	e0a22002 	adc	r2, r2, r2
50014a5c:	20400b01 	subcs	r0, r0, r1, lsl #22
50014a60:	e1500a81 	cmp	r0, r1, lsl #21
50014a64:	e0a22002 	adc	r2, r2, r2
50014a68:	20400a81 	subcs	r0, r0, r1, lsl #21
50014a6c:	e1500a01 	cmp	r0, r1, lsl #20
50014a70:	e0a22002 	adc	r2, r2, r2
50014a74:	20400a01 	subcs	r0, r0, r1, lsl #20
50014a78:	e1500981 	cmp	r0, r1, lsl #19
50014a7c:	e0a22002 	adc	r2, r2, r2
50014a80:	20400981 	subcs	r0, r0, r1, lsl #19
50014a84:	e1500901 	cmp	r0, r1, lsl #18
50014a88:	e0a22002 	adc	r2, r2, r2
50014a8c:	20400901 	subcs	r0, r0, r1, lsl #18
50014a90:	e1500881 	cmp	r0, r1, lsl #17
50014a94:	e0a22002 	adc	r2, r2, r2
50014a98:	20400881 	subcs	r0, r0, r1, lsl #17
50014a9c:	e1500801 	cmp	r0, r1, lsl #16
50014aa0:	e0a22002 	adc	r2, r2, r2
50014aa4:	20400801 	subcs	r0, r0, r1, lsl #16
50014aa8:	e1500781 	cmp	r0, r1, lsl #15
50014aac:	e0a22002 	adc	r2, r2, r2
50014ab0:	20400781 	subcs	r0, r0, r1, lsl #15
50014ab4:	e1500701 	cmp	r0, r1, lsl #14
50014ab8:	e0a22002 	adc	r2, r2, r2
50014abc:	20400701 	subcs	r0, r0, r1, lsl #14
50014ac0:	e1500681 	cmp	r0, r1, lsl #13
50014ac4:	e0a22002 	adc	r2, r2, r2
50014ac8:	20400681 	subcs	r0, r0, r1, lsl #13
50014acc:	e1500601 	cmp	r0, r1, lsl #12
50014ad0:	e0a22002 	adc	r2, r2, r2
50014ad4:	20400601 	subcs	r0, r0, r1, lsl #12
50014ad8:	e1500581 	cmp	r0, r1, lsl #11
50014adc:	e0a22002 	adc	r2, r2, r2
50014ae0:	20400581 	subcs	r0, r0, r1, lsl #11
50014ae4:	e1500501 	cmp	r0, r1, lsl #10
50014ae8:	e0a22002 	adc	r2, r2, r2
50014aec:	20400501 	subcs	r0, r0, r1, lsl #10
50014af0:	e1500481 	cmp	r0, r1, lsl #9
50014af4:	e0a22002 	adc	r2, r2, r2
50014af8:	20400481 	subcs	r0, r0, r1, lsl #9
50014afc:	e1500401 	cmp	r0, r1, lsl #8
50014b00:	e0a22002 	adc	r2, r2, r2
50014b04:	20400401 	subcs	r0, r0, r1, lsl #8
50014b08:	e1500381 	cmp	r0, r1, lsl #7
50014b0c:	e0a22002 	adc	r2, r2, r2
50014b10:	20400381 	subcs	r0, r0, r1, lsl #7
50014b14:	e1500301 	cmp	r0, r1, lsl #6
50014b18:	e0a22002 	adc	r2, r2, r2
50014b1c:	20400301 	subcs	r0, r0, r1, lsl #6
50014b20:	e1500281 	cmp	r0, r1, lsl #5
50014b24:	e0a22002 	adc	r2, r2, r2
50014b28:	20400281 	subcs	r0, r0, r1, lsl #5
50014b2c:	e1500201 	cmp	r0, r1, lsl #4
50014b30:	e0a22002 	adc	r2, r2, r2
50014b34:	20400201 	subcs	r0, r0, r1, lsl #4
50014b38:	e1500181 	cmp	r0, r1, lsl #3
50014b3c:	e0a22002 	adc	r2, r2, r2
50014b40:	20400181 	subcs	r0, r0, r1, lsl #3
50014b44:	e1500101 	cmp	r0, r1, lsl #2
50014b48:	e0a22002 	adc	r2, r2, r2
50014b4c:	20400101 	subcs	r0, r0, r1, lsl #2
50014b50:	e1500081 	cmp	r0, r1, lsl #1
50014b54:	e0a22002 	adc	r2, r2, r2
50014b58:	20400081 	subcs	r0, r0, r1, lsl #1
50014b5c:	e1500001 	cmp	r0, r1
50014b60:	e0a22002 	adc	r2, r2, r2
50014b64:	20400001 	subcs	r0, r0, r1
50014b68:	e1a00002 	mov	r0, r2
50014b6c:	e12fff1e 	bx	lr
50014b70:	03a00001 	moveq	r0, #1
50014b74:	13a00000 	movne	r0, #0
50014b78:	e12fff1e 	bx	lr
50014b7c:	e16f2f11 	clz	r2, r1
50014b80:	e262201f 	rsb	r2, r2, #31
50014b84:	e1a00230 	lsr	r0, r0, r2
50014b88:	e12fff1e 	bx	lr
50014b8c:	e3500000 	cmp	r0, #0
50014b90:	13e00000 	mvnne	r0, #0
50014b94:	ea000097 	b	50014df8 <__aeabi_idiv0>

50014b98 <__aeabi_uidivmod>:
50014b98:	e3510000 	cmp	r1, #0
50014b9c:	0afffffa 	beq	50014b8c <__aeabi_uidiv+0x1e0>
50014ba0:	e92d4003 	push	{r0, r1, lr}
50014ba4:	ebffff80 	bl	500149ac <__aeabi_uidiv>
50014ba8:	e8bd4006 	pop	{r1, r2, lr}
50014bac:	e0030092 	mul	r3, r2, r0
50014bb0:	e0411003 	sub	r1, r1, r3
50014bb4:	e12fff1e 	bx	lr

50014bb8 <__aeabi_idiv>:
50014bb8:	e3510000 	cmp	r1, #0
50014bbc:	0a000081 	beq	50014dc8 <.divsi3_skip_div0_test+0x208>

50014bc0 <.divsi3_skip_div0_test>:
50014bc0:	e020c001 	eor	ip, r0, r1
50014bc4:	42611000 	rsbmi	r1, r1, #0
50014bc8:	e2512001 	subs	r2, r1, #1
50014bcc:	0a000070 	beq	50014d94 <.divsi3_skip_div0_test+0x1d4>
50014bd0:	e1b03000 	movs	r3, r0
50014bd4:	42603000 	rsbmi	r3, r0, #0
50014bd8:	e1530001 	cmp	r3, r1
50014bdc:	9a00006f 	bls	50014da0 <.divsi3_skip_div0_test+0x1e0>
50014be0:	e1110002 	tst	r1, r2
50014be4:	0a000071 	beq	50014db0 <.divsi3_skip_div0_test+0x1f0>
50014be8:	e16f2f13 	clz	r2, r3
50014bec:	e16f0f11 	clz	r0, r1
50014bf0:	e0402002 	sub	r2, r0, r2
50014bf4:	e272201f 	rsbs	r2, r2, #31
50014bf8:	10822082 	addne	r2, r2, r2, lsl #1
50014bfc:	e3a00000 	mov	r0, #0
50014c00:	108ff102 	addne	pc, pc, r2, lsl #2
50014c04:	e320f000 	nop	{0}
50014c08:	e1530f81 	cmp	r3, r1, lsl #31
50014c0c:	e0a00000 	adc	r0, r0, r0
50014c10:	20433f81 	subcs	r3, r3, r1, lsl #31
50014c14:	e1530f01 	cmp	r3, r1, lsl #30
50014c18:	e0a00000 	adc	r0, r0, r0
50014c1c:	20433f01 	subcs	r3, r3, r1, lsl #30
50014c20:	e1530e81 	cmp	r3, r1, lsl #29
50014c24:	e0a00000 	adc	r0, r0, r0
50014c28:	20433e81 	subcs	r3, r3, r1, lsl #29
50014c2c:	e1530e01 	cmp	r3, r1, lsl #28
50014c30:	e0a00000 	adc	r0, r0, r0
50014c34:	20433e01 	subcs	r3, r3, r1, lsl #28
50014c38:	e1530d81 	cmp	r3, r1, lsl #27
50014c3c:	e0a00000 	adc	r0, r0, r0
50014c40:	20433d81 	subcs	r3, r3, r1, lsl #27
50014c44:	e1530d01 	cmp	r3, r1, lsl #26
50014c48:	e0a00000 	adc	r0, r0, r0
50014c4c:	20433d01 	subcs	r3, r3, r1, lsl #26
50014c50:	e1530c81 	cmp	r3, r1, lsl #25
50014c54:	e0a00000 	adc	r0, r0, r0
50014c58:	20433c81 	subcs	r3, r3, r1, lsl #25
50014c5c:	e1530c01 	cmp	r3, r1, lsl #24
50014c60:	e0a00000 	adc	r0, r0, r0
50014c64:	20433c01 	subcs	r3, r3, r1, lsl #24
50014c68:	e1530b81 	cmp	r3, r1, lsl #23
50014c6c:	e0a00000 	adc	r0, r0, r0
50014c70:	20433b81 	subcs	r3, r3, r1, lsl #23
50014c74:	e1530b01 	cmp	r3, r1, lsl #22
50014c78:	e0a00000 	adc	r0, r0, r0
50014c7c:	20433b01 	subcs	r3, r3, r1, lsl #22
50014c80:	e1530a81 	cmp	r3, r1, lsl #21
50014c84:	e0a00000 	adc	r0, r0, r0
50014c88:	20433a81 	subcs	r3, r3, r1, lsl #21
50014c8c:	e1530a01 	cmp	r3, r1, lsl #20
50014c90:	e0a00000 	adc	r0, r0, r0
50014c94:	20433a01 	subcs	r3, r3, r1, lsl #20
50014c98:	e1530981 	cmp	r3, r1, lsl #19
50014c9c:	e0a00000 	adc	r0, r0, r0
50014ca0:	20433981 	subcs	r3, r3, r1, lsl #19
50014ca4:	e1530901 	cmp	r3, r1, lsl #18
50014ca8:	e0a00000 	adc	r0, r0, r0
50014cac:	20433901 	subcs	r3, r3, r1, lsl #18
50014cb0:	e1530881 	cmp	r3, r1, lsl #17
50014cb4:	e0a00000 	adc	r0, r0, r0
50014cb8:	20433881 	subcs	r3, r3, r1, lsl #17
50014cbc:	e1530801 	cmp	r3, r1, lsl #16
50014cc0:	e0a00000 	adc	r0, r0, r0
50014cc4:	20433801 	subcs	r3, r3, r1, lsl #16
50014cc8:	e1530781 	cmp	r3, r1, lsl #15
50014ccc:	e0a00000 	adc	r0, r0, r0
50014cd0:	20433781 	subcs	r3, r3, r1, lsl #15
50014cd4:	e1530701 	cmp	r3, r1, lsl #14
50014cd8:	e0a00000 	adc	r0, r0, r0
50014cdc:	20433701 	subcs	r3, r3, r1, lsl #14
50014ce0:	e1530681 	cmp	r3, r1, lsl #13
50014ce4:	e0a00000 	adc	r0, r0, r0
50014ce8:	20433681 	subcs	r3, r3, r1, lsl #13
50014cec:	e1530601 	cmp	r3, r1, lsl #12
50014cf0:	e0a00000 	adc	r0, r0, r0
50014cf4:	20433601 	subcs	r3, r3, r1, lsl #12
50014cf8:	e1530581 	cmp	r3, r1, lsl #11
50014cfc:	e0a00000 	adc	r0, r0, r0
50014d00:	20433581 	subcs	r3, r3, r1, lsl #11
50014d04:	e1530501 	cmp	r3, r1, lsl #10
50014d08:	e0a00000 	adc	r0, r0, r0
50014d0c:	20433501 	subcs	r3, r3, r1, lsl #10
50014d10:	e1530481 	cmp	r3, r1, lsl #9
50014d14:	e0a00000 	adc	r0, r0, r0
50014d18:	20433481 	subcs	r3, r3, r1, lsl #9
50014d1c:	e1530401 	cmp	r3, r1, lsl #8
50014d20:	e0a00000 	adc	r0, r0, r0
50014d24:	20433401 	subcs	r3, r3, r1, lsl #8
50014d28:	e1530381 	cmp	r3, r1, lsl #7
50014d2c:	e0a00000 	adc	r0, r0, r0
50014d30:	20433381 	subcs	r3, r3, r1, lsl #7
50014d34:	e1530301 	cmp	r3, r1, lsl #6
50014d38:	e0a00000 	adc	r0, r0, r0
50014d3c:	20433301 	subcs	r3, r3, r1, lsl #6
50014d40:	e1530281 	cmp	r3, r1, lsl #5
50014d44:	e0a00000 	adc	r0, r0, r0
50014d48:	20433281 	subcs	r3, r3, r1, lsl #5
50014d4c:	e1530201 	cmp	r3, r1, lsl #4
50014d50:	e0a00000 	adc	r0, r0, r0
50014d54:	20433201 	subcs	r3, r3, r1, lsl #4
50014d58:	e1530181 	cmp	r3, r1, lsl #3
50014d5c:	e0a00000 	adc	r0, r0, r0
50014d60:	20433181 	subcs	r3, r3, r1, lsl #3
50014d64:	e1530101 	cmp	r3, r1, lsl #2
50014d68:	e0a00000 	adc	r0, r0, r0
50014d6c:	20433101 	subcs	r3, r3, r1, lsl #2
50014d70:	e1530081 	cmp	r3, r1, lsl #1
50014d74:	e0a00000 	adc	r0, r0, r0
50014d78:	20433081 	subcs	r3, r3, r1, lsl #1
50014d7c:	e1530001 	cmp	r3, r1
50014d80:	e0a00000 	adc	r0, r0, r0
50014d84:	20433001 	subcs	r3, r3, r1
50014d88:	e35c0000 	cmp	ip, #0
50014d8c:	42600000 	rsbmi	r0, r0, #0
50014d90:	e12fff1e 	bx	lr
50014d94:	e13c0000 	teq	ip, r0
50014d98:	42600000 	rsbmi	r0, r0, #0
50014d9c:	e12fff1e 	bx	lr
50014da0:	33a00000 	movcc	r0, #0
50014da4:	01a00fcc 	asreq	r0, ip, #31
50014da8:	03800001 	orreq	r0, r0, #1
50014dac:	e12fff1e 	bx	lr
50014db0:	e16f2f11 	clz	r2, r1
50014db4:	e262201f 	rsb	r2, r2, #31
50014db8:	e35c0000 	cmp	ip, #0
50014dbc:	e1a00233 	lsr	r0, r3, r2
50014dc0:	42600000 	rsbmi	r0, r0, #0
50014dc4:	e12fff1e 	bx	lr
50014dc8:	e3500000 	cmp	r0, #0
50014dcc:	c3e00102 	mvngt	r0, #-2147483648	; 0x80000000
50014dd0:	b3a00102 	movlt	r0, #-2147483648	; 0x80000000
50014dd4:	ea000007 	b	50014df8 <__aeabi_idiv0>

50014dd8 <__aeabi_idivmod>:
50014dd8:	e3510000 	cmp	r1, #0
50014ddc:	0afffff9 	beq	50014dc8 <.divsi3_skip_div0_test+0x208>
50014de0:	e92d4003 	push	{r0, r1, lr}
50014de4:	ebffff75 	bl	50014bc0 <.divsi3_skip_div0_test>
50014de8:	e8bd4006 	pop	{r1, r2, lr}
50014dec:	e0030092 	mul	r3, r2, r0
50014df0:	e0411003 	sub	r1, r1, r3
50014df4:	e12fff1e 	bx	lr

50014df8 <__aeabi_idiv0>:
50014df8:	e12fff1e 	bx	lr
50014dfc:	2d2d2d2d 	.word	0x2d2d2d2d
50014e00:	2d2d2d2d 	.word	0x2d2d2d2d
50014e04:	6968542d 	.word	0x6968542d
50014e08:	73692073 	.word	0x73692073
50014e0c:	65664420 	.word	0x65664420
50014e10:	2d534f77 	.word	0x2d534f77
50014e14:	2d2d2d2d 	.word	0x2d2d2d2d
50014e18:	2d2d2d2d 	.word	0x2d2d2d2d
50014e1c:	0000000a 	.word	0x0000000a
50014e20:	6b736154 	.word	0x6b736154
50014e24:	2e2e2e31 	.word	0x2e2e2e31
50014e28:	0a64252e 	.word	0x0a64252e
50014e2c:	00000000 	.word	0x00000000
50014e30:	6b736154 	.word	0x6b736154
50014e34:	65722031 	.word	0x65722031
50014e38:	76696563 	.word	0x76696563
50014e3c:	656d2065 	.word	0x656d2065
50014e40:	67617373 	.word	0x67617373
50014e44:	25203a65 	.word	0x25203a65
50014e48:	00000a73 	.word	0x00000a73
50014e4c:	6b736154 	.word	0x6b736154
50014e50:	65722031 	.word	0x65722031
50014e54:	76696563 	.word	0x76696563
50014e58:	656d2065 	.word	0x656d2065
50014e5c:	67617373 	.word	0x67617373
50014e60:	61662065 	.word	0x61662065
50014e64:	64656c69 	.word	0x64656c69
50014e68:	293b2021 	.word	0x293b2021
50014e6c:	0000000a 	.word	0x0000000a
50014e70:	73696854 	.word	0x73696854
50014e74:	20736920 	.word	0x20736920
50014e78:	656d2061 	.word	0x656d2061
50014e7c:	67617373 	.word	0x67617373
50014e80:	72662065 	.word	0x72662065
50014e84:	54206d6f 	.word	0x54206d6f
50014e88:	326b7361 	.word	0x326b7361
50014e8c:	206f7420 	.word	0x206f7420
50014e90:	6b736154 	.word	0x6b736154
50014e94:	00000031 	.word	0x00000031
50014e98:	2a2a2f0a 	.word	0x2a2a2f0a
50014e9c:	2a2a2a2a 	.word	0x2a2a2a2a
50014ea0:	2a2a2a2a 	.word	0x2a2a2a2a
50014ea4:	2a2a2a2a 	.word	0x2a2a2a2a
50014ea8:	2a2a2a2a 	.word	0x2a2a2a2a
50014eac:	2a2a2a2a 	.word	0x2a2a2a2a
50014eb0:	2a2a2a2a 	.word	0x2a2a2a2a
50014eb4:	2a2a2a2a 	.word	0x2a2a2a2a
50014eb8:	2a2a2a2a 	.word	0x2a2a2a2a
50014ebc:	00000a2f 	.word	0x00000a2f
50014ec0:	6b736154 	.word	0x6b736154
50014ec4:	2d2d2033 	.word	0x2d2d2033
50014ec8:	2d2d2d2d 	.word	0x2d2d2d2d
50014ecc:	202d2d2d 	.word	0x202d2d2d
50014ed0:	31677261 	.word	0x31677261
50014ed4:	25203d20 	.word	0x25203d20
50014ed8:	72612064 	.word	0x72612064
50014edc:	3d203267 	.word	0x3d203267
50014ee0:	0a642520 	.word	0x0a642520
50014ee4:	00000000 	.word	0x00000000
50014ee8:	2a2a2a2f 	.word	0x2a2a2a2f
50014eec:	2a2a2a2a 	.word	0x2a2a2a2a
50014ef0:	2a2a2a2a 	.word	0x2a2a2a2a
50014ef4:	2a2a2a2a 	.word	0x2a2a2a2a
50014ef8:	2a2a2a2a 	.word	0x2a2a2a2a
50014efc:	2a2a2a2a 	.word	0x2a2a2a2a
50014f00:	2a2a2a2a 	.word	0x2a2a2a2a
50014f04:	2a2a2a2a 	.word	0x2a2a2a2a
50014f08:	2f2a2a2a 	.word	0x2f2a2a2a
50014f0c:	0000000a 	.word	0x0000000a
50014f10:	6b736154 	.word	0x6b736154
50014f14:	2d2d2033 	.word	0x2d2d2033
50014f18:	2d2d2d2d 	.word	0x2d2d2d2d
50014f1c:	202d2d2d 	.word	0x202d2d2d
50014f20:	000a6425 	.word	0x000a6425
50014f24:	73615474 	.word	0x73615474
50014f28:	0000316b 	.word	0x0000316b
50014f2c:	73615474 	.word	0x73615474
50014f30:	0000326b 	.word	0x0000326b
50014f34:	73615474 	.word	0x73615474
50014f38:	0000336b 	.word	0x0000336b
50014f3c:	31335b1b 	.word	0x31335b1b
50014f40:	0000006d 	.word	0x0000006d
50014f44:	2a2a2a0a 	.word	0x2a2a2a0a
50014f48:	2a2a2a2a 	.word	0x2a2a2a2a
50014f4c:	2a2a2a2a 	.word	0x2a2a2a2a
50014f50:	2a2a2a2a 	.word	0x2a2a2a2a
50014f54:	53202a2a 	.word	0x53202a2a
50014f58:	54524154 	.word	0x54524154
50014f5c:	53455420 	.word	0x53455420
50014f60:	45532054 	.word	0x45532054
50014f64:	4850414d 	.word	0x4850414d
50014f68:	2045524f 	.word	0x2045524f
50014f6c:	4554554d 	.word	0x4554554d
50014f70:	2a2a2058 	.word	0x2a2a2058
50014f74:	2a2a2a2a 	.word	0x2a2a2a2a
50014f78:	2a2a2a2a 	.word	0x2a2a2a2a
50014f7c:	2a2a2a2a 	.word	0x2a2a2a2a
50014f80:	000a2a2a 	.word	0x000a2a2a
50014f84:	37335b1b 	.word	0x37335b1b
50014f88:	0000006d 	.word	0x0000006d
50014f8c:	6d657354 	.word	0x6d657354
50014f90:	2e2e314d 	.word	0x2e2e314d
50014f94:	64252e2e 	.word	0x64252e2e
50014f98:	00000000 	.word	0x00000000
50014f9c:	3d3d3d3d 	.word	0x3d3d3d3d
50014fa0:	3d3d3d3d 	.word	0x3d3d3d3d
50014fa4:	3d3d3d3d 	.word	0x3d3d3d3d
50014fa8:	203d3d3d 	.word	0x203d3d3d
50014fac:	65746661 	.word	0x65746661
50014fb0:	73542072 	.word	0x73542072
50014fb4:	324d6d65 	.word	0x324d6d65
50014fb8:	73617420 	.word	0x73617420
50014fbc:	7320656b 	.word	0x7320656b
50014fc0:	5f4d6d65 	.word	0x5f4d6d65
50014fc4:	3d203a41 	.word	0x3d203a41
50014fc8:	3d3d3d3d 	.word	0x3d3d3d3d
50014fcc:	3d3d3d3d 	.word	0x3d3d3d3d
50014fd0:	3d3d3d3d 	.word	0x3d3d3d3d
50014fd4:	3d3d3d3d 	.word	0x3d3d3d3d
50014fd8:	0000003d 	.word	0x0000003d
50014fdc:	3d3d3d3d 	.word	0x3d3d3d3d
50014fe0:	3d3d3d3d 	.word	0x3d3d3d3d
50014fe4:	3d3d3d3d 	.word	0x3d3d3d3d
50014fe8:	203d3d3d 	.word	0x203d3d3d
50014fec:	65746661 	.word	0x65746661
50014ff0:	73542072 	.word	0x73542072
50014ff4:	334d6d65 	.word	0x334d6d65
50014ff8:	73617420 	.word	0x73617420
50014ffc:	7320656b 	.word	0x7320656b
50015000:	5f4d6d65 	.word	0x5f4d6d65
50015004:	3d203a42 	.word	0x3d203a42
50015008:	3d3d3d3d 	.word	0x3d3d3d3d
5001500c:	3d3d3d3d 	.word	0x3d3d3d3d
50015010:	3d3d3d3d 	.word	0x3d3d3d3d
50015014:	3d3d3d3d 	.word	0x3d3d3d3d
50015018:	0000003d 	.word	0x0000003d
5001501c:	65735474 	.word	0x65735474
50015020:	00314d6d 	.word	0x00314d6d
50015024:	65735474 	.word	0x65735474
50015028:	00324d6d 	.word	0x00324d6d
5001502c:	65735474 	.word	0x65735474
50015030:	00334d6d 	.word	0x00334d6d
50015034:	6d657354 	.word	0x6d657354
50015038:	2e2e314d 	.word	0x2e2e314d
5001503c:	64252e2e 	.word	0x64252e2e
50015040:	0000000a 	.word	0x0000000a
50015044:	3d3d3d3d 	.word	0x3d3d3d3d
50015048:	3d3d3d3d 	.word	0x3d3d3d3d
5001504c:	3d3d3d3d 	.word	0x3d3d3d3d
50015050:	61203d3d 	.word	0x61203d3d
50015054:	72657466 	.word	0x72657466
50015058:	65735420 	.word	0x65735420
5001505c:	20324d6d 	.word	0x20324d6d
50015060:	746e6177 	.word	0x746e6177
50015064:	6b617420 	.word	0x6b617420
50015068:	65732065 	.word	0x65732065
5001506c:	415f4d6d 	.word	0x415f4d6d
50015070:	3d3d203a 	.word	0x3d3d203a
50015074:	3d3d3d3d 	.word	0x3d3d3d3d
50015078:	3d3d3d3d 	.word	0x3d3d3d3d
5001507c:	3d3d3d3d 	.word	0x3d3d3d3d
50015080:	0000003d 	.word	0x0000003d
50015084:	3d3d3d3d 	.word	0x3d3d3d3d
50015088:	3d3d3d3d 	.word	0x3d3d3d3d
5001508c:	3d3d3d3d 	.word	0x3d3d3d3d
50015090:	61203d3d 	.word	0x61203d3d
50015094:	72657466 	.word	0x72657466
50015098:	65735420 	.word	0x65735420
5001509c:	20334d6d 	.word	0x20334d6d
500150a0:	746e6177 	.word	0x746e6177
500150a4:	6b617420 	.word	0x6b617420
500150a8:	65732065 	.word	0x65732065
500150ac:	425f4d6d 	.word	0x425f4d6d
500150b0:	3d3d203a 	.word	0x3d3d203a
500150b4:	3d3d3d3d 	.word	0x3d3d3d3d
500150b8:	3d3d3d3d 	.word	0x3d3d3d3d
500150bc:	3d3d3d3d 	.word	0x3d3d3d3d
500150c0:	0000003d 	.word	0x0000003d
500150c4:	3d3d3d3d 	.word	0x3d3d3d3d
500150c8:	3d3d3d3d 	.word	0x3d3d3d3d
500150cc:	3d3d3d3d 	.word	0x3d3d3d3d
500150d0:	61203d3d 	.word	0x61203d3d
500150d4:	72657466 	.word	0x72657466
500150d8:	65735420 	.word	0x65735420
500150dc:	20314d6d 	.word	0x20314d6d
500150e0:	65766967 	.word	0x65766967
500150e4:	6d657320 	.word	0x6d657320
500150e8:	3a415f4d 	.word	0x3a415f4d
500150ec:	3d3d3d20 	.word	0x3d3d3d20
500150f0:	3d3d3d3d 	.word	0x3d3d3d3d
500150f4:	3d3d3d3d 	.word	0x3d3d3d3d
500150f8:	3d3d3d3d 	.word	0x3d3d3d3d
500150fc:	3d3d3d3d 	.word	0x3d3d3d3d
50015100:	0000003d 	.word	0x0000003d
50015104:	3d3d3d3d 	.word	0x3d3d3d3d
50015108:	3d3d3d3d 	.word	0x3d3d3d3d
5001510c:	3d3d3d3d 	.word	0x3d3d3d3d
50015110:	61203d3d 	.word	0x61203d3d
50015114:	72657466 	.word	0x72657466
50015118:	65735420 	.word	0x65735420
5001511c:	20324d6d 	.word	0x20324d6d
50015120:	656b6174 	.word	0x656b6174
50015124:	65732064 	.word	0x65732064
50015128:	415f4d6d 	.word	0x415f4d6d
5001512c:	3d3d203a 	.word	0x3d3d203a
50015130:	3d3d3d3d 	.word	0x3d3d3d3d
50015134:	3d3d3d3d 	.word	0x3d3d3d3d
50015138:	3d3d3d3d 	.word	0x3d3d3d3d
5001513c:	3d3d3d3d 	.word	0x3d3d3d3d
50015140:	00000a3d 	.word	0x00000a3d
50015144:	3d3d3d3d 	.word	0x3d3d3d3d
50015148:	3d3d3d3d 	.word	0x3d3d3d3d
5001514c:	3d3d3d3d 	.word	0x3d3d3d3d
50015150:	62203d3d 	.word	0x62203d3d
50015154:	726f6665 	.word	0x726f6665
50015158:	73542065 	.word	0x73542065
5001515c:	324d6d65 	.word	0x324d6d65
50015160:	76696720 	.word	0x76696720
50015164:	65732065 	.word	0x65732065
50015168:	425f4d6d 	.word	0x425f4d6d
5001516c:	3d3d203a 	.word	0x3d3d203a
50015170:	3d3d3d3d 	.word	0x3d3d3d3d
50015174:	3d3d3d3d 	.word	0x3d3d3d3d
50015178:	3d3d3d3d 	.word	0x3d3d3d3d
5001517c:	3d3d3d3d 	.word	0x3d3d3d3d
50015180:	0000003d 	.word	0x0000003d
50015184:	3d3d3d3d 	.word	0x3d3d3d3d
50015188:	3d3d3d3d 	.word	0x3d3d3d3d
5001518c:	3d3d3d3d 	.word	0x3d3d3d3d
50015190:	61203d3d 	.word	0x61203d3d
50015194:	72657466 	.word	0x72657466
50015198:	65735420 	.word	0x65735420
5001519c:	20324d6d 	.word	0x20324d6d
500151a0:	65766967 	.word	0x65766967
500151a4:	6d657320 	.word	0x6d657320
500151a8:	3a425f4d 	.word	0x3a425f4d
500151ac:	3d3d3d20 	.word	0x3d3d3d20
500151b0:	3d3d3d3d 	.word	0x3d3d3d3d
500151b4:	3d3d3d3d 	.word	0x3d3d3d3d
500151b8:	3d3d3d3d 	.word	0x3d3d3d3d
500151bc:	3d3d3d3d 	.word	0x3d3d3d3d
500151c0:	0000003d 	.word	0x0000003d
500151c4:	3d3d3d3d 	.word	0x3d3d3d3d
500151c8:	3d3d3d3d 	.word	0x3d3d3d3d
500151cc:	3d3d3d3d 	.word	0x3d3d3d3d
500151d0:	49203d3d 	.word	0x49203d3d
500151d4:	54206d27 	.word	0x54206d27
500151d8:	4d6d6573 	.word	0x4d6d6573
500151dc:	49202c33 	.word	0x49202c33
500151e0:	6b617420 	.word	0x6b617420
500151e4:	73206465 	.word	0x73206465
500151e8:	5f4d6d65 	.word	0x5f4d6d65
500151ec:	3d203a42 	.word	0x3d203a42
500151f0:	3d3d3d3d 	.word	0x3d3d3d3d
500151f4:	3d3d3d3d 	.word	0x3d3d3d3d
500151f8:	3d3d3d3d 	.word	0x3d3d3d3d
500151fc:	3d3d3d3d 	.word	0x3d3d3d3d
50015200:	0000003d 	.word	0x0000003d
50015204:	6c6c6548 	.word	0x6c6c6548
50015208:	6644206f 	.word	0x6644206f
5001520c:	534f7765 	.word	0x534f7765
50015210:	00000a21 	.word	0x00000a21
50015214:	6c644974 	.word	0x6c644974
50015218:	00000065 	.word	0x00000065
5001521c:	65685374 	.word	0x65685374
50015220:	00006c6c 	.word	0x00006c6c
50015224:	72726f53 	.word	0x72726f53
50015228:	49202179 	.word	0x49202179
5001522c:	6e6f6420 	.word	0x6e6f6420
50015230:	6b207427 	.word	0x6b207427
50015234:	20776f6e 	.word	0x20776f6e
50015238:	0000203a 	.word	0x0000203a
5001523c:	31335b1b 	.word	0x31335b1b
50015240:	0000006d 	.word	0x0000006d
50015244:	37335b1b 	.word	0x37335b1b
50015248:	0000006d 	.word	0x0000006d
5001524c:	20097325 	.word	0x20097325
50015250:	7325203a 	.word	0x7325203a
50015254:	0000000a 	.word	0x0000000a
50015258:	6c622020 	.word	0x6c622020
5001525c:	5f6b636f 	.word	0x5f6b636f
50015260:	206d756e 	.word	0x206d756e
50015264:	3325203a 	.word	0x3325203a
50015268:	6c610a64 	.word	0x6c610a64
5001526c:	65636f6c 	.word	0x65636f6c
50015270:	756e5f64 	.word	0x756e5f64
50015274:	203a206d 	.word	0x203a206d
50015278:	20643325 	.word	0x20643325
5001527c:	6c6c6120 	.word	0x6c6c6120
50015280:	5f6b636f 	.word	0x5f6b636f
50015284:	657a6973 	.word	0x657a6973
50015288:	25203a20 	.word	0x25203a20
5001528c:	20200a75 	.word	0x20200a75
50015290:	65726620 	.word	0x65726620
50015294:	756e5f65 	.word	0x756e5f65
50015298:	203a206d 	.word	0x203a206d
5001529c:	20643325 	.word	0x20643325
500152a0:	66202020 	.word	0x66202020
500152a4:	5f656572 	.word	0x5f656572
500152a8:	657a6973 	.word	0x657a6973
500152ac:	25203a20 	.word	0x25203a20
500152b0:	00000a75 	.word	0x00000a75
500152b4:	00006c2d 	.word	0x00006c2d
500152b8:	2d2d2d2d 	.word	0x2d2d2d2d
500152bc:	2d2d2d2d 	.word	0x2d2d2d2d
500152c0:	202d2d2d 	.word	0x202d2d2d
500152c4:	2d2d2d20 	.word	0x2d2d2d20
500152c8:	2d2d2d2d 	.word	0x2d2d2d2d
500152cc:	2d2d2020 	.word	0x2d2d2020
500152d0:	2d2d2d2d 	.word	0x2d2d2d2d
500152d4:	202d2d2d 	.word	0x202d2d2d
500152d8:	2d2d2d20 	.word	0x2d2d2d20
500152dc:	2d2d2d2d 	.word	0x2d2d2d2d
500152e0:	0a2d2d2d 	.word	0x0a2d2d2d
500152e4:	53202020 	.word	0x53202020
500152e8:	54524154 	.word	0x54524154
500152ec:	20202020 	.word	0x20202020
500152f0:	4c4c4120 	.word	0x4c4c4120
500152f4:	4445434f 	.word	0x4445434f
500152f8:	20202020 	.word	0x20202020
500152fc:	42435420 	.word	0x42435420
50015300:	20202020 	.word	0x20202020
50015304:	20202020 	.word	0x20202020
50015308:	455a4953 	.word	0x455a4953
5001530c:	2d2d2d0a 	.word	0x2d2d2d0a
50015310:	2d2d2d2d 	.word	0x2d2d2d2d
50015314:	2d2d2d2d 	.word	0x2d2d2d2d
50015318:	2d2d2020 	.word	0x2d2d2020
5001531c:	2d2d2d2d 	.word	0x2d2d2d2d
50015320:	2d20202d 	.word	0x2d20202d
50015324:	2d2d2d2d 	.word	0x2d2d2d2d
50015328:	2d2d2d2d 	.word	0x2d2d2d2d
5001532c:	2d2d2020 	.word	0x2d2d2020
50015330:	2d2d2d2d 	.word	0x2d2d2d2d
50015334:	2d2d2d2d 	.word	0x2d2d2d2d
50015338:	0000000a 	.word	0x0000000a
5001533c:	58257830 	.word	0x58257830
50015340:	00000000 	.word	0x00000000
50015344:	38257830 	.word	0x38257830
50015348:	20202058 	.word	0x20202058
5001534c:	25202020 	.word	0x25202020
50015350:	20202064 	.word	0x20202064
50015354:	39252020 	.word	0x39252020
50015358:	20202058 	.word	0x20202058
5001535c:	0a753925 	.word	0x0a753925
50015360:	00000000 	.word	0x00000000
50015364:	203a4449 	.word	0x203a4449
50015368:	20583825 	.word	0x20583825
5001536c:	72756320 	.word	0x72756320
50015370:	6d756e5f 	.word	0x6d756e5f
50015374:	3325203a 	.word	0x3325203a
50015378:	6d202064 	.word	0x6d202064
5001537c:	6e5f7861 	.word	0x6e5f7861
50015380:	203a6d75 	.word	0x203a6d75
50015384:	20643325 	.word	0x20643325
50015388:	69617720 	.word	0x69617720
5001538c:	65735f74 	.word	0x65735f74
50015390:	745f646e 	.word	0x745f646e
50015394:	3a6b7361 	.word	0x3a6b7361
50015398:	20642520 	.word	0x20642520
5001539c:	74696177 	.word	0x74696177
500153a0:	6365725f 	.word	0x6365725f
500153a4:	61745f76 	.word	0x61745f76
500153a8:	203a6b73 	.word	0x203a6b73
500153ac:	000a6425 	.word	0x000a6425
500153b0:	203a4449 	.word	0x203a4449
500153b4:	20583825 	.word	0x20583825
500153b8:	6e776f20 	.word	0x6e776f20
500153bc:	745f7265 	.word	0x745f7265
500153c0:	203a6263 	.word	0x203a6263
500153c4:	38257830 	.word	0x38257830
500153c8:	77202058 	.word	0x77202058
500153cc:	5f746961 	.word	0x5f746961
500153d0:	6b736174 	.word	0x6b736174
500153d4:	6425203a 	.word	0x6425203a
500153d8:	0000000a 	.word	0x0000000a
500153dc:	203a4449 	.word	0x203a4449
500153e0:	20583825 	.word	0x20583825
500153e4:	72756320 	.word	0x72756320
500153e8:	746e635f 	.word	0x746e635f
500153ec:	6425203a 	.word	0x6425203a
500153f0:	616d2020 	.word	0x616d2020
500153f4:	6e635f78 	.word	0x6e635f78
500153f8:	25203a74 	.word	0x25203a74
500153fc:	20206433 	.word	0x20206433
50015400:	74696177 	.word	0x74696177
50015404:	7361745f 	.word	0x7361745f
50015408:	25203a6b 	.word	0x25203a6b
5001540c:	00000a64 	.word	0x00000a64
50015410:	203a4449 	.word	0x203a4449
50015414:	20583825 	.word	0x20583825
50015418:	6e776f20 	.word	0x6e776f20
5001541c:	745f7265 	.word	0x745f7265
50015420:	203a6263 	.word	0x203a6263
50015424:	38257830 	.word	0x38257830
50015428:	77202058 	.word	0x77202058
5001542c:	5f746961 	.word	0x5f746961
50015430:	3a697270 	.word	0x3a697270
50015434:	64332520 	.word	0x64332520
50015438:	61772020 	.word	0x61772020
5001543c:	745f7469 	.word	0x745f7469
50015440:	3a6b7361 	.word	0x3a6b7361
50015444:	0a642520 	.word	0x0a642520
50015448:	00000000 	.word	0x00000000

5001544c <digits>:
5001544c:	33323130 37363534 62613938 66656463     0123456789abcdef
5001545c:	6a696867 6e6d6c6b 7271706f 76757473     ghijklmnopqrstuv
5001546c:	7a797877 00000000                       wxyz....

50015474 <ndigs>:
50015474:	15210000 0c0d0e11 0a0a0b0b 09090909     ..!.............
50015484:	08080809 08080808 07070707 07070707     ................
50015494:	07070707 00000007                       ........

5001549c <_C_ctype_>:
5001549c:	20202000 20202020 28282020 20282828     .         ((((( 
500154ac:	20202020 20202020 20202020 20202020                     
500154bc:	10108820 10101010 10101010 10101010      ...............
500154cc:	04040410 04040404 10040404 10101010     ................
500154dc:	41411010 41414141 01010101 01010101     ..AAAAAA........
500154ec:	01010101 01010101 01010101 10101010     ................
500154fc:	42421010 42424242 02020202 02020202     ..BBBBBB........
5001550c:	02020202 02020202 02020202 10101010     ................
5001551c:	00000020 00000000 00000000 00000000      ...............
	...
500155a0:	00006425 58257830 00000000 78257830     %d..0x%X....0x%x
500155b0:	00000000 57454644 72657620 6e6f6973     ....DFEW version
500155c0:	312e3020 0000302e 0a732520 00000000      0.1.0.. %s.....
500155d0:	25732520 73252073 0000000a 5d5d5d5d      %s%s %s....]]]]
500155e0:	5d5d5d5d 5d5d5d5d 5d5d5d5d 5d5d5d5d     ]]]]]]]]]]]]]]]]
500155f0:	00205d5d 77656644 0000534f 2e302e31     ]] .DfewOS..1.0.
50015600:	00000030 25732520 00000a73 5d5d5d5d     0... %s%s...]]]]
50015610:	5d5d5d5d 5d5d5d5d 5d5d5d5d 205d5d5d     ]]]]]]]]]]]]]]] 
50015620:	4b202020 454e5245 00203a4c 5d5d5d5d        KERNEL: .]]]]
50015630:	5d5d5d5d 5d5d5d5d 5d5d5d5d 20202020     ]]]]]]]]]]]]    
50015640:	43202020 7279706f 74686769 66204420        Copyright D f
50015650:	202c7765 2e636e49 3931202c 322d3838     ew, Inc., 1988-2
50015660:	00313130 0000000a 20202020 20202020     011.....        
50015670:	20202020 20202020 20202020 20202020                     
50015680:	20202020 20202020 5d5d5d20 0000005d              ]]]]...
50015690:	20202020 20202020 20202020 20202020                     
500156a0:	20202020 20202020 20202020 5d202020                    ]
500156b0:	005d5d5d 20202020 20202020 20202020     ]]].            
500156c0:	20202020 20202020 20202020 20202020                     
500156d0:	5d5d2020 0000005d 20202020 20202020       ]]]...        
500156e0:	20202020 20202020 20202020 20202020                     
500156f0:	20202020 5d5d5d20 00000000 20202020          ]]]....    
50015700:	20202020 20202020 20202020 20202020                     
50015710:	20202020 20202020 005d5d5d 20202020             ]]].    
50015720:	20202020 20202020 20202020 20202020                     
50015730:	20202020 5d202020 00005d5d 20202020            ]]]..    
50015740:	20202020 20202020 20202020 20202020                     
50015750:	20202020 5d5d2020 0000005d 5d5d5d5d           ]]]...]]]]
50015760:	5d5d5d5d 5d5d5d5d 5d5d5d5d 5d5d5d5d     ]]]]]]]]]]]]]]]]
50015770:	5d5d5d5d 5d5d5d5d 5d5d5d5d 5d5d5d5d     ]]]]]]]]]]]]]]]]
50015780:	5d5d5d5d 5d5d5d5d 5d5d5d5d 5d5d5d5d     ]]]]]]]]]]]]]]]]
50015790:	005d5d5d 20202020 20202020 20202020     ]]].            
500157a0:	20202020 20202020 20202020 005d5d5d                 ]]].
500157b0:	20202020 20202020 20202020 5d5d5d5d                 ]]]]
500157c0:	20205d5d 5d202020 20205d5d 20202020     ]]     ]]]      
500157d0:	20202020 5d202020 00005d5d 20202020            ]]]..    
500157e0:	20202020 5d5d2020 2020205d 5d5d2020           ]]]     ]]
500157f0:	5d5d205d 20205d5d 20202020 20202020     ] ]]]]          
50015800:	20202020 005d5d5d 20202020 20202020         ]]].        
50015810:	205d5d5d 20202020 20202020 5d5d5d20     ]]]          ]]]
50015820:	20205d5d 20202020 205d5d5d 20202020     ]]      ]]]     
50015830:	005d5d20 20202020 20202020 205d5d5d      ]].        ]]] 
50015840:	20202020 20202020 205d5d5d 20205d5d             ]]] ]]  
50015850:	5d202020 5d5d205d 20202020 005d5d20        ]] ]]     ]].
50015860:	20202020 20202020 205d5d5d 20202020             ]]]     
50015870:	5d202020 20205d5d 205d5d5d 5d5d2020        ]]]  ]]]   ]]
50015880:	5d5d2020 20202020 00005d5d 20202020       ]]    ]]..    
50015890:	20202020 5d5d2020 2020205d 5d5d5d20           ]]]    ]]]
500158a0:	20202020 5d5d5d20 205d5d20 5d202020          ]]] ]]    ]
500158b0:	5d20205d 0000005d 20202020 20202020     ]  ]]...        
500158c0:	20202020 5d5d5d5d 20205d5d 20202020         ]]]]]]      
500158d0:	5d5d2020 20205d5d 20202020 5d5d5d5d       ]]]]      ]]]]
500158e0:	20202020 20202020 4d542820 00000029              (TM)...
500158f0:	50015664 50015668 50015690 500156b4     dV.PhV.P.V.P.V.P
50015900:	500156d8 500156fc 5001571c 5001573c     .V.P.V.P.W.P<W.P
50015910:	5001575c 50015794 500157b0 500157dc     \W.P.W.P.W.P.W.P
50015920:	50015808 50015834 50015860 5001588c     .X.P4X.P`X.P.X.P
50015930:	500158b8 50015664 203e2d0a 00000000     .X.PdV.P.-> ....
50015940:	00203e2d 2075410a 6f766552 0a217269     -> ..Au Revoir!.
50015950:	00000000 00082008 58257830 00000000     ..... ..0x%X....
50015960:	00006425 7830282a 29583825 30203d20     %d..*(0x%8X) = 0
50015970:	58382578 0000000a 61657243 46206574     x%8X....Create F
50015980:	204f4649 6c696166 00216465 20656854     IFO failed!.The 
50015990:	4f464946 20736920 6c6c7566 00000021     FIFO is full!...
500159a0:	3a747550 0a642520 00000000 20656854     Put: %d.....The 
500159b0:	20747570 7265706f 6f697461 7369206e     put operation is
500159c0:	6e6f4420 00002e65 20656854 4f464946      Done...The FIFO
500159d0:	20736920 20746f6e 61657263 00216574      is not create!.
500159e0:	20656854 4f464946 20736920 74706d65     The FIFO is empt
500159f0:	00002179 3a746547 0a642520 00000000     y!..Get: %d.....
50015a00:	20656854 20746567 7265706f 6f697461     The get operatio
50015a10:	7369206e 6e6f4420 00002e65 6c654474     n is Done...tDel
50015a20:	00007961 6b6e6f64 3d207965 0a642520     ay..donkey = %d.
50015a30:	00000000 6c654474 5b207961 38257830     ....tDelay [0x%8
50015a40:	203a5d58 203d2069 000a6425 1b485b1b     X]: i = %d...[H.
50015a50:	004a305b 706c6568 00000000 776f6873     [0J.help....show
50015a60:	6d6f6320 646e616d 666e6920 616d726f      command informa
50015a70:	6e6f6974 00000000 00000069 776f6873     tion....i...show
50015a80:	73617420 6e69206b 6d726f66 6f697461      task informatio
50015a90:	0000006e 00000062 776f6873 6d657320     n...b...show sem
50015aa0:	6e692042 6d726f66 6f697461 0000006e     B information...
50015ab0:	00000063 776f6873 6d657320 6e692043     c...show semC in
50015ac0:	6d726f66 6f697461 0000006e 0000006d     formation...m...
50015ad0:	776f6873 6d657320 6e69204d 6d726f66     show semM inform
50015ae0:	6f697461 0000006e 00000071 776f6873     ation...q...show
50015af0:	67736d20 6e692051 6d726f66 6f697461      msgQ informatio
50015b00:	0000006e 00000068 776f6873 61656820     n...h...show hea
50015b10:	6e692070 6d726f66 6f697461 0000006e     p information...
50015b20:	00000064 776f6873 6d656d20 2079726f     d...show memory 
50015b30:	756c6176 00000065 00000073 20746573     value...s...set 
50015b40:	6f6d656d 76207972 65756c61 00000000     memory value....
50015b50:	6e6e6162 00007265 776f6873 65687420     banner..show the
50015b60:	20736f20 6e6e6162 00007265 00006363      os banner..cc..
50015b70:	61657263 61206574 6c656420 74207961     create a delay t
50015b80:	006b7361 00006464 7265766f 6c6c6120     ask.dd..over all
50015b90:	6c656420 74207961 006b7361 00007070      delay task.pp..
50015ba0:	20747570 65746e69 20726567 6f746e69     put integer into
50015bb0:	46494620 0000004f 00006767 20746567      FIFO...gg..get 
50015bc0:	65746e69 20726567 6d6f7266 46494620     integer from FIF
50015bd0:	0000004f 74697865 00000000 74697865     O...exit....exit
50015be0:	69687420 68732073 006c6c65 6f626572      this shell.rebo
50015bf0:	0000746f 6f626572 4420746f 4f776566     ot..reboot DfewO
50015c00:	00000053 00736c63 61656c63 63732072     S...cls.clear sc
50015c10:	6e656572 00000000 656d6974 00000000     reen....time....
50015c20:	776f6873 74614d20 20786972 656d6974     show Matrix time
50015c30:	00000000 73257325 35252020 25202064     ....%s%s  %5d  %
50015c40:	20732573 25783020 20205838 38257830     s%s  0x%8X  0x%8
50015c50:	30202058 58382578 73252020 25256425     X  0x%8X  %s%d%%
50015c60:	0000000a 4e20200a 20454d41 20202020     .....  NAME     
50015c70:	20495250 53202020 55544154 20202053     PRI    STATUS   
50015c80:	20202020 20205053 20202020 50202020         SP         P
50015c90:	4a424f5f 20202020 54202020 20204243     _OBJ       TCB  
50015ca0:	20202020 54532020 0a4b4341 2d2d2d2d           STACK.----
50015cb0:	2d2d2d2d 2d2d2020 202d2d2d 2d2d2d20     ----  -----  ---
50015cc0:	2d2d2d2d 2d20202d 2d2d2d2d 2d2d2d2d     -----  ---------
50015cd0:	2d20202d 2d2d2d2d 2d2d2d2d 2d20202d     -  ----------  -
50015ce0:	2d2d2d2d 2d2d2d2d 2d20202d 2d2d2d2d     ---------  -----
50015cf0:	2d2d2d2d 00000a2d 00000000 00000020     -----....... ...
50015d00:	00002020 00202020 20202020 00000000       ..   .    ....
50015d10:	20202020 00000020 20202020 00002020          ...      ..
50015d20:	20202020 00202020 20202020 20202020            .        
50015d30:	00000000 44414552 00000059 414c4544     ....READY...DELA
50015d40:	00000059 444e4550 00004d5f 444e4550     Y...PEND_M..PEND
50015d50:	0000425f 444e4550 0000435f 5f47534d     _B..PEND_C..MSG_
50015d60:	00000053 5f47534d 00000052 0000007c     S...MSG_R...|...
50015d70:	00007c7c 007c7c7c 7c7c7c7c 00000000     ||..|||.||||....
50015d80:	7c7c7c7c 0000007c 7c7c7c7c 00007c7c     |||||...||||||..
50015d90:	7c7c7c7c 007c7c7c 7c7c7c7c 7c7c7c7c     |||||||.||||||||
50015da0:	00000000 31335b1b 7c7c7c6d 7c7c7c7c     .....[31m|||||||
50015db0:	5b1b7c7c 006d3733 31335b1b 7c7c7c6d     ||.[37m..[31m|||
50015dc0:	7c7c7c7c 1b7c7c7c 6d37335b 00000000     |||||||.[37m....
50015dd0:	31335b1b 7c7c7c6d 7c7c7c7c 7c7c7c7c     .[31m|||||||||||
50015de0:	37335b1b 0000006d 006c6163 636c6163     .[37m...cal.calc
50015df0:	74616c75 6120726f 7865206e 73657270     ulator an expres
50015e00:	6e6f6973 6c617620 00206575 656c6e55     sion value .Unle
50015e10:	206c6167 72707845 69737365 20216e6f     gal Expression! 
50015e20:	706f7453 20746120 22732522 0000000a     Stop at "%s"....
50015e30:	616d6e75 65686374 72622064 5f6b6361     unmatched brack_
50015e40:	006d756e 69766964 62206564 00302079     num.divide by 0.
50015e50:	6e6b6e75 206e776f 7265706f 726f7461     unknown operator
50015e60:	00000021 000a7325 61657375 203a6567     !...%s..useage: 
50015e70:	206c6163 2a332b32 382b3728 0a322f29     cal 2+3*(7+8)/2.
50015e80:	00000000 3d207325 00642520 65746164     ....%s = %d.date
50015e90:	00000000 20746573 20646e61 776f6873     ....set and show
50015ea0:	74616420 00000065                        date...

50015ea8 <_G_year_code>:
50015ea8:	0a53ae04 26554857 50260dbd 4644950d     ..S.WHU&..&P..DF
50015eb8:	6a05b9aa 42ad094d 04b6ae24 4d6a4aae     ...jM..B$....JjM
50015ec8:	524d0abe 5d46250d 540bba52 436a0d4e     ..MR.%F]R..TN.jC
50015ed8:	09376d29 9b744b5b 549704c1 5b484b0a     )m7.[Kt....T.KH[
50015ee8:	a506bc25 45d40650 02b8da4a 57094db6     %...P..EJ....M.W
50015ef8:	b7972442 664a9704 4a0d3e4b 46a50e51     B$....JfK>.JQ..F
50015f08:	05bad456 b6024ead 38373944 7c4b2e09     V....N..D978..K|
50015f18:	950cbf96 484a0d53 0b3ba56d 6a054f55     ....S.JHm.;.UO.j
50015f28:	b9ad4a45 094d5d02 952c422d 4a950ab6     EJ...]M.-B,....J
50015f38:	06bd4a7b 550b51ca bb5a5546 0a4eda04     {J...Q.UFUZ...N.
50015f48:	2b35435b 4c2b05b8 0e3f958a aa065295     [C5+..+L..?..R..
50015f58:	3cd57a48 044fb50a 574a45b6 4d570a39     Hz.<..O..EJW9.WM
50015f68:	3e422605 950d3593 beaa7549 09516a05     .&B>.5..Iu...jQ.
50015f78:	ae54466d 4fad04bb 4d434d0a 250db726     mFT....O.MCM&..%
50015f88:	bf528d4b 0b52540b 6d69476a 505b093c     K.R..TR.jGim<.[P
50015f98:	4a459b04 4b0ab94b c225ab4d 0654a506     ..EJK..KM.%...T.
50015fa8:	da6a49d4 51b60a3d 54463709 9704bb97     .Ij.=..Q.7FT....
50015fb8:	444b064f 0e37a536 b2864aa5 53ac05bf     O.KD6.7..J.....S
50015fc8:	5947b60a 2e09bc36 45960c50 0db84a4d     ..GY6...P..EMJ..
50015fd8:	a50d4c4a b6aa2541 7a496a05 5d02bdad     JL..A%...jIz...]
50015fe8:	472d0952 0aba955c 4a0b4e95 37554b43     R.-G\....N.JCKU7
50015ff8:	954ad50a ba04bf5a 485b0a53 05bc2b65     ..J.Z...S.[He+..
50016008:	930a502b b94a4745 0a4caa06 da2441d5     +P..EGJ...L..A$.
50016018:	4ab604b6 0a3d5769 260d514e 3a935e46     ...JiW=.NQ.&F^.:
50016028:	054d530d b53643aa 4b6d0937 04bfaeb4     .SM..C6.7.mK....
50016038:	4d0a53ad bc256d48 0d4f250d aa5d4452     .S.MHm%..%O.RD].
50016048:	4c5a0b38 24416d05 9b04b6ad be4b7a4a     8.ZL.mA$....JzK.
50016058:	0a514b0a 525b46a5 4ed206ba 3542da0a     .KQ..F[R...N..B5
50016068:	3709375b c197844b 06539704 a566484b     [7.7K.....S.KHf.
50016078:	4fa50e3c 4a44b206 ae0a38b6 422e094c     <..O..DJ.8..L..B
50016088:	0c35973c 4a7d4996 514a0dbd 5545a50d     <.5..I}J..JQ..EU
50016098:	6a05baaa 436d0a4e 05b72e45 958a4b2d     ...jN.mCE...-K..
500160a8:	53950abf 6b474a0b d50a3b55 455a054f     ...S.JGkU;..O.ZE
500160b8:	0a385d4a 2b054c5b b6933a42 77499306     J]8.[L.+B:....Iw
500160c8:	aa06bd29 46d50a51 04bada54 570a4eb6     )...Q..FT....N.W
500160d8:	38274543 8e4a260d 520d3e93 47aa0d52     CE'8.&J..>.RR..G
500160e8:	053bb566 ae044f6d b94e4a45 0d4c4d0a     f.;.mO..EJN..ML.
500160f8:	922d4115 000000b5                       .A-.....

50016100 <_G_days_interval>:
50016100:	001f0000 005a003b 00970078 00d400b5     ....;.Z.x.......
50016110:	011100f3 014e0130                       ....0.N.

50016118 <_G_days_month>:
50016118:	1e1f1c1f 1f1f1e1f 1f1e1f1e 0000c2d4     ................

50016128 <_G_jie_qi_days>:
50016128:	13041406 14051506 15061506 17081707     ................
50016138:	18081708 16071608                       ........

50016140 <_G_jie_qi_fix>:
50016140:	9c99a64e 008098a2 24100018 9c99a64e     N..........$N...
50016150:	828098a2 24100018 9ed9a64e 828098a2     .......$N.......
50016160:	04100018 9ed9e64e 8280a8a6 00100018     ....N...........
50016170:	bed9e60f 828898a6 00008018 bed9ef0f     ................
50016180:	828c99a6 00008098 bedbef0f a29c99a6     ................
50016190:	18008098 bedbef0f a29c99a6 18008098     ................
500161a0:	bedbef0f a08c99a2 18828098 bedbef0b     ................
500161b0:	a28c99a6 18828098 bedbef0f a29ed9e6     ................
500161c0:	18828098 bffbef0f a69ed9e6 18828098     ................
500161d0:	fcffff0f a6bed9ef 00000018              ............

500161dc <_G_jie_qi_str>:
500161dc:	00000000 baa1d000 f3b400ae c100aeba     ................
500161ec:	00bab4a2 aecbead3 d5aabe00 bab400dd     ................
500161fc:	c700d6b7 00f7c3e5 ead3c8b9 cfa2c100     ................
5001620c:	c4cf00c4 c300fac2 00d6d6a2 c1d6c4cf     ................
5001621c:	caa1d000 f3b400ee c100eeca 00efc7a2     ................
5001622c:	eecaa6b4 c2d7b000 efc700b6 ba00d6b7     ................
5001623c:	00b6c2ae b5bdaacb b6a2c100 a1d000ac     ................
5001624c:	b400a9d1 00a9d1f3 c1d6acb6 00000000     ................
5001625c:	7325e0be d0d3b9bb eccc6425 00000000     ..%s....%d......
5001626c:	646e7553 00007961 646e6f4d 00007961     Sunday..Monday..
5001627c:	73657554 00796164 6e646557 61647365     Tuesday.Wednesda
5001628c:	00000079 72756854 79616473 00000000     y...Thursday....
5001629c:	64697246 00007961 75746153 79616472     Friday..Saturday
500162ac:	00000000 004e5553 004e4f4d 00455554     ....SUN.MON.TUE.
500162bc:	00444557 00554854 00495246 00544153     WED.THU.FRI.SAT.
500162cc:	00006425 33335b1b 0000006d 65746144     %d...[33m...Date
500162dc:	203a2020 252d6425 2d643230 64323025       : %d-%02d-%02d
500162ec:	646f540a 3a207961 0a732520 00000000     .Today : %s.....
500162fc:	32335b1b 0000006d 2d2d2d2d 2d2d2d2d     .[32m...--------
5001630c:	2d2d2d2d 2d2d2d2d 2d2d2d2d 2d2d2d2d     ----------------
5001631c:	2d2d2d2d 00000a2d 00732520 0000000a     -----... %s.....
5001632c:	20202020 00000000 35335b1b 0000006d         .....[35m...
5001633c:	37335b1b 0000006d 00002020 31335b1b     .[37m...  ...[31
5001634c:	0000006d 34345b1b 0000006d 00643225     m....[44m...%2d.
5001635c:	30345b1b 0000006d 00643425 656d6954     .[40m...%4d.Time
5001636c:	25203a20 3a643230 64323025 3230253a      : %02d:%02d:%02
5001637c:	00000064 c0a9c50a 203a20fa 00000000     d........ : ....
5001638c:	eac47325 20732520 7325bea1 000abfa1     %s.. %s ..%s....
5001639c:	73257325 00000000 4e524157 3a474e49     %s%s....WARNING:
500163ac:	65685720 6573206e 69742074 202c656d      When set time, 
500163bc:	61766e69 2064696c 6f636573 253a646e     invalid second:%
500163cc:	00000a64 4e524157 3a474e49 65685720     d...WARNING: Whe
500163dc:	6573206e 69742074 202c656d 61766e69     n set time, inva
500163ec:	2064696c 756e696d 253a6574 00000a64     lid minute:%d...
500163fc:	4e524157 3a474e49 65685720 6573206e     WARNING: When se
5001640c:	69742074 202c656d 61766e69 2064696c     t time, invalid 
5001641c:	72756f68 0a64253a 00000000 4e524157     hour:%d.....WARN
5001642c:	3a474e49 65685720 6573206e 69742074     ING: When set ti
5001643c:	202c656d 61766e69 2064696c 72616579     me, invalid year
5001644c:	0a64253a 00000000 4e524157 3a474e49     :%d.....WARNING:
5001645c:	65685720 6573206e 69742074 202c656d      When set time, 
5001646c:	61766e69 2064696c 746e6f6d 64253a68     invalid month:%d
5001647c:	0000000a 4e524157 3a474e49 65685720     ....WARNING: Whe
5001648c:	6573206e 69742074 202c656d 61766e69     n set time, inva
5001649c:	2064696c 3a796164 000a6425 6e61696c     lid day:%d..lian
500164ac:	00000000 6e61696c 6e61696c 206e616b     ....lianliankan 
500164bc:	656d6167 00000000 61694c74 6d69546e     game....tLianTim
500164cc:	00000065 676e6f43 75746172 6974616c     e...Congratulati
500164dc:	20216e6f 72756f59 6f635320 203a6572     on! Your Score: 
500164ec:	00006425 6f592020 72612075 45442065     %d..  You are DE
500164fc:	20204441 00000000 20492020 74206d61     AD  ....  I am t
5001650c:	6e697972 20202167 00000000 20756f59     rying!  ....You 
5001651c:	656d6954 25203a20 00006434 20202020     Time : %4d..    
5001652c:	656d6147 65764f20 20202172 00002020     Game Over!    ..

5001653c <_G_level_maps>:
5001653c:	ffffffff ffffffff ffffffff ffffffff     ................
5001654c:	ffffffff ffffffff ffffffff ffffffff     ................
5001655c:	ffffffff ffffffff ffffffff ffffffff     ................
5001656c:	ffffffff 00000000 00000000 00000000     ................
	...
50016598:	ffffffff ffffffff 00000000 00000001     ................
500165a8:	00000001 00000001 00000001 00000001     ................
500165b8:	00000001 00000001 00000001 00000000     ................
500165c8:	ffffffff ffffffff 00000000 00000001     ................
500165d8:	00000001 00000001 00000001 00000001     ................
500165e8:	00000001 00000001 00000001 00000000     ................
500165f8:	ffffffff ffffffff 00000000 00000001     ................
50016608:	00000001 00000001 00000001 00000001     ................
50016618:	00000001 00000001 00000001 00000000     ................
50016628:	ffffffff ffffffff 00000000 00000000     ................
	...
50016640:	00000001 00000001 00000000 00000000     ................
	...
50016658:	ffffffff ffffffff 00000000 00000000     ................
	...
50016670:	00000001 00000001 00000000 00000000     ................
	...
50016688:	ffffffff ffffffff 00000000 00000001     ................
50016698:	00000001 00000001 00000001 00000001     ................
500166a8:	00000001 00000001 00000001 00000000     ................
500166b8:	ffffffff ffffffff 00000000 00000001     ................
500166c8:	00000001 00000001 00000001 00000001     ................
500166d8:	00000001 00000001 00000001 00000000     ................
500166e8:	ffffffff ffffffff 00000000 00000001     ................
500166f8:	00000001 00000001 00000001 00000001     ................
50016708:	00000001 00000001 00000001 00000000     ................
50016718:	ffffffff ffffffff 00000000 00000000     ................
	...
50016748:	ffffffff ffffffff ffffffff ffffffff     ................
50016758:	ffffffff ffffffff ffffffff ffffffff     ................
50016768:	ffffffff ffffffff ffffffff ffffffff     ................
50016778:	ffffffff ffffffff ffffffff ffffffff     ................
50016788:	ffffffff ffffffff ffffffff ffffffff     ................
50016798:	ffffffff ffffffff ffffffff ffffffff     ................
500167a8:	ffffffff ffffffff 00000000 00000000     ................
	...
500167d8:	ffffffff ffffffff 00000000 00000001     ................
500167e8:	00000001 00000001 00000001 00000001     ................
500167f8:	00000001 00000001 00000001 00000000     ................
50016808:	ffffffff ffffffff 00000000 00000001     ................
50016818:	00000001 00000001 00000000 00000000     ................
50016828:	00000001 00000001 00000001 00000000     ................
50016838:	ffffffff ffffffff 00000000 00000001     ................
50016848:	00000001 00000001 00000001 00000001     ................
50016858:	00000001 00000001 00000001 00000000     ................
50016868:	ffffffff ffffffff 00000000 00000000     ................
	...
50016880:	00000001 00000001 00000001 00000000     ................
	...
50016898:	ffffffff ffffffff 00000000 00000001     ................
500168a8:	00000001 00000000 00000001 00000001     ................
	...
500168c0:	00000001 00000000 ffffffff ffffffff     ................
500168d0:	00000000 00000001 00000001 00000001     ................
500168e0:	00000001 00000001 00000001 00000001     ................
500168f0:	00000001 00000000 ffffffff ffffffff     ................
50016900:	00000000 00000001 00000001 00000001     ................
50016910:	00000001 00000001 00000001 00000001     ................
50016920:	00000001 00000000 ffffffff ffffffff     ................
50016930:	00000000 00000001 00000001 00000001     ................
50016940:	00000001 00000001 00000001 00000001     ................
50016950:	00000001 00000000 ffffffff ffffffff     ................
	...
50016988:	ffffffff ffffffff ffffffff ffffffff     ................
50016998:	ffffffff ffffffff ffffffff ffffffff     ................
500169a8:	ffffffff ffffffff ffffffff ffffffff     ................
500169b8:	ffffffff ffffffff ffffffff ffffffff     ................
500169c8:	ffffffff ffffffff ffffffff ffffffff     ................
500169d8:	ffffffff ffffffff ffffffff ffffffff     ................
500169e8:	ffffffff ffffffff 00000000 00000000     ................
	...
50016a18:	ffffffff ffffffff 00000000 00000001     ................
50016a28:	00000001 00000001 00000001 00000001     ................
50016a38:	00000001 00000001 00000001 00000000     ................
50016a48:	ffffffff ffffffff 00000000 00000001     ................
50016a58:	00000001 00000001 00000001 00000001     ................
50016a68:	00000001 00000001 00000001 00000000     ................
50016a78:	ffffffff ffffffff 00000000 00000001     ................
50016a88:	00000001 00000001 00000001 00000001     ................
50016a98:	00000001 00000001 00000001 00000000     ................
50016aa8:	ffffffff ffffffff 00000000 00000001     ................
50016ab8:	00000001 00000001 00000001 00000001     ................
50016ac8:	00000001 00000001 00000001 00000000     ................
50016ad8:	ffffffff ffffffff 00000000 00000001     ................
50016ae8:	00000001 00000001 00000001 00000001     ................
50016af8:	00000001 00000001 00000001 00000000     ................
50016b08:	ffffffff ffffffff 00000000 00000001     ................
50016b18:	00000001 00000001 00000001 00000001     ................
50016b28:	00000001 00000001 00000001 00000000     ................
50016b38:	ffffffff ffffffff 00000000 00000001     ................
50016b48:	00000001 00000001 00000001 00000001     ................
50016b58:	00000001 00000001 00000001 00000000     ................
50016b68:	ffffffff ffffffff 00000000 00000001     ................
50016b78:	00000001 00000001 00000001 00000001     ................
50016b88:	00000001 00000001 00000001 00000000     ................
50016b98:	ffffffff ffffffff 00000000 00000000     ................
	...
50016bc8:	ffffffff ffffffff ffffffff ffffffff     ................
50016bd8:	ffffffff ffffffff ffffffff ffffffff     ................
50016be8:	ffffffff ffffffff ffffffff ffffffff     ................
50016bf8:	ffffffff 63656863 6874206b 616d2065     ....check the ma
50016c08:	49202c70 20732774 6c6c6966 62206465     p, It's filled b
50016c18:	6b636f6c 6d756e20 20726562 74277369     lock number is't
50016c28:	64646f20 0000000a 6d206f4e 726f6d65      odd....No memor
50016c38:	000a2e79 20206425 00000020 2079203a     y...%d   ...: y 
50016c48:	6425203d 0000000a 2c64257b 7d642520     = %d....{%d, %d}
50016c58:	00000009 2d2d2d0a 2d2d2d2d 2d2d2d2d     .....-----------
50016c68:	2d2d2d2d 2d2d2d2d 2d2d2d2d 2d2d2d2d     ----------------
50016c78:	000a2d2d 72617453 7b203a74 202c6425     --..Start: {%d, 
50016c88:	207d6425 6425203d 45202020 203a646e     %d} = %d   End: 
50016c98:	2c64257b 7d642520 25203d20 00002064     {%d, %d} = %d ..
50016ca8:	276e6143 69662074 7020646e 2e687461     Can't find path.
50016cb8:	0000000a 00002020 00004141 00004242     ....  ..AA..BB..
50016cc8:	00004343 00004444 00004545 00004646     CC..DD..EE..FF..
50016cd8:	33335b1b 0000006d 30335b1b 0000006d     .[33m....[30m...
50016ce8:	64255b1b 4864253b 00000000 64255b1b     .[%d;%dH.....[%d
50016cf8:	0000006d 00000040 00000026 30345b1b     m...@...&....[40
50016d08:	0000006d 0000002d 5b1b087c 00000042     m...-...|..[B...
50016d18:	08425b1b 00000000 1b485b1b 004a305b     .[B......[H.[0J.
50016d28:	323f5b1b 00006c35 00445b1b 00415b1b     .[?25l...[D..[A.
50016d38:	00435b1b 00425b1b 0000000d 00000009     .[C..[B.........
50016d48:	00000060 0000001b 00000042 37335b1b     `.......B....[37
50016d58:	0000006d 323f5b1b 00006835 72746574     m....[?25h..tetr
50016d68:	00007369 72746574 67207369 00656d61     is..tetris game.
50016d78:	64255b1b 4864253b 00000000 30345b1b     .[%d;%dH.....[40
50016d88:	0000006d 33335b1b 0000006d 726f6353     m....[33m...Scor
50016d98:	25203a65 00000064 30335b1b 0000006d     e: %d....[30m...
50016da8:	64255b1b 0000006d 00005f5f 1b485b1b     .[%dm...__...[H.
50016db8:	004a305b 323f5b1b 00006c35 37335b1b     [0J..[?25l...[37
50016dc8:	0000006d 323f5b1b 00006835              m....[?25h..

50016dd4 <_G_block_map>:
50016dd4:	00000000 00000001 00000010 00000011     ................
50016de4:	00000000 00000010 00000020 00000030     ........ ...0...
50016df4:	00000000 00000001 00000002 00000003     ................
50016e04:	00000000 00000001 00000011 00000012     ................
50016e14:	00000001 00000010 00000011 00000020     ............ ...
50016e24:	00000001 00000002 00000010 00000011     ................
50016e34:	00000000 00000010 00000011 00000021     ............!...
50016e44:	00000000 00000001 00000002 00000011     ................
50016e54:	00000001 00000010 00000011 00000021     ............!...
50016e64:	00000001 00000010 00000011 00000012     ................
50016e74:	00000000 00000010 00000011 00000020     ............ ...
50016e84:	00000001 00000011 00000020 00000021     ........ ...!...
50016e94:	00000000 00000010 00000011 00000012     ................
50016ea4:	00000000 00000001 00000010 00000020     ............ ...
50016eb4:	00000000 00000001 00000002 00000012     ................
50016ec4:	00000000 00000010 00000020 00000021     ........ ...!...
50016ed4:	00000000 00000001 00000002 00000010     ................
50016ee4:	00000000 00000001 00000011 00000021     ............!...
50016ef4:	00000002 00000010 00000011 00000012     ................

50016f04 <_G_score_map>:
50016f04:	00000000 00000001 00000003 00000007     ................
50016f14:	0000000f                                ....

50016f18 <_G_color_map>:
50016f18:	00000001 00000002 00000002 00000003     ................
50016f28:	00000003 00000004 00000004 00000005     ................
50016f38:	00000005 00000005 00000005 00000006     ................
50016f48:	00000006 00000006 00000006 00000007     ................
50016f58:	00000007 00000007 00000007 72656854     ............Ther
50016f68:	73692065 206f6e20 6f6d656d 66207972     e is no memory f
50016f78:	3c20726f 64697242 495f6567 0a213e44     or <Bridge_ID>!.
50016f88:	00000000 00425b1b 00000020 00415b1b     .....[B. ....[A.
50016f98:	00445b1b 00435b1b 00000060 00000068     .[D..[C.`...h...
50016fa8:	0000001b                                ....

50016fac <_G_block_map>:
50016fac:	00000000 00000001 00000010 00000011     ................
50016fbc:	00000000 00000010 00000020 00000030     ........ ...0...
50016fcc:	00000000 00000001 00000002 00000003     ................
50016fdc:	00000000 00000001 00000011 00000012     ................
50016fec:	00000001 00000010 00000011 00000020     ............ ...
50016ffc:	00000001 00000002 00000010 00000011     ................
5001700c:	00000000 00000010 00000011 00000021     ............!...
5001701c:	00000000 00000001 00000002 00000011     ................
5001702c:	00000001 00000010 00000011 00000021     ............!...
5001703c:	00000001 00000010 00000011 00000012     ................
5001704c:	00000000 00000010 00000011 00000020     ............ ...
5001705c:	00000001 00000011 00000020 00000021     ........ ...!...
5001706c:	00000000 00000010 00000011 00000012     ................
5001707c:	00000000 00000001 00000010 00000020     ............ ...
5001708c:	00000000 00000001 00000002 00000012     ................
5001709c:	00000000 00000010 00000020 00000021     ........ ...!...
500170ac:	00000000 00000001 00000002 00000010     ................
500170bc:	00000000 00000001 00000011 00000021     ............!...
500170cc:	00000002 00000010 00000011 00000012     ................

500170dc <_G_score_map>:
500170dc:	00000000 00000001 00000003 00000007     ................
500170ec:	0000000f                                ....

500170f0 <_G_color_map>:
500170f0:	00000001 00000002 00000002 00000003     ................
50017100:	00000003 00000004 00000004 00000005     ................
50017110:	00000005 00000005 00000005 00000006     ................
50017120:	00000006 00000006 00000006 00000007     ................
50017130:	00000007 00000007 00000007 72656854     ............Ther
50017140:	73692065 206f6e20 6f6d656d 66207972     e is no memory f
50017150:	3c20726f 72746554 495f7369 0a213e44     or <Tetris_ID>!.
50017160:	00000000 72656854 73692065 206f6e20     ....There is no 
50017170:	6f6d656d 66207972 3c20726f 5f726373     memory for <scr_
50017180:	3e70616d 00000a21 72656854 73692065     map>!...There is
50017190:	206f6e20 6f6d656d 66207972 3c20726f      no memory for <
500171a0:	65646f6e 6c6f635f 6d5f726f 213e7061     node_color_map>!
500171b0:	0000000a 5f625274 00626f6a 5f625274     ....tRb_job.tRb_
500171c0:	006e7764 5f625274 6f747561 00000000     dwn.tRb_auto....
500171d0:	6b616e73 00000065 6b616e73 61672065     snake...snake ga
500171e0:	0000656d 64255b1b 4864253b 00000000     me...[%d;%dH....
500171f0:	30345b1b 0000006d 33335b1b 0000006d     .[40m....[33m...
50017200:	726f6353 25203a65 00000064 30335b1b     Score: %d....[30
50017210:	0000006d 64255b1b 0000006d 00007c7c     m....[%dm...||..
50017220:	1b485b1b 004a305b 323f5b1b 00006c35     .[H.[0J..[?25l..
50017230:	37335b1b 0000006d 323f5b1b 00006835     .[37m....[?25h..
50017240:	6a5f5374 0000626f 6d5f5374 0000766f     tS_job..tS_mov..
50017250:	00425b1b 00000020 00415b1b 00445b1b     .[B. ....[A..[D.
50017260:	00435b1b 00000060 00000068 0000001b     .[C.`...h.......
50017270:	00000001 00000005 00000032 00000064     ........2...d...
50017280:	00000190 00000000 00000000              ............
